
Stella_C1_Firmware_V1.93.elf:     file format elf32-littlearm

Sections:
Idx Name          Size      VMA       LMA       File off  Algn
  0 .text         000096c0  00000000  00000000  00008000  2**3
                  CONTENTS, ALLOC, LOAD, READONLY, CODE
  1 .data         00000124  20000000  000096c0  00018000  2**2
                  CONTENTS, ALLOC, LOAD, DATA
  2 .bss          00002574  20000124  000097e4  00018124  2**2
                  ALLOC
  3 .debug_abbrev 00001bf1  00000000  00000000  00018124  2**0
                  CONTENTS, READONLY, DEBUGGING
  4 .debug_info   000081d8  00000000  00000000  00019d15  2**0
                  CONTENTS, READONLY, DEBUGGING
  5 .debug_line   0000249b  00000000  00000000  00021eed  2**0
                  CONTENTS, READONLY, DEBUGGING
  6 .debug_loc    000048cf  00000000  00000000  00024388  2**0
                  CONTENTS, READONLY, DEBUGGING
  7 .debug_pubnames 000030b4  00000000  00000000  00028c57  2**0
                  CONTENTS, READONLY, DEBUGGING
  8 .debug_aranges 000002e0  00000000  00000000  0002bd0b  2**0
                  CONTENTS, READONLY, DEBUGGING
  9 .debug_str    000035fb  00000000  00000000  0002bfeb  2**0
                  CONTENTS, READONLY, DEBUGGING
 10 .comment      000003dd  00000000  00000000  0002f5e6  2**0
                  CONTENTS, READONLY
 11 .ARM.attributes 00000031  00000000  00000000  0002f9c3  2**0
                  CONTENTS, READONLY
 12 .debug_frame  0000287c  00000000  00000000  0002f9f4  2**2
                  CONTENTS, READONLY, DEBUGGING
 13 .debug_ranges 00000030  00000000  00000000  00032270  2**0
                  CONTENTS, READONLY, DEBUGGING

Disassembly of section .text:

00000000 <g_pfnVectors>:
       0:	a8 02 00 20 6d 67 00 00 4d 67 00 00 2d 67 00 00     ... mg..Mg..-g..
      10:	0d 67 00 00 0d 67 00 00 0d 67 00 00 00 00 00 00     .g...g...g......
	...
      2c:	0d 67 00 00 0d 67 00 00 00 00 00 00 0d 67 00 00     .g...g.......g..
      3c:	0d 67 00 00 0d 67 00 00 0d 67 00 00 0d 67 00 00     .g...g...g...g..
      4c:	5d 65 00 00 0d 67 00 00 0d 67 00 00 0d 67 00 00     ]e...g...g...g..
      5c:	0d 67 00 00 0d 67 00 00 0d 67 00 00 0d 67 00 00     .g...g...g...g..
      6c:	0d 67 00 00 0d 67 00 00 0d 67 00 00 0d 67 00 00     .g...g...g...g..
      7c:	0d 67 00 00 0d 67 00 00 0d 67 00 00 0d 67 00 00     .g...g...g...g..
      8c:	ad 62 00 00 0d 67 00 00 0d 67 00 00 0d 67 00 00     .b...g...g...g..
      9c:	0d 67 00 00 0d 67 00 00 0d 67 00 00 0d 67 00 00     .g...g...g...g..
      ac:	0d 67 00 00 0d 67 00 00 0d 67 00 00 0d 67 00 00     .g...g...g...g..
      bc:	0d 67 00 00 0d 67 00 00 0d 67 00 00 0d 67 00 00     .g...g...g...g..
      cc:	0d 67 00 00 0d 67 00 00 0d 67 00 00 0d 67 00 00     .g...g...g...g..
      dc:	0d 67 00 00 0d 67 00 00 0d 67 00 00 0d 67 00 00     .g...g...g...g..
      ec:	0d 67 00 00                                         .g..

000000f0 <isqrt>:
//! \return Returns the square root of the input value.
//
//*****************************************************************************
unsigned long
isqrt(unsigned long ulValue)
{
      f0:	2100      	movs	r1, #0
      f2:	460b      	mov	r3, r1
      f4:	460a      	mov	r2, r1
    {
        //
        // Shift the root up by a bit to make room for the new bit that is
        // about to be computed.
        //
        ulRoot <<= 1;
      f6:	005b      	lsls	r3, r3, #1

        //
        // Get two more bits from the input into the remainder.
        //
        ulRem = ((ulRem << 2) + (ulValue >> 30));
      f8:	ea4f 7c90 	mov.w	ip, r0, lsr #30
      fc:	eb0c 0282 	add.w	r2, ip, r2, lsl #2
        ulValue <<= 2;

        //
        // Make the test root be 2n + 1.
        //
        ulRoot++;
     100:	f103 0c01 	add.w	ip, r3, #1

        //
        // Get two more bits from the input into the remainder.
        //
        ulRem = ((ulRem << 2) + (ulValue >> 30));
        ulValue <<= 2;
     104:	0080      	lsls	r0, r0, #2
        ulRoot++;

        //
        // See if the root is greater than the remainder.
        //
        if(ulRoot <= ulRem)
     106:	4594      	cmp	ip, r2
        {
            //
            // Subtract the test root from the remainder.
            //
            ulRem -= ulRoot;
     108:	bf9c      	itt	ls
     10a:	ebcc 0202 	rsbls	r2, ip, r2

            //
            // Increment the root, setting the second LSB.
            //
            ulRoot++;
     10e:	f10c 0301 	addls.w	r3, ip, #1
    ulRoot = 0;

    //
    // Loop over the sixteen bits in the root.
    //
    for(ulIdx = 0; ulIdx < 16; ulIdx++)
     112:	3101      	adds	r1, #1
     114:	2910      	cmp	r1, #16
     116:	d1ee      	bne.n	f6 <isqrt+0x6>

    //
    // Return the computed root.
    //
    return(ulRoot >> 1);
}
     118:	0858      	lsrs	r0, r3, #1
     11a:	4770      	bx	lr

0000011c <RingBufFull>:
    ASSERT(ptRingBuf != NULL);

    //
    // Copy the Read/Write indices for calculation.
    //
    ulWrite = ptRingBuf->ulWriteIndex;
     11c:	7903      	ldrb	r3, [r0, #4]
     11e:	7942      	ldrb	r2, [r0, #5]
    ulRead = ptRingBuf->ulReadIndex;
     120:	f890 c001 	ldrb.w	ip, [r0, #1]
    ASSERT(ptRingBuf != NULL);

    //
    // Copy the Read/Write indices for calculation.
    //
    ulWrite = ptRingBuf->ulWriteIndex;
     124:	ea43 2202 	orr.w	r2, r3, r2, lsl #8
     128:	7983      	ldrb	r3, [r0, #6]
     12a:	ea42 4203 	orr.w	r2, r2, r3, lsl #16
     12e:	79c3      	ldrb	r3, [r0, #7]
     130:	ea42 6203 	orr.w	r2, r2, r3, lsl #24
    ulRead = ptRingBuf->ulReadIndex;
     134:	7a03      	ldrb	r3, [r0, #8]
     136:	7a41      	ldrb	r1, [r0, #9]
     138:	3201      	adds	r2, #1
     13a:	ea43 2101 	orr.w	r1, r3, r1, lsl #8
     13e:	7a83      	ldrb	r3, [r0, #10]
     140:	ea41 4103 	orr.w	r1, r1, r3, lsl #16
     144:	7ac3      	ldrb	r3, [r0, #11]
     146:	ea41 6103 	orr.w	r1, r1, r3, lsl #24
     14a:	7803      	ldrb	r3, [r0, #0]
     14c:	ea43 230c 	orr.w	r3, r3, ip, lsl #8
     150:	f890 c002 	ldrb.w	ip, [r0, #2]
     154:	78c0      	ldrb	r0, [r0, #3]
     156:	ea43 430c 	orr.w	r3, r3, ip, lsl #16
     15a:	ea43 6300 	orr.w	r3, r3, r0, lsl #24
     15e:	fbb2 f0f3 	udiv	r0, r2, r3
     162:	fb03 2310 	mls	r3, r3, r0, r2

    //
    // Return the full status of the buffer.
    //
    return((((ulWrite + 1) % ptRingBuf->ulSize) == ulRead) ? true : false);
}
     166:	428b      	cmp	r3, r1
     168:	bf14      	ite	ne
     16a:	2000      	movne	r0, #0
     16c:	2001      	moveq	r0, #1
     16e:	4770      	bx	lr

00000170 <RingBufEmpty>:
    ASSERT(ptRingBuf != NULL);

    //
    // Copy the Read/Write indices for calculation.
    //
    ulWrite = ptRingBuf->ulWriteIndex;
     170:	7903      	ldrb	r3, [r0, #4]
     172:	7942      	ldrb	r2, [r0, #5]
     174:	ea43 2202 	orr.w	r2, r3, r2, lsl #8
     178:	7983      	ldrb	r3, [r0, #6]
     17a:	ea42 4203 	orr.w	r2, r2, r3, lsl #16
     17e:	79c3      	ldrb	r3, [r0, #7]
     180:	ea42 6203 	orr.w	r2, r2, r3, lsl #24
    ulRead = ptRingBuf->ulReadIndex;
     184:	7a03      	ldrb	r3, [r0, #8]
     186:	7a41      	ldrb	r1, [r0, #9]
     188:	ea43 2301 	orr.w	r3, r3, r1, lsl #8
     18c:	7a81      	ldrb	r1, [r0, #10]
     18e:	ea43 4301 	orr.w	r3, r3, r1, lsl #16
     192:	7ac1      	ldrb	r1, [r0, #11]
     194:	ea43 6301 	orr.w	r3, r3, r1, lsl #24

    //
    // Return the empty status of the buffer.
    //
    return((ulWrite == ulRead) ? true : false);
}
     198:	429a      	cmp	r2, r3
     19a:	bf14      	ite	ne
     19c:	2000      	movne	r0, #0
     19e:	2001      	moveq	r0, #1
     1a0:	4770      	bx	lr

000001a2 <RingBufUsed>:
    ASSERT(ptRingBuf != NULL);

    //
    // Copy the Read/Write indices for calculation.
    //
    ulWrite = ptRingBuf->ulWriteIndex;
     1a2:	7903      	ldrb	r3, [r0, #4]
     1a4:	7942      	ldrb	r2, [r0, #5]
     1a6:	ea43 2202 	orr.w	r2, r3, r2, lsl #8
     1aa:	7983      	ldrb	r3, [r0, #6]
     1ac:	ea42 4203 	orr.w	r2, r2, r3, lsl #16
     1b0:	79c3      	ldrb	r3, [r0, #7]
     1b2:	ea42 6203 	orr.w	r2, r2, r3, lsl #24
    ulRead = ptRingBuf->ulReadIndex;
     1b6:	7a03      	ldrb	r3, [r0, #8]
     1b8:	7a41      	ldrb	r1, [r0, #9]
     1ba:	ea43 2301 	orr.w	r3, r3, r1, lsl #8
     1be:	7a81      	ldrb	r1, [r0, #10]
     1c0:	ea43 4301 	orr.w	r3, r3, r1, lsl #16
     1c4:	7ac1      	ldrb	r1, [r0, #11]
     1c6:	ea43 6301 	orr.w	r3, r3, r1, lsl #24

    //
    // Return the number of bytes contained in the ring buffer.
    //
    return((ulWrite >= ulRead) ? (ulWrite - ulRead) :
     1ca:	429a      	cmp	r2, r3
     1cc:	d301      	bcc.n	1d2 <RingBufUsed+0x30>
     1ce:	1ad0      	subs	r0, r2, r3
     1d0:	4770      	bx	lr
     1d2:	f890 c001 	ldrb.w	ip, [r0, #1]
     1d6:	7801      	ldrb	r1, [r0, #0]
     1d8:	ea41 210c 	orr.w	r1, r1, ip, lsl #8
     1dc:	f890 c002 	ldrb.w	ip, [r0, #2]
     1e0:	78c0      	ldrb	r0, [r0, #3]
     1e2:	ea41 410c 	orr.w	r1, r1, ip, lsl #16
     1e6:	ea41 6000 	orr.w	r0, r1, r0, lsl #24
     1ea:	1882      	adds	r2, r0, r2
     1ec:	1ad0      	subs	r0, r2, r3
           (ptRingBuf->ulSize - (ulRead - ulWrite)));
}
     1ee:	4770      	bx	lr

000001f0 <RingBufFree>:
//! \return Returns the number of bytes available in the ring buffer.
//
//*****************************************************************************
unsigned long
RingBufFree(tRingBufObject *ptRingBuf)
{
     1f0:	b510      	push	{r4, lr}
    ASSERT(ptRingBuf != NULL);

    //
    // Return the number of bytes available in the ring buffer.
    //
    return((ptRingBuf->ulSize - 1) - RingBufUsed(ptRingBuf));
     1f2:	7803      	ldrb	r3, [r0, #0]
     1f4:	7844      	ldrb	r4, [r0, #1]
     1f6:	ea43 2404 	orr.w	r4, r3, r4, lsl #8
     1fa:	7883      	ldrb	r3, [r0, #2]
     1fc:	ea44 4403 	orr.w	r4, r4, r3, lsl #16
     200:	78c3      	ldrb	r3, [r0, #3]
     202:	ea44 6403 	orr.w	r4, r4, r3, lsl #24
     206:	f7ff ffcc 	bl	1a2 <RingBufUsed>
     20a:	1e63      	subs	r3, r4, #1
}
     20c:	1a18      	subs	r0, r3, r0
     20e:	bd10      	pop	{r4, pc}

00000210 <RingBufContigUsed>:
    ASSERT(ptRingBuf != NULL);

    //
    // Copy the Read/Write indices for calculation.
    //
    ulWrite = ptRingBuf->ulWriteIndex;
     210:	7903      	ldrb	r3, [r0, #4]
     212:	7942      	ldrb	r2, [r0, #5]
     214:	ea43 2202 	orr.w	r2, r3, r2, lsl #8
     218:	7983      	ldrb	r3, [r0, #6]
     21a:	ea42 4203 	orr.w	r2, r2, r3, lsl #16
     21e:	79c3      	ldrb	r3, [r0, #7]
     220:	ea42 6203 	orr.w	r2, r2, r3, lsl #24
    ulRead = ptRingBuf->ulReadIndex;
     224:	7a03      	ldrb	r3, [r0, #8]
     226:	7a41      	ldrb	r1, [r0, #9]
     228:	ea43 2301 	orr.w	r3, r3, r1, lsl #8
     22c:	7a81      	ldrb	r1, [r0, #10]
     22e:	ea43 4301 	orr.w	r3, r3, r1, lsl #16
     232:	7ac1      	ldrb	r1, [r0, #11]
     234:	ea43 6301 	orr.w	r3, r3, r1, lsl #24

    //
    // Return the number of contiguous bytes available.
    //
    return((ulWrite >= ulRead) ? (ulWrite - ulRead) :
     238:	429a      	cmp	r2, r3
     23a:	d301      	bcc.n	240 <RingBufContigUsed+0x30>
     23c:	1ad0      	subs	r0, r2, r3
     23e:	4770      	bx	lr
     240:	7841      	ldrb	r1, [r0, #1]
     242:	7802      	ldrb	r2, [r0, #0]
     244:	ea42 2201 	orr.w	r2, r2, r1, lsl #8
     248:	7881      	ldrb	r1, [r0, #2]
     24a:	78c0      	ldrb	r0, [r0, #3]
     24c:	ea42 4201 	orr.w	r2, r2, r1, lsl #16
     250:	ea42 6000 	orr.w	r0, r2, r0, lsl #24
     254:	1ac0      	subs	r0, r0, r3
           (ptRingBuf->ulSize - ulRead));
}
     256:	4770      	bx	lr

00000258 <RingBufContigFree>:
    ASSERT(ptRingBuf != NULL);

    //
    // Copy the Read/Write indices for calculation.
    //
    ulWrite = ptRingBuf->ulWriteIndex;
     258:	7903      	ldrb	r3, [r0, #4]
     25a:	7942      	ldrb	r2, [r0, #5]
     25c:	ea43 2202 	orr.w	r2, r3, r2, lsl #8
     260:	7983      	ldrb	r3, [r0, #6]
     262:	ea42 4203 	orr.w	r2, r2, r3, lsl #16
     266:	79c3      	ldrb	r3, [r0, #7]
     268:	ea42 6203 	orr.w	r2, r2, r3, lsl #24
    ulRead = ptRingBuf->ulReadIndex;
     26c:	7a03      	ldrb	r3, [r0, #8]
     26e:	7a41      	ldrb	r1, [r0, #9]
     270:	ea43 2301 	orr.w	r3, r3, r1, lsl #8
     274:	7a81      	ldrb	r1, [r0, #10]
     276:	ea43 4301 	orr.w	r3, r3, r1, lsl #16
     27a:	7ac1      	ldrb	r1, [r0, #11]
     27c:	ea43 6301 	orr.w	r3, r3, r1, lsl #24

    //
    // Return the number of contiguous bytes available.
    //
    if(ulRead > ulWrite)
     280:	4293      	cmp	r3, r2
     282:	d902      	bls.n	28a <RingBufContigFree+0x32>
        //
        // The read pointer is above the write pointer so the amount of free
        // space is the difference between the two indices minus 1 to account
        // for the buffer full condition (write index one behind read index).
        //
        return((ulRead - ulWrite) - 1);
     284:	3b01      	subs	r3, #1
     286:	1a98      	subs	r0, r3, r2
     288:	4770      	bx	lr
        // space is the size of the buffer minus the write index. We need to
        // add a special-case adjustment if the read index is 0 since we need
        // to leave 1 byte empty to ensure we can tell the difference between
        // the buffer being full and empty.
        //
        return(ptRingBuf->ulSize - ulWrite - ((ulRead == 0) ? 1 : 0));
     28a:	f890 c001 	ldrb.w	ip, [r0, #1]
     28e:	7801      	ldrb	r1, [r0, #0]
     290:	ea41 210c 	orr.w	r1, r1, ip, lsl #8
     294:	f890 c002 	ldrb.w	ip, [r0, #2]
     298:	78c0      	ldrb	r0, [r0, #3]
     29a:	ea41 410c 	orr.w	r1, r1, ip, lsl #16
     29e:	ea41 6000 	orr.w	r0, r1, r0, lsl #24
     2a2:	1a82      	subs	r2, r0, r2
     2a4:	2b00      	cmp	r3, #0
     2a6:	bf14      	ite	ne
     2a8:	4610      	movne	r0, r2
     2aa:	1e50      	subeq	r0, r2, #1
    }
}
     2ac:	4770      	bx	lr

000002ae <RingBufSize>:
//! \return Returns the size in bytes of the ring buffer.
//
//*****************************************************************************
unsigned long
RingBufSize(tRingBufObject *ptRingBuf)
{
     2ae:	7842      	ldrb	r2, [r0, #1]
     2b0:	7803      	ldrb	r3, [r0, #0]
     2b2:	ea43 2302 	orr.w	r3, r3, r2, lsl #8
     2b6:	7882      	ldrb	r2, [r0, #2]
     2b8:	78c0      	ldrb	r0, [r0, #3]
     2ba:	ea43 4302 	orr.w	r3, r3, r2, lsl #16

    //
    // Return the number of bytes available in the ring buffer.
    //
    return(ptRingBuf->ulSize);
}
     2be:	ea43 6000 	orr.w	r0, r3, r0, lsl #24
     2c2:	4770      	bx	lr

000002c4 <RingBufInit>:
    ASSERT(ulSize != 0);

    //
    // Initialize the ring buffer object.
    //
    ptRingBuf->ulSize = ulSize;
     2c4:	ea4f 2c12 	mov.w	ip, r2, lsr #8
     2c8:	7002      	strb	r2, [r0, #0]
     2ca:	f880 c001 	strb.w	ip, [r0, #1]
     2ce:	ea4f 4c12 	mov.w	ip, r2, lsr #16
     2d2:	0e12      	lsrs	r2, r2, #24
     2d4:	70c2      	strb	r2, [r0, #3]
    ptRingBuf->pucBuf = pucBuf;
     2d6:	0a0a      	lsrs	r2, r1, #8
    ASSERT(ulSize != 0);

    //
    // Initialize the ring buffer object.
    //
    ptRingBuf->ulSize = ulSize;
     2d8:	2300      	movs	r3, #0
    ptRingBuf->pucBuf = pucBuf;
     2da:	7342      	strb	r2, [r0, #13]
     2dc:	0c0a      	lsrs	r2, r1, #16
     2de:	7382      	strb	r2, [r0, #14]
    ptRingBuf->ulWriteIndex = ptRingBuf->ulReadIndex = 0;
     2e0:	7a02      	ldrb	r2, [r0, #8]
     2e2:	7203      	strb	r3, [r0, #8]
     2e4:	7a42      	ldrb	r2, [r0, #9]
     2e6:	7243      	strb	r3, [r0, #9]
     2e8:	7a82      	ldrb	r2, [r0, #10]
     2ea:	7283      	strb	r3, [r0, #10]
     2ec:	7ac2      	ldrb	r2, [r0, #11]
     2ee:	72c3      	strb	r3, [r0, #11]
     2f0:	7a03      	ldrb	r3, [r0, #8]
     2f2:	7a42      	ldrb	r2, [r0, #9]

    //
    // Initialize the ring buffer object.
    //
    ptRingBuf->ulSize = ulSize;
    ptRingBuf->pucBuf = pucBuf;
     2f4:	7301      	strb	r1, [r0, #12]
    ptRingBuf->ulWriteIndex = ptRingBuf->ulReadIndex = 0;
     2f6:	ea43 2302 	orr.w	r3, r3, r2, lsl #8
     2fa:	7a82      	ldrb	r2, [r0, #10]

    //
    // Initialize the ring buffer object.
    //
    ptRingBuf->ulSize = ulSize;
    ptRingBuf->pucBuf = pucBuf;
     2fc:	0e09      	lsrs	r1, r1, #24
    ptRingBuf->ulWriteIndex = ptRingBuf->ulReadIndex = 0;
     2fe:	ea43 4302 	orr.w	r3, r3, r2, lsl #16
     302:	7ac2      	ldrb	r2, [r0, #11]

    //
    // Initialize the ring buffer object.
    //
    ptRingBuf->ulSize = ulSize;
    ptRingBuf->pucBuf = pucBuf;
     304:	73c1      	strb	r1, [r0, #15]
    ptRingBuf->ulWriteIndex = ptRingBuf->ulReadIndex = 0;
     306:	ea43 6302 	orr.w	r3, r3, r2, lsl #24
     30a:	f003 02ff 	and.w	r2, r3, #255	; 0xff
     30e:	7901      	ldrb	r1, [r0, #4]
     310:	7102      	strb	r2, [r0, #4]
     312:	0a1a      	lsrs	r2, r3, #8
     314:	f002 02ff 	and.w	r2, r2, #255	; 0xff
     318:	7941      	ldrb	r1, [r0, #5]
     31a:	7142      	strb	r2, [r0, #5]
     31c:	0c1a      	lsrs	r2, r3, #16
     31e:	f002 02ff 	and.w	r2, r2, #255	; 0xff
     322:	7981      	ldrb	r1, [r0, #6]
     324:	0e1b      	lsrs	r3, r3, #24
     326:	7182      	strb	r2, [r0, #6]
     328:	79c2      	ldrb	r2, [r0, #7]
    ASSERT(ulSize != 0);

    //
    // Initialize the ring buffer object.
    //
    ptRingBuf->ulSize = ulSize;
     32a:	f880 c002 	strb.w	ip, [r0, #2]
    ptRingBuf->pucBuf = pucBuf;
    ptRingBuf->ulWriteIndex = ptRingBuf->ulReadIndex = 0;
     32e:	71c3      	strb	r3, [r0, #7]
}
     330:	4770      	bx	lr

00000332 <UpdateIndexAtomic>:
//
//*****************************************************************************
static void
UpdateIndexAtomic(volatile unsigned long *pulVal, unsigned long ulDelta,
                  unsigned long ulSize)
{
     332:	b570      	push	{r4, r5, r6, lr}
     334:	4604      	mov	r4, r0
     336:	460d      	mov	r5, r1
     338:	4616      	mov	r6, r2
    tBoolean bIntsOff;

    //
    // Turn interrupts off temporarily.
    //
    bIntsOff = IntMasterDisable();
     33a:	f007 f819 	bl	7370 <IntMasterDisable>

    //
    // Update the variable value.
    //
    *pulVal += ulDelta;
     33e:	6823      	ldr	r3, [r4, #0]
     340:	18ed      	adds	r5, r5, r3
     342:	6025      	str	r5, [r4, #0]
    //
    // Correct for wrap. We use a loop here since we don't want to use a
    // modulus operation with interrupts off but we don't want to fail in
    // case ulDelta is greater than ulSize (which is extremely unlikely but...)
    //
    while(*pulVal >= ulSize)
     344:	e002      	b.n	34c <UpdateIndexAtomic+0x1a>
    {
        *pulVal -= ulSize;
     346:	6823      	ldr	r3, [r4, #0]
     348:	1b9b      	subs	r3, r3, r6
     34a:	6023      	str	r3, [r4, #0]
    //
    // Correct for wrap. We use a loop here since we don't want to use a
    // modulus operation with interrupts off but we don't want to fail in
    // case ulDelta is greater than ulSize (which is extremely unlikely but...)
    //
    while(*pulVal >= ulSize)
     34c:	6823      	ldr	r3, [r4, #0]
     34e:	42b3      	cmp	r3, r6
     350:	d2f9      	bcs.n	346 <UpdateIndexAtomic+0x14>
    }

    //
    // Restore the interrupt state
    //
    if(!bIntsOff)
     352:	b918      	cbnz	r0, 35c <UpdateIndexAtomic+0x2a>
    {
        IntMasterEnable();
    }
}
     354:	e8bd 4070 	ldmia.w	sp!, {r4, r5, r6, lr}
    //
    // Restore the interrupt state
    //
    if(!bIntsOff)
    {
        IntMasterEnable();
     358:	f007 b80f 	b.w	737a <IntMasterEnable>
     35c:	bd70      	pop	{r4, r5, r6, pc}

0000035e <RingBufWriteOne>:
    ASSERT(RingBufFree(ptRingBuf) != 0);

    //
    // Write the data byte.
    //
    ptRingBuf->pucBuf[ptRingBuf->ulWriteIndex] = ucData;
     35e:	7903      	ldrb	r3, [r0, #4]
     360:	7942      	ldrb	r2, [r0, #5]
     362:	f890 c00d 	ldrb.w	ip, [r0, #13]
     366:	ea43 2302 	orr.w	r3, r3, r2, lsl #8
     36a:	7982      	ldrb	r2, [r0, #6]
     36c:	ea43 4302 	orr.w	r3, r3, r2, lsl #16
     370:	79c2      	ldrb	r2, [r0, #7]
     372:	ea43 6302 	orr.w	r3, r3, r2, lsl #24
     376:	7b02      	ldrb	r2, [r0, #12]
     378:	ea42 220c 	orr.w	r2, r2, ip, lsl #8
     37c:	f890 c00e 	ldrb.w	ip, [r0, #14]
     380:	ea42 420c 	orr.w	r2, r2, ip, lsl #16
     384:	f890 c00f 	ldrb.w	ip, [r0, #15]
     388:	ea42 620c 	orr.w	r2, r2, ip, lsl #24
     38c:	54d1      	strb	r1, [r2, r3]

    //
    // Increment the write index.
    //
    UpdateIndexAtomic(&ptRingBuf->ulWriteIndex, 1, ptRingBuf->ulSize);
     38e:	7842      	ldrb	r2, [r0, #1]
     390:	7803      	ldrb	r3, [r0, #0]
     392:	2101      	movs	r1, #1
     394:	ea43 2302 	orr.w	r3, r3, r2, lsl #8
     398:	7882      	ldrb	r2, [r0, #2]
     39a:	ea43 4302 	orr.w	r3, r3, r2, lsl #16
     39e:	78c2      	ldrb	r2, [r0, #3]
     3a0:	3004      	adds	r0, #4
     3a2:	ea43 6202 	orr.w	r2, r3, r2, lsl #24
     3a6:	e7c4      	b.n	332 <UpdateIndexAtomic>

000003a8 <RingBufWrite>:
//
//*****************************************************************************
void
RingBufWrite(tRingBufObject *ptRingBuf, unsigned char *pucData,
                unsigned long ulLength)
{
     3a8:	b5f8      	push	{r3, r4, r5, r6, r7, lr}
     3aa:	4605      	mov	r5, r0
     3ac:	460c      	mov	r4, r1
     3ae:	4617      	mov	r7, r2
     3b0:	2600      	movs	r6, #0
    ASSERT(ulLength <= RingBufFree(ptRingBuf));

    //
    // Write the data into the ring buffer.
    //
    for(ulTemp = 0; ulTemp < ulLength; ulTemp++)
     3b2:	e004      	b.n	3be <RingBufWrite+0x16>
    {
        RingBufWriteOne(ptRingBuf, pucData[ulTemp]);
     3b4:	5da1      	ldrb	r1, [r4, r6]
     3b6:	4628      	mov	r0, r5
     3b8:	f7ff ffd1 	bl	35e <RingBufWriteOne>
    ASSERT(ulLength <= RingBufFree(ptRingBuf));

    //
    // Write the data into the ring buffer.
    //
    for(ulTemp = 0; ulTemp < ulLength; ulTemp++)
     3bc:	3601      	adds	r6, #1
     3be:	42be      	cmp	r6, r7
     3c0:	d3f8      	bcc.n	3b4 <RingBufWrite+0xc>
    {
        RingBufWriteOne(ptRingBuf, pucData[ulTemp]);
    }
}
     3c2:	bdf8      	pop	{r3, r4, r5, r6, r7, pc}

000003c4 <RingBufAdvanceRead>:
//
//*****************************************************************************
void
RingBufAdvanceRead(tRingBufObject *ptRingBuf,
                      unsigned long ulNumBytes)
{
     3c4:	b570      	push	{r4, r5, r6, lr}
     3c6:	4604      	mov	r4, r0
     3c8:	460d      	mov	r5, r1

    //
    // Make sure that we are not being asked to remove more data than is
    // there to be removed.
    //
    ulCount = RingBufUsed(ptRingBuf);
     3ca:	f7ff feea 	bl	1a2 <RingBufUsed>
    ulCount =  (ulCount < ulNumBytes) ? ulCount : ulNumBytes;

    //
    // Advance the buffer read index by the required number of bytes.
    //
    UpdateIndexAtomic(&ptRingBuf->ulReadIndex, ulCount,
     3ce:	7862      	ldrb	r2, [r4, #1]
     3d0:	7823      	ldrb	r3, [r4, #0]
     3d2:	42a8      	cmp	r0, r5
     3d4:	bf34      	ite	cc
     3d6:	4601      	movcc	r1, r0
     3d8:	4629      	movcs	r1, r5
     3da:	ea43 2302 	orr.w	r3, r3, r2, lsl #8
     3de:	78a2      	ldrb	r2, [r4, #2]
     3e0:	f104 0008 	add.w	r0, r4, #8
     3e4:	ea43 4302 	orr.w	r3, r3, r2, lsl #16
     3e8:	78e2      	ldrb	r2, [r4, #3]
     3ea:	ea43 6202 	orr.w	r2, r3, r2, lsl #24
                      ptRingBuf->ulSize);
}
     3ee:	e8bd 4070 	ldmia.w	sp!, {r4, r5, r6, lr}
    ulCount =  (ulCount < ulNumBytes) ? ulCount : ulNumBytes;

    //
    // Advance the buffer read index by the required number of bytes.
    //
    UpdateIndexAtomic(&ptRingBuf->ulReadIndex, ulCount,
     3f2:	e79e      	b.n	332 <UpdateIndexAtomic>

000003f4 <RingBufReadOne>:
//! \return The byte read from the ring buffer.
//
//*****************************************************************************
unsigned char
RingBufReadOne(tRingBufObject *ptRingBuf)
{
     3f4:	b510      	push	{r4, lr}
    ASSERT(RingBufUsed(ptRingBuf) != 0);

    //
    // Write the data byte.
    //
    ucTemp = ptRingBuf->pucBuf[ptRingBuf->ulReadIndex];
     3f6:	7a03      	ldrb	r3, [r0, #8]
     3f8:	7a42      	ldrb	r2, [r0, #9]
     3fa:	7b41      	ldrb	r1, [r0, #13]
     3fc:	ea43 2302 	orr.w	r3, r3, r2, lsl #8
     400:	7a82      	ldrb	r2, [r0, #10]
     402:	ea43 4302 	orr.w	r3, r3, r2, lsl #16
     406:	7ac2      	ldrb	r2, [r0, #11]
     408:	ea43 6302 	orr.w	r3, r3, r2, lsl #24
     40c:	7b02      	ldrb	r2, [r0, #12]
     40e:	ea42 2201 	orr.w	r2, r2, r1, lsl #8
     412:	7b81      	ldrb	r1, [r0, #14]
     414:	ea42 4201 	orr.w	r2, r2, r1, lsl #16
     418:	7bc1      	ldrb	r1, [r0, #15]
     41a:	ea42 6201 	orr.w	r2, r2, r1, lsl #24
     41e:	5cd4      	ldrb	r4, [r2, r3]

    //
    // Increment the read index.
    //
    UpdateIndexAtomic(&ptRingBuf->ulReadIndex, 1, ptRingBuf->ulSize);
     420:	7842      	ldrb	r2, [r0, #1]
     422:	7803      	ldrb	r3, [r0, #0]
     424:	2101      	movs	r1, #1
     426:	ea43 2302 	orr.w	r3, r3, r2, lsl #8
     42a:	7882      	ldrb	r2, [r0, #2]
     42c:	ea43 4302 	orr.w	r3, r3, r2, lsl #16
     430:	78c2      	ldrb	r2, [r0, #3]
     432:	3008      	adds	r0, #8
     434:	ea43 6202 	orr.w	r2, r3, r2, lsl #24
     438:	f7ff ff7b 	bl	332 <UpdateIndexAtomic>

    //
    // Return the character read.
    //
    return(ucTemp);
}
     43c:	4620      	mov	r0, r4
     43e:	bd10      	pop	{r4, pc}

00000440 <RingBufRead>:
//
//*****************************************************************************
void
RingBufRead(tRingBufObject *ptRingBuf, unsigned char *pucData,
               unsigned long ulLength)
{
     440:	b5f8      	push	{r3, r4, r5, r6, r7, lr}
     442:	4604      	mov	r4, r0
     444:	460d      	mov	r5, r1
     446:	4617      	mov	r7, r2
     448:	2600      	movs	r6, #0
    ASSERT(ulLength <= RingBufUsed(ptRingBuf));

    //
    // Read the data from the ring buffer.
    //
    for(ulTemp = 0; ulTemp < ulLength; ulTemp++)
     44a:	e004      	b.n	456 <RingBufRead+0x16>
    {
        pucData[ulTemp] = RingBufReadOne(ptRingBuf);
     44c:	4620      	mov	r0, r4
     44e:	f7ff ffd1 	bl	3f4 <RingBufReadOne>
     452:	55a8      	strb	r0, [r5, r6]
    ASSERT(ulLength <= RingBufUsed(ptRingBuf));

    //
    // Read the data from the ring buffer.
    //
    for(ulTemp = 0; ulTemp < ulLength; ulTemp++)
     454:	3601      	adds	r6, #1
     456:	42be      	cmp	r6, r7
     458:	d3f8      	bcc.n	44c <RingBufRead+0xc>
    {
        pucData[ulTemp] = RingBufReadOne(ptRingBuf);
    }
}
     45a:	bdf8      	pop	{r3, r4, r5, r6, r7, pc}

0000045c <RingBufAdvanceWrite>:
//
//*****************************************************************************
void
RingBufAdvanceWrite(tRingBufObject *ptRingBuf,
                       unsigned long ulNumBytes)
{
     45c:	b570      	push	{r4, r5, r6, lr}
     45e:	4604      	mov	r4, r0
     460:	460d      	mov	r5, r1
    ASSERT(ulNumBytes <= ptRingBuf->ulSize);

    //
    // Determine how much free space we currently think the buffer has.
    //
    ulCount = RingBufFree(ptRingBuf);
     462:	f7ff fec5 	bl	1f0 <RingBufFree>
     466:	4606      	mov	r6, r0
    // Advance the buffer write index by the required number of bytes and
    // check that we have not run past the read index. Note that we must do
    // this within a critical section (interrupts disabled) to prevent
    // race conditions that could corrupt one or other of the indices.
    //
    bIntsOff = IntMasterDisable();
     468:	f006 ff82 	bl	7370 <IntMasterDisable>

    //
    // Update the write pointer.
    //
    ptRingBuf->ulWriteIndex += ulNumBytes;
     46c:	7923      	ldrb	r3, [r4, #4]
     46e:	7962      	ldrb	r2, [r4, #5]
     470:	ea43 2302 	orr.w	r3, r3, r2, lsl #8
     474:	79a2      	ldrb	r2, [r4, #6]
     476:	ea43 4302 	orr.w	r3, r3, r2, lsl #16
     47a:	79e2      	ldrb	r2, [r4, #7]
     47c:	7921      	ldrb	r1, [r4, #4]
     47e:	ea43 6302 	orr.w	r3, r3, r2, lsl #24
     482:	18eb      	adds	r3, r5, r3
     484:	f003 02ff 	and.w	r2, r3, #255	; 0xff
     488:	7122      	strb	r2, [r4, #4]
     48a:	0a1a      	lsrs	r2, r3, #8
     48c:	f002 02ff 	and.w	r2, r2, #255	; 0xff
     490:	7961      	ldrb	r1, [r4, #5]
     492:	7162      	strb	r2, [r4, #5]
     494:	0c1a      	lsrs	r2, r3, #16
     496:	f002 02ff 	and.w	r2, r2, #255	; 0xff
     49a:	79a1      	ldrb	r1, [r4, #6]
     49c:	0e1b      	lsrs	r3, r3, #24
     49e:	71a2      	strb	r2, [r4, #6]
     4a0:	79e2      	ldrb	r2, [r4, #7]
     4a2:	71e3      	strb	r3, [r4, #7]

    //
    // Check and correct for wrap.
    //
    if(ptRingBuf->ulWriteIndex >= ptRingBuf->ulSize)
     4a4:	7923      	ldrb	r3, [r4, #4]
     4a6:	7961      	ldrb	r1, [r4, #5]
     4a8:	7862      	ldrb	r2, [r4, #1]
     4aa:	ea43 2101 	orr.w	r1, r3, r1, lsl #8
     4ae:	79a3      	ldrb	r3, [r4, #6]
     4b0:	ea41 4103 	orr.w	r1, r1, r3, lsl #16
     4b4:	79e3      	ldrb	r3, [r4, #7]
     4b6:	ea41 6103 	orr.w	r1, r1, r3, lsl #24
     4ba:	7823      	ldrb	r3, [r4, #0]
     4bc:	ea43 2202 	orr.w	r2, r3, r2, lsl #8
     4c0:	78a3      	ldrb	r3, [r4, #2]
     4c2:	ea42 4203 	orr.w	r2, r2, r3, lsl #16
     4c6:	78e3      	ldrb	r3, [r4, #3]
     4c8:	ea42 6203 	orr.w	r2, r2, r3, lsl #24
     4cc:	4291      	cmp	r1, r2
     4ce:	d31b      	bcc.n	508 <RingBufAdvanceWrite+0xac>
    {
        ptRingBuf->ulWriteIndex -= ptRingBuf->ulSize;
     4d0:	7923      	ldrb	r3, [r4, #4]
     4d2:	7961      	ldrb	r1, [r4, #5]
     4d4:	ea43 2301 	orr.w	r3, r3, r1, lsl #8
     4d8:	79a1      	ldrb	r1, [r4, #6]
     4da:	ea43 4301 	orr.w	r3, r3, r1, lsl #16
     4de:	79e1      	ldrb	r1, [r4, #7]
     4e0:	ea43 6301 	orr.w	r3, r3, r1, lsl #24
     4e4:	1a9b      	subs	r3, r3, r2
     4e6:	f003 02ff 	and.w	r2, r3, #255	; 0xff
     4ea:	7921      	ldrb	r1, [r4, #4]
     4ec:	7122      	strb	r2, [r4, #4]
     4ee:	0a1a      	lsrs	r2, r3, #8
     4f0:	f002 02ff 	and.w	r2, r2, #255	; 0xff
     4f4:	7961      	ldrb	r1, [r4, #5]
     4f6:	7162      	strb	r2, [r4, #5]
     4f8:	0c1a      	lsrs	r2, r3, #16
     4fa:	f002 02ff 	and.w	r2, r2, #255	; 0xff
     4fe:	79a1      	ldrb	r1, [r4, #6]
     500:	0e1b      	lsrs	r3, r3, #24
     502:	71a2      	strb	r2, [r4, #6]
     504:	79e2      	ldrb	r2, [r4, #7]
     506:	71e3      	strb	r3, [r4, #7]
    }

    //
    // Did the client add more bytes than the buffer had free space for?
    //
    if(ulCount < ulNumBytes)
     508:	42ae      	cmp	r6, r5
     50a:	d24d      	bcs.n	5a8 <RingBufAdvanceWrite+0x14c>
    {
        //
        // Yes - we need to advance the read pointer to ahead of the write
        // pointer to discard some of the oldest data.
        //
        ptRingBuf->ulReadIndex = ptRingBuf->ulWriteIndex + 1;
     50c:	7923      	ldrb	r3, [r4, #4]
     50e:	7962      	ldrb	r2, [r4, #5]
     510:	ea43 2302 	orr.w	r3, r3, r2, lsl #8
     514:	79a2      	ldrb	r2, [r4, #6]
     516:	ea43 4302 	orr.w	r3, r3, r2, lsl #16
     51a:	79e2      	ldrb	r2, [r4, #7]
     51c:	7a21      	ldrb	r1, [r4, #8]
     51e:	ea43 6302 	orr.w	r3, r3, r2, lsl #24
     522:	3301      	adds	r3, #1
     524:	f003 02ff 	and.w	r2, r3, #255	; 0xff
     528:	7222      	strb	r2, [r4, #8]
     52a:	0a1a      	lsrs	r2, r3, #8
     52c:	f002 02ff 	and.w	r2, r2, #255	; 0xff
     530:	7a61      	ldrb	r1, [r4, #9]
     532:	7262      	strb	r2, [r4, #9]
     534:	0c1a      	lsrs	r2, r3, #16
     536:	f002 02ff 	and.w	r2, r2, #255	; 0xff
     53a:	7aa1      	ldrb	r1, [r4, #10]
     53c:	0e1b      	lsrs	r3, r3, #24
     53e:	72a2      	strb	r2, [r4, #10]
     540:	7ae2      	ldrb	r2, [r4, #11]
     542:	72e3      	strb	r3, [r4, #11]

        //
        // Correct for buffer wrap if necessary.
        //
        if(ptRingBuf->ulReadIndex >= ptRingBuf->ulSize)
     544:	7a23      	ldrb	r3, [r4, #8]
     546:	7a61      	ldrb	r1, [r4, #9]
     548:	7862      	ldrb	r2, [r4, #1]
     54a:	ea43 2101 	orr.w	r1, r3, r1, lsl #8
     54e:	7aa3      	ldrb	r3, [r4, #10]
     550:	ea41 4103 	orr.w	r1, r1, r3, lsl #16
     554:	7ae3      	ldrb	r3, [r4, #11]
     556:	ea41 6103 	orr.w	r1, r1, r3, lsl #24
     55a:	7823      	ldrb	r3, [r4, #0]
     55c:	ea43 2202 	orr.w	r2, r3, r2, lsl #8
     560:	78a3      	ldrb	r3, [r4, #2]
     562:	ea42 4203 	orr.w	r2, r2, r3, lsl #16
     566:	78e3      	ldrb	r3, [r4, #3]
     568:	ea42 6203 	orr.w	r2, r2, r3, lsl #24
     56c:	4291      	cmp	r1, r2
     56e:	d31b      	bcc.n	5a8 <RingBufAdvanceWrite+0x14c>
        {
            ptRingBuf->ulReadIndex -= ptRingBuf->ulSize;
     570:	7a23      	ldrb	r3, [r4, #8]
     572:	7a61      	ldrb	r1, [r4, #9]
     574:	ea43 2301 	orr.w	r3, r3, r1, lsl #8
     578:	7aa1      	ldrb	r1, [r4, #10]
     57a:	ea43 4301 	orr.w	r3, r3, r1, lsl #16
     57e:	7ae1      	ldrb	r1, [r4, #11]
     580:	ea43 6301 	orr.w	r3, r3, r1, lsl #24
     584:	1a9b      	subs	r3, r3, r2
     586:	f003 02ff 	and.w	r2, r3, #255	; 0xff
     58a:	7a21      	ldrb	r1, [r4, #8]
     58c:	7222      	strb	r2, [r4, #8]
     58e:	0a1a      	lsrs	r2, r3, #8
     590:	f002 02ff 	and.w	r2, r2, #255	; 0xff
     594:	7a61      	ldrb	r1, [r4, #9]
     596:	7262      	strb	r2, [r4, #9]
     598:	0c1a      	lsrs	r2, r3, #16
     59a:	f002 02ff 	and.w	r2, r2, #255	; 0xff
     59e:	7aa1      	ldrb	r1, [r4, #10]
     5a0:	0e1b      	lsrs	r3, r3, #24
     5a2:	72a2      	strb	r2, [r4, #10]
     5a4:	7ae2      	ldrb	r2, [r4, #11]
     5a6:	72e3      	strb	r3, [r4, #11]
    }

    //
    // Restore interrupts if we turned them off earlier.
    //
    if(!bIntsOff)
     5a8:	b918      	cbnz	r0, 5b2 <RingBufAdvanceWrite+0x156>
    {
        IntMasterEnable();
    }
}
     5aa:	e8bd 4070 	ldmia.w	sp!, {r4, r5, r6, lr}
    //
    // Restore interrupts if we turned them off earlier.
    //
    if(!bIntsOff)
    {
        IntMasterEnable();
     5ae:	f006 bee4 	b.w	737a <IntMasterEnable>
     5b2:	bd70      	pop	{r4, r5, r6, pc}

000005b4 <RingBufFlush>:
//! \return None.
//
//*****************************************************************************
void
RingBufFlush(tRingBufObject *ptRingBuf)
{
     5b4:	b510      	push	{r4, lr}
     5b6:	4604      	mov	r4, r0

    //
    // Set the Read/Write pointers to be the same. Do this with interrupts
    // disabled to prevent the possibility of corruption of the read index.
    //
    bIntsOff = IntMasterDisable();
     5b8:	f006 feda 	bl	7370 <IntMasterDisable>
    ptRingBuf->ulReadIndex = ptRingBuf->ulWriteIndex;
     5bc:	7923      	ldrb	r3, [r4, #4]
     5be:	7962      	ldrb	r2, [r4, #5]
     5c0:	ea43 2302 	orr.w	r3, r3, r2, lsl #8
     5c4:	79a2      	ldrb	r2, [r4, #6]
     5c6:	ea43 4302 	orr.w	r3, r3, r2, lsl #16
     5ca:	79e2      	ldrb	r2, [r4, #7]
     5cc:	7a21      	ldrb	r1, [r4, #8]
     5ce:	ea43 6302 	orr.w	r3, r3, r2, lsl #24
     5d2:	f003 02ff 	and.w	r2, r3, #255	; 0xff
     5d6:	7222      	strb	r2, [r4, #8]
     5d8:	0a1a      	lsrs	r2, r3, #8
     5da:	f002 02ff 	and.w	r2, r2, #255	; 0xff
     5de:	7a61      	ldrb	r1, [r4, #9]
     5e0:	7262      	strb	r2, [r4, #9]
     5e2:	0c1a      	lsrs	r2, r3, #16
     5e4:	f002 02ff 	and.w	r2, r2, #255	; 0xff
     5e8:	7aa1      	ldrb	r1, [r4, #10]
     5ea:	0e1b      	lsrs	r3, r3, #24
     5ec:	72a2      	strb	r2, [r4, #10]
     5ee:	7ae2      	ldrb	r2, [r4, #11]
     5f0:	72e3      	strb	r3, [r4, #11]
    if(!bIntsOff)
     5f2:	b918      	cbnz	r0, 5fc <RingBufFlush+0x48>
    {
        IntMasterEnable();
    }
}
     5f4:	e8bd 4010 	ldmia.w	sp!, {r4, lr}
    //
    bIntsOff = IntMasterDisable();
    ptRingBuf->ulReadIndex = ptRingBuf->ulWriteIndex;
    if(!bIntsOff)
    {
        IntMasterEnable();
     5f8:	f006 bebf 	b.w	737a <IntMasterEnable>
     5fc:	bd10      	pop	{r4, pc}
	...

00000600 <UARTwrite>:
//!
//! \return Returns the count of characters written.
//
//*****************************************************************************
int UARTwrite(const char *pcBuf, unsigned long ulLen)
{
     600:	b570      	push	{r4, r5, r6, lr}
     602:	4606      	mov	r6, r0
     604:	460d      	mov	r5, r1
     606:	2400      	movs	r4, #0
	unsigned int uIdx;

	//
	// Send the characters
	//
	for (uIdx = 0; uIdx < ulLen; uIdx++)
     608:	e00b      	b.n	622 <UARTwrite+0x22>
		//
		// If the character to the UART is \n, then add a \r before it so that
		// \n is translated to \n\r in the output.
		//

		if (pcBuf[uIdx] == '\n')
     60a:	5733      	ldrsb	r3, [r6, r4]
     60c:	2b0a      	cmp	r3, #10
     60e:	d103      	bne.n	618 <UARTwrite+0x18>
		{
			UARTCharPut(UART_DEBUG_PORT, '\r');
     610:	4806      	ldr	r0, [pc, #24]	; (62c <UARTwrite+0x2c>)
     612:	210d      	movs	r1, #13
     614:	f007 fde7 	bl	81e6 <UARTCharPut>
		}

		//
		// Send the character to the UART output.
		//
		UARTCharPut(UART_DEBUG_PORT, pcBuf[uIdx]);
     618:	5d31      	ldrb	r1, [r6, r4]
     61a:	4804      	ldr	r0, [pc, #16]	; (62c <UARTwrite+0x2c>)
     61c:	f007 fde3 	bl	81e6 <UARTCharPut>
	unsigned int uIdx;

	//
	// Send the characters
	//
	for (uIdx = 0; uIdx < ulLen; uIdx++)
     620:	3401      	adds	r4, #1
     622:	42ac      	cmp	r4, r5
     624:	d3f1      	bcc.n	60a <UARTwrite+0xa>

	//
	// Return the number of characters written.
	//
	return (uIdx);
}
     626:	4628      	mov	r0, r5
     628:	bd70      	pop	{r4, r5, r6, pc}
     62a:	bf00      	nop
     62c:	4000d000 	.word	0x4000d000

00000630 <Print>:
//!
//! \return None.
//
//*****************************************************************************
void Print(const char *pcString, ...)
{
     630:	b40f      	push	{r0, r1, r2, r3}
     632:	b5f0      	push	{r4, r5, r6, r7, lr}
     634:	b087      	sub	sp, #28
     636:	ab0c      	add	r3, sp, #48	; 0x30
     638:	f853 4b04 	ldr.w	r4, [r3], #4
	//
	// Start the varargs processing.
	//
	va_start(vaArgP, pcString);

	GPIOPinWrite(GPIO_PORTG_BASE, GPIO_PIN_3, GPIO_PIN_3);
     63c:	2108      	movs	r1, #8
     63e:	4875      	ldr	r0, [pc, #468]	; (814 <Print+0x1e4>)
     640:	460a      	mov	r2, r1
	ASSERT(pcString != 0);

	//
	// Start the varargs processing.
	//
	va_start(vaArgP, pcString);
     642:	9304      	str	r3, [sp, #16]

	GPIOPinWrite(GPIO_PORTG_BASE, GPIO_PIN_3, GPIO_PIN_3);
     644:	f006 fc5d 	bl	6f02 <GPIOPinWrite>

	//
	// Loop while there are more characters in the string.
	//
	while (*pcString)
     648:	e0cf      	b.n	7ea <Print+0x1ba>
	{
		//
		// Find the first non-% character, or the end of the string.
		//
		for (ulIdx = 0; (pcString[ulIdx] != '%') && (pcString[ulIdx] != '\0'); ulIdx++)
     64a:	3101      	adds	r1, #1
     64c:	5c63      	ldrb	r3, [r4, r1]
//! was expected, an error of some kind will most likely occur.
//!
//! \return None.
//
//*****************************************************************************
void Print(const char *pcString, ...)
     64e:	190d      	adds	r5, r1, r4
	while (*pcString)
	{
		//
		// Find the first non-% character, or the end of the string.
		//
		for (ulIdx = 0; (pcString[ulIdx] != '%') && (pcString[ulIdx] != '\0'); ulIdx++)
     650:	2b25      	cmp	r3, #37	; 0x25
     652:	d001      	beq.n	658 <Print+0x28>
     654:	2b00      	cmp	r3, #0
     656:	d1f8      	bne.n	64a <Print+0x1a>
		}

		//
		// Write this portion of the string.
		//
		UARTwrite(pcString, ulIdx);
     658:	4620      	mov	r0, r4
     65a:	f7ff ffd1 	bl	600 <UARTwrite>
		pcString += ulIdx;

		//
		// See if the next character is a %.
		//
		if (*pcString == '%')
     65e:	f995 3000 	ldrsb.w	r3, [r5]
     662:	2b25      	cmp	r3, #37	; 0x25
     664:	d001      	beq.n	66a <Print+0x3a>
     666:	462c      	mov	r4, r5
     668:	e0bf      	b.n	7ea <Print+0x1ba>
		{
			//
			// Skip the %.
			//
			pcString++;
     66a:	1c68      	adds	r0, r5, #1
     66c:	f04f 0e20 	mov.w	lr, #32
     670:	2500      	movs	r5, #0
			again:

			//
			// Determine how to handle the next character.
			//
			switch (*pcString++)
     672:	4604      	mov	r4, r0
     674:	f814 2b01 	ldrb.w	r2, [r4], #1
     678:	b253      	sxtb	r3, r2
     67a:	2b64      	cmp	r3, #100	; 0x64
     67c:	d02c      	beq.n	6d8 <Print+0xa8>
     67e:	dc0d      	bgt.n	69c <Print+0x6c>
     680:	2b39      	cmp	r3, #57	; 0x39
     682:	dc05      	bgt.n	690 <Print+0x60>
     684:	2b30      	cmp	r3, #48	; 0x30
     686:	da14      	bge.n	6b2 <Print+0x82>
     688:	2b25      	cmp	r3, #37	; 0x25
     68a:	f040 80aa 	bne.w	7e2 <Print+0x1b2>
     68e:	e0a6      	b.n	7de <Print+0x1ae>
     690:	2b58      	cmp	r3, #88	; 0x58
     692:	d04d      	beq.n	730 <Print+0x100>
     694:	2b63      	cmp	r3, #99	; 0x63
     696:	f040 80a4 	bne.w	7e2 <Print+0x1b2>
     69a:	e015      	b.n	6c8 <Print+0x98>
     69c:	2b73      	cmp	r3, #115	; 0x73
     69e:	d027      	beq.n	6f0 <Print+0xc0>
     6a0:	dc01      	bgt.n	6a6 <Print+0x76>
     6a2:	2b70      	cmp	r3, #112	; 0x70
     6a4:	e002      	b.n	6ac <Print+0x7c>
     6a6:	2b75      	cmp	r3, #117	; 0x75
     6a8:	d03b      	beq.n	722 <Print+0xf2>
     6aa:	2b78      	cmp	r3, #120	; 0x78
     6ac:	f040 8099 	bne.w	7e2 <Print+0x1b2>
     6b0:	e03e      	b.n	730 <Print+0x100>
			{
				//
				// If this is a zero, and it is the first digit, then the
				// fill character is a zero instead of a space.
				//
				if ((pcString[-1] == '0') && (ulCount == 0))
     6b2:	d102      	bne.n	6ba <Print+0x8a>
     6b4:	2d00      	cmp	r5, #0
     6b6:	bf08      	it	eq
     6b8:	469e      	moveq	lr, r3

				//
				// Update the digit count.
				//
				ulCount *= 10;
				ulCount += pcString[-1] - '0';
     6ba:	b252      	sxtb	r2, r2
     6bc:	3a30      	subs	r2, #48	; 0x30
     6be:	230a      	movs	r3, #10
     6c0:	fb03 2505 	mla	r5, r3, r5, r2
     6c4:	4620      	mov	r0, r4

				//
				// Get the next character.
				//
				goto again;
     6c6:	e7d4      	b.n	672 <Print+0x42>
			case 'c':
			{
				//
				// Get the value from the varargs.
				//
				ulValue = va_arg(vaArgP, unsigned long);
     6c8:	9b04      	ldr	r3, [sp, #16]
     6ca:	a806      	add	r0, sp, #24
     6cc:	1d1a      	adds	r2, r3, #4
     6ce:	681b      	ldr	r3, [r3, #0]
     6d0:	9204      	str	r2, [sp, #16]
     6d2:	f840 3d04 	str.w	r3, [r0, #-4]!
     6d6:	e082      	b.n	7de <Print+0x1ae>
			case 'd':
			{
				//
				// Get the value from the varargs.
				//
				ulValue = va_arg(vaArgP, unsigned long);
     6d8:	9b04      	ldr	r3, [sp, #16]
     6da:	1d1a      	adds	r2, r3, #4
     6dc:	681b      	ldr	r3, [r3, #0]
     6de:	9204      	str	r2, [sp, #16]

				//
				// If the value is negative, make it positive and indicate
				// that a minus sign is needed.
				//
				if ((long) ulValue < 0)
     6e0:	2b00      	cmp	r3, #0
			case 'd':
			{
				//
				// Get the value from the varargs.
				//
				ulValue = va_arg(vaArgP, unsigned long);
     6e2:	9305      	str	r3, [sp, #20]

				//
				// If the value is negative, make it positive and indicate
				// that a minus sign is needed.
				//
				if ((long) ulValue < 0)
     6e4:	da22      	bge.n	72c <Print+0xfc>
				{
					//
					// Make the value positive.
					//
					ulValue = -(long) ulValue;
     6e6:	425b      	negs	r3, r3
     6e8:	9305      	str	r3, [sp, #20]
     6ea:	2201      	movs	r2, #1
     6ec:	230a      	movs	r3, #10
     6ee:	e026      	b.n	73e <Print+0x10e>
			case 's':
			{
				//
				// Get the string pointer from the varargs.
				//
				pcStr = va_arg(vaArgP, char *);
     6f0:	9b04      	ldr	r3, [sp, #16]
     6f2:	2600      	movs	r6, #0
     6f4:	1d1a      	adds	r2, r3, #4
     6f6:	9204      	str	r2, [sp, #16]
     6f8:	6818      	ldr	r0, [r3, #0]

				//
				// Determine the length of the string.
				//
				for (ulIdx = 0; pcStr[ulIdx] != '\0'; ulIdx++)
     6fa:	e000      	b.n	6fe <Print+0xce>
     6fc:	3601      	adds	r6, #1
     6fe:	5783      	ldrsb	r3, [r0, r6]
     700:	2b00      	cmp	r3, #0
     702:	d1fb      	bne.n	6fc <Print+0xcc>
				}

				//
				// Write the string.
				//
				UARTwrite(pcStr, ulIdx);
     704:	4631      	mov	r1, r6
     706:	f7ff ff7b 	bl	600 <UARTwrite>

				//
				// Write any required padding spaces
				//
				if (ulCount > ulIdx)
     70a:	42b5      	cmp	r5, r6
     70c:	d96d      	bls.n	7ea <Print+0x1ba>
				{
					ulCount -= ulIdx;
     70e:	1bad      	subs	r5, r5, r6
					while (ulCount--)
     710:	e004      	b.n	71c <Print+0xec>
					{
						UARTwrite(" ", 1);
     712:	4841      	ldr	r0, [pc, #260]	; (818 <Print+0x1e8>)
     714:	2101      	movs	r1, #1
     716:	f7ff ff73 	bl	600 <UARTwrite>
     71a:	3d01      	subs	r5, #1
				// Write any required padding spaces
				//
				if (ulCount > ulIdx)
				{
					ulCount -= ulIdx;
					while (ulCount--)
     71c:	2d00      	cmp	r5, #0
     71e:	d1f8      	bne.n	712 <Print+0xe2>
     720:	e063      	b.n	7ea <Print+0x1ba>
			case 'u':
			{
				//
				// Get the value from the varargs.
				//
				ulValue = va_arg(vaArgP, unsigned long);
     722:	9b04      	ldr	r3, [sp, #16]
     724:	1d1a      	adds	r2, r3, #4
     726:	681b      	ldr	r3, [r3, #0]
     728:	9204      	str	r2, [sp, #16]
     72a:	9305      	str	r3, [sp, #20]
     72c:	2200      	movs	r2, #0
     72e:	e7dd      	b.n	6ec <Print+0xbc>
			case 'p':
			{
				//
				// Get the value from the varargs.
				//
				ulValue = va_arg(vaArgP, unsigned long);
     730:	9b04      	ldr	r3, [sp, #16]
     732:	1d1a      	adds	r2, r3, #4
     734:	681b      	ldr	r3, [r3, #0]
     736:	9204      	str	r2, [sp, #16]
     738:	9305      	str	r3, [sp, #20]
     73a:	2200      	movs	r2, #0
     73c:	2310      	movs	r3, #16

				//
				// Determine the number of digits in the string version of
				// the value.
				//
				convert: for (ulIdx = 1; (((ulIdx * ulBase) <= ulValue)
     73e:	9f05      	ldr	r7, [sp, #20]
     740:	2001      	movs	r0, #1
     742:	e001      	b.n	748 <Print+0x118>
						&& (((ulIdx * ulBase) / ulBase) == ulIdx)); ulIdx
						*= ulBase, ulCount--)
     744:	3d01      	subs	r5, #1
     746:	4608      	mov	r0, r1

				//
				// Determine the number of digits in the string version of
				// the value.
				//
				convert: for (ulIdx = 1; (((ulIdx * ulBase) <= ulValue)
     748:	fb03 f100 	mul.w	r1, r3, r0
     74c:	42b9      	cmp	r1, r7
     74e:	d803      	bhi.n	758 <Print+0x128>
     750:	fbb1 fcf3 	udiv	ip, r1, r3
     754:	4584      	cmp	ip, r0
     756:	d0f5      	beq.n	744 <Print+0x114>

				//
				// If the value is negative, reduce the count of padding
				// characters needed.
				//
				if (ulNeg)
     758:	b90a      	cbnz	r2, 75e <Print+0x12e>
     75a:	4611      	mov	r1, r2
     75c:	e00c      	b.n	778 <Print+0x148>

				//
				// If the value is negative and the value is padded with
				// zeros, then place the minus sign before the padding.
				//
				if (ulNeg && (cFill == '0'))
     75e:	fa4f f28e 	sxtb.w	r2, lr
				// If the value is negative, reduce the count of padding
				// characters needed.
				//
				if (ulNeg)
				{
					ulCount--;
     762:	3d01      	subs	r5, #1

				//
				// If the value is negative and the value is padded with
				// zeros, then place the minus sign before the padding.
				//
				if (ulNeg && (cFill == '0'))
     764:	2a30      	cmp	r2, #48	; 0x30
     766:	d002      	beq.n	76e <Print+0x13e>
     768:	2201      	movs	r2, #1
     76a:	2100      	movs	r1, #0
     76c:	e004      	b.n	778 <Print+0x148>
				{
					//
					// Place the minus sign in the output buffer.
					//
					pcBuf[ulPos++] = '-';
     76e:	222d      	movs	r2, #45	; 0x2d
     770:	f88d 2000 	strb.w	r2, [sp]
     774:	2101      	movs	r1, #1
     776:	3a2d      	subs	r2, #45	; 0x2d

				//
				// Provide additional padding at the beginning of the
				// string conversion if needed.
				//
				if ((ulCount > 1) && (ulCount < 16))
     778:	f1a5 0c02 	sub.w	ip, r5, #2
     77c:	f1bc 0f0d 	cmp.w	ip, #13
     780:	d80d      	bhi.n	79e <Print+0x16e>
     782:	466e      	mov	r6, sp
     784:	1876      	adds	r6, r6, r1
     786:	f04f 0c00 	mov.w	ip, #0
				{
					for (ulCount--; ulCount; ulCount--)
     78a:	e001      	b.n	790 <Print+0x160>
					{
						pcBuf[ulPos++] = cFill;
     78c:	f806 ec01 	strb.w	lr, [r6, #-1]
     790:	f10c 0c01 	add.w	ip, ip, #1
     794:	3601      	adds	r6, #1
				// Provide additional padding at the beginning of the
				// string conversion if needed.
				//
				if ((ulCount > 1) && (ulCount < 16))
				{
					for (ulCount--; ulCount; ulCount--)
     796:	45ac      	cmp	ip, r5
     798:	d1f8      	bne.n	78c <Print+0x15c>
//! was expected, an error of some kind will most likely occur.
//!
//! \return None.
//
//*****************************************************************************
void Print(const char *pcString, ...)
     79a:	4461      	add	r1, ip
     79c:	3901      	subs	r1, #1

				//
				// If the value is negative, then place the minus sign
				// before the number.
				//
				if (ulNeg)
     79e:	b142      	cbz	r2, 7b2 <Print+0x182>
				{
					//
					// Place the minus sign in the output buffer.
					//
					pcBuf[ulPos++] = '-';
     7a0:	f10d 0c18 	add.w	ip, sp, #24
     7a4:	eb0c 0201 	add.w	r2, ip, r1
     7a8:	f04f 0c2d 	mov.w	ip, #45	; 0x2d
     7ac:	f802 cc18 	strb.w	ip, [r2, #-24]
     7b0:	3101      	adds	r1, #1
     7b2:	466a      	mov	r2, sp
     7b4:	1852      	adds	r2, r2, r1
     7b6:	e00d      	b.n	7d4 <Print+0x1a4>
				//
				// Convert the value into a string.
				//
				for (; ulIdx; ulIdx /= ulBase)
				{
					pcBuf[ulPos++] = g_pcHex[(ulValue / ulIdx) % ulBase];
     7b8:	fbb7 fcf0 	udiv	ip, r7, r0
     7bc:	fbbc fef3 	udiv	lr, ip, r3
     7c0:	fb03 cc1e 	mls	ip, r3, lr, ip
     7c4:	4d15      	ldr	r5, [pc, #84]	; (81c <Print+0x1ec>)
     7c6:	3101      	adds	r1, #1
     7c8:	f81c c005 	ldrb.w	ip, [ip, r5]
				}

				//
				// Convert the value into a string.
				//
				for (; ulIdx; ulIdx /= ulBase)
     7cc:	fbb0 f0f3 	udiv	r0, r0, r3
				{
					pcBuf[ulPos++] = g_pcHex[(ulValue / ulIdx) % ulBase];
     7d0:	f802 cc01 	strb.w	ip, [r2, #-1]
				}

				//
				// Convert the value into a string.
				//
				for (; ulIdx; ulIdx /= ulBase)
     7d4:	3201      	adds	r2, #1
     7d6:	2800      	cmp	r0, #0
     7d8:	d1ee      	bne.n	7b8 <Print+0x188>
				}

				//
				// Write the string.
				//
				UARTwrite(pcBuf, ulPos);
     7da:	4668      	mov	r0, sp
     7dc:	e003      	b.n	7e6 <Print+0x1b6>
			case '%':
			{
				//
				// Simply write a single %.
				//
				UARTwrite(pcString - 1, 1);
     7de:	2101      	movs	r1, #1
     7e0:	e001      	b.n	7e6 <Print+0x1b6>
			default:
			{
				//
				// Indicate an error.
				//
				UARTwrite("ERROR", 5);
     7e2:	480f      	ldr	r0, [pc, #60]	; (820 <Print+0x1f0>)
     7e4:	2105      	movs	r1, #5
     7e6:	f7ff ff0b 	bl	600 <UARTwrite>
	GPIOPinWrite(GPIO_PORTG_BASE, GPIO_PIN_3, GPIO_PIN_3);

	//
	// Loop while there are more characters in the string.
	//
	while (*pcString)
     7ea:	f994 3000 	ldrsb.w	r3, [r4]
     7ee:	b10b      	cbz	r3, 7f4 <Print+0x1c4>
     7f0:	2100      	movs	r1, #0
     7f2:	e72b      	b.n	64c <Print+0x1c>
			}
			}
		}
	}

	while (UARTBusy(UART1_BASE))
     7f4:	480b      	ldr	r0, [pc, #44]	; (824 <Print+0x1f4>)
     7f6:	f007 fd08 	bl	820a <UARTBusy>
     7fa:	4602      	mov	r2, r0
     7fc:	2800      	cmp	r0, #0
     7fe:	d1f9      	bne.n	7f4 <Print+0x1c4>
	{
	}
	GPIOPinWrite(GPIO_PORTG_BASE, GPIO_PIN_3, 0);
     800:	4804      	ldr	r0, [pc, #16]	; (814 <Print+0x1e4>)
     802:	2108      	movs	r1, #8
     804:	f006 fb7d 	bl	6f02 <GPIOPinWrite>

	//
	// End the varargs processing.
	//
	va_end(vaArgP);
}
     808:	b007      	add	sp, #28
     80a:	e8bd 40f0 	ldmia.w	sp!, {r4, r5, r6, r7, lr}
     80e:	b004      	add	sp, #16
     810:	4770      	bx	lr
     812:	bf00      	nop
     814:	40026000 	.word	0x40026000
     818:	0000916c 	.word	0x0000916c
     81c:	0000916e 	.word	0x0000916e
     820:	0000917f 	.word	0x0000917f
     824:	4000d000 	.word	0x4000d000

00000828 <isnotdigit>:

	if (*buf < '0' || *buf > 9 || *buf != '.')
		return 1;
	else
		return 0;
}
     828:	2001      	movs	r0, #1
     82a:	4770      	bx	lr

0000082c <strncpy>:
char *
strncpy (s1, s2, n)
     char *s1;
     const char *s2;
     unsigned long n;
{
     82c:	b530      	push	{r4, r5, lr}
  char c;
  char *s = s1;

  --s1;
     82e:	1e44      	subs	r4, r0, #1

  if (n >= 4)
     830:	2a03      	cmp	r2, #3
     832:	d91d      	bls.n	870 <strncpy+0x44>
    {
      unsigned long n4 = n >> 2;
     834:	ea4f 0c92 	mov.w	ip, r2, lsr #2
     838:	4603      	mov	r3, r0

      for (;;)
	{
	  c = *s2++;
     83a:	780d      	ldrb	r5, [r1, #0]
     83c:	461c      	mov	r4, r3
	  *++s1 = c;
     83e:	701d      	strb	r5, [r3, #0]
	  if (c == '\0')
     840:	b18d      	cbz	r5, 866 <strncpy+0x3a>
	    break;
	  c = *s2++;
     842:	784d      	ldrb	r5, [r1, #1]
     844:	1c5c      	adds	r4, r3, #1
	  *++s1 = c;
     846:	705d      	strb	r5, [r3, #1]
	  if (c == '\0')
     848:	b16d      	cbz	r5, 866 <strncpy+0x3a>
	    break;
	  c = *s2++;
     84a:	788d      	ldrb	r5, [r1, #2]
     84c:	1c9c      	adds	r4, r3, #2
	  *++s1 = c;
     84e:	709d      	strb	r5, [r3, #2]
	  if (c == '\0')
     850:	b14d      	cbz	r5, 866 <strncpy+0x3a>
	    break;
	  c = *s2++;
     852:	78cd      	ldrb	r5, [r1, #3]
     854:	1cdc      	adds	r4, r3, #3
	  *++s1 = c;
     856:	70dd      	strb	r5, [r3, #3]
	  if (c == '\0')
     858:	b12d      	cbz	r5, 866 <strncpy+0x3a>
//! @{
//
//*****************************************************************************

char *
strncpy (s1, s2, n)
     85a:	3104      	adds	r1, #4
	    break;
	  c = *s2++;
	  *++s1 = c;
	  if (c == '\0')
	    break;
	  if (--n4 == 0)
     85c:	3304      	adds	r3, #4
     85e:	f1bc 0c01 	subs.w	ip, ip, #1
     862:	d1ea      	bne.n	83a <strncpy+0xe>
     864:	e004      	b.n	870 <strncpy+0x44>
	    goto last_chars;
	}
      n = n - (s1 - s) - 1;
     866:	3a01      	subs	r2, #1
     868:	1b03      	subs	r3, r0, r4
      if (n == 0)
     86a:	18d2      	adds	r2, r2, r3
     86c:	d10c      	bne.n	888 <strncpy+0x5c>
     86e:	bd30      	pop	{r4, r5, pc}
      goto zero_fill;
    }

 last_chars:
  n &= 3;
  if (n == 0)
     870:	f012 0203 	ands.w	r2, r2, #3
     874:	d011      	beq.n	89a <strncpy+0x6e>
     876:	2300      	movs	r3, #0
    return s;

  do
    {
      c = *s2++;
     878:	5ccd      	ldrb	r5, [r1, r3]
      *++s1 = c;
      if (--n == 0)
     87a:	3a01      	subs	r2, #1
    return s;

  do
    {
      c = *s2++;
      *++s1 = c;
     87c:	f804 5f01 	strb.w	r5, [r4, #1]!
      if (--n == 0)
     880:	d00b      	beq.n	89a <strncpy+0x6e>
     882:	3301      	adds	r3, #1
	return s;
    }
  while (c != '\0');
     884:	2d00      	cmp	r5, #0
     886:	d1f7      	bne.n	878 <strncpy+0x4c>
     888:	2300      	movs	r3, #0

 zero_fill:
  do
    *++s1 = '\0';
     88a:	18e1      	adds	r1, r4, r3
     88c:	3301      	adds	r3, #1
     88e:	f04f 0c00 	mov.w	ip, #0
  while (--n > 0);
     892:	429a      	cmp	r2, r3
    }
  while (c != '\0');

 zero_fill:
  do
    *++s1 = '\0';
     894:	f881 c001 	strb.w	ip, [r1, #1]
  while (--n > 0);
     898:	d1f7      	bne.n	88a <strncpy+0x5e>

  return s;
}
     89a:	bd30      	pop	{r4, r5, pc}

0000089c <memcpy>:
	unsigned long *pulSrc, *pulDest;

	pulSrc  = (unsigned long) dstpp;
	pulDest = (unsigned long) srcpp;

	for (i=0; i<len; i++)
     89c:	2300      	movs	r3, #0
     89e:	b510      	push	{r4, lr}
     8a0:	469c      	mov	ip, r3
     8a2:	e004      	b.n	8ae <memcpy+0x12>
	{
		*pulDest++ = *pulSrc++;
     8a4:	58c4      	ldr	r4, [r0, r3]
	unsigned long *pulSrc, *pulDest;

	pulSrc  = (unsigned long) dstpp;
	pulDest = (unsigned long) srcpp;

	for (i=0; i<len; i++)
     8a6:	f10c 0c01 	add.w	ip, ip, #1
	{
		*pulDest++ = *pulSrc++;
     8aa:	50cc      	str	r4, [r1, r3]
	unsigned long *pulSrc, *pulDest;

	pulSrc  = (unsigned long) dstpp;
	pulDest = (unsigned long) srcpp;

	for (i=0; i<len; i++)
     8ac:	3304      	adds	r3, #4
     8ae:	4594      	cmp	ip, r2
     8b0:	d3f8      	bcc.n	8a4 <memcpy+0x8>
	{
		*pulDest++ = *pulSrc++;
	}

	return dstpp;
}
     8b2:	bd10      	pop	{r4, pc}

000008b4 <strncmp>:
     unsigned long n;
{
  char c1 = '\0';
  char c2 = '\0';

  if (n >= 4)
     8b4:	2a03      	cmp	r2, #3
int
strncmp (s1, s2, n)
     const char *s1;
     const char *s2;
     unsigned long n;
{
     8b6:	b510      	push	{r4, lr}
  char c1 = '\0';
  char c2 = '\0';

  if (n >= 4)
     8b8:	d920      	bls.n	8fc <strncmp+0x48>
    {
      unsigned long n4 = n >> 2;
     8ba:	ea4f 0c92 	mov.w	ip, r2, lsr #2
      do
	{
	  c1 = (unsigned char) *s1++;
     8be:	7803      	ldrb	r3, [r0, #0]
	  c2 = (unsigned char) *s2++;
     8c0:	780c      	ldrb	r4, [r1, #0]
	  if (c1 == '\0' || c1 != c2)
     8c2:	b183      	cbz	r3, 8e6 <strncmp+0x32>
     8c4:	429c      	cmp	r4, r3
     8c6:	d10e      	bne.n	8e6 <strncmp+0x32>
	    return c1 - c2;
	  c1 = (unsigned char) *s1++;
     8c8:	7843      	ldrb	r3, [r0, #1]
	  c2 = (unsigned char) *s2++;
     8ca:	784c      	ldrb	r4, [r1, #1]
	  if (c1 == '\0' || c1 != c2)
     8cc:	b15b      	cbz	r3, 8e6 <strncmp+0x32>
     8ce:	429c      	cmp	r4, r3
     8d0:	d109      	bne.n	8e6 <strncmp+0x32>
	    return c1 - c2;
	  c1 = (unsigned char) *s1++;
     8d2:	7883      	ldrb	r3, [r0, #2]
	  c2 = (unsigned char) *s2++;
     8d4:	788c      	ldrb	r4, [r1, #2]
	  if (c1 == '\0' || c1 != c2)
     8d6:	b133      	cbz	r3, 8e6 <strncmp+0x32>
     8d8:	429c      	cmp	r4, r3
     8da:	d104      	bne.n	8e6 <strncmp+0x32>
	    return c1 - c2;
	  c1 = (unsigned char) *s1++;
     8dc:	78c3      	ldrb	r3, [r0, #3]
	  c2 = (unsigned char) *s2++;
     8de:	78cc      	ldrb	r4, [r1, #3]
	  if (c1 == '\0' || c1 != c2)
     8e0:	b10b      	cbz	r3, 8e6 <strncmp+0x32>
     8e2:	429c      	cmp	r4, r3
     8e4:	d003      	beq.n	8ee <strncmp+0x3a>
	    return c1 - c2;
     8e6:	b258      	sxtb	r0, r3
     8e8:	b264      	sxtb	r4, r4
     8ea:	1b00      	subs	r0, r0, r4
     8ec:	bd10      	pop	{r4, pc}

	return dstpp;
}

int
strncmp (s1, s2, n)
     8ee:	3004      	adds	r0, #4
     8f0:	3104      	adds	r1, #4
	    return c1 - c2;
	  c1 = (unsigned char) *s1++;
	  c2 = (unsigned char) *s2++;
	  if (c1 == '\0' || c1 != c2)
	    return c1 - c2;
	} while (--n4 > 0);
     8f2:	f1bc 0c01 	subs.w	ip, ip, #1
     8f6:	d1e2      	bne.n	8be <strncmp+0xa>
      n &= 3;
     8f8:	f002 0203 	and.w	r2, r2, #3
     8fc:	2300      	movs	r3, #0
     8fe:	e00d      	b.n	91c <strncmp+0x68>
    }

  while (n > 0)
    {
      c1 = (unsigned char) *s1++;
     900:	5cc4      	ldrb	r4, [r0, r3]
      c2 = (unsigned char) *s2++;
     902:	f811 c003 	ldrb.w	ip, [r1, r3]
      if (c1 == '\0' || c1 != c2)
     906:	b114      	cbz	r4, 90e <strncmp+0x5a>
     908:	3301      	adds	r3, #1
     90a:	45a4      	cmp	ip, r4
     90c:	d005      	beq.n	91a <strncmp+0x66>
	return c1 - c2;
     90e:	b260      	sxtb	r0, r4
     910:	fa4f fc8c 	sxtb.w	ip, ip
     914:	ebcc 0000 	rsb	r0, ip, r0
     918:	bd10      	pop	{r4, pc}
      n--;
     91a:	3a01      	subs	r2, #1
	    return c1 - c2;
	} while (--n4 > 0);
      n &= 3;
    }

  while (n > 0)
     91c:	2a00      	cmp	r2, #0
     91e:	d1ef      	bne.n	900 <strncmp+0x4c>
     920:	4610      	mov	r0, r2
	return c1 - c2;
      n--;
    }

  return c1 - c2;
}
     922:	bd10      	pop	{r4, pc}

00000924 <strlen>:

unsigned long
strlen (str)
     const char *str;
{
     924:	4603      	mov	r3, r0
  const unsigned long int *longword_ptr;
  unsigned long int longword, himagic, lomagic;

  /* Handle the first few characters by reading one character at a time.
     Do this until CHAR_PTR is aligned on a longword boundary.  */
  for (char_ptr = str; ((unsigned long int) char_ptr
     926:	e003      	b.n	930 <strlen+0xc>
			& (sizeof (longword) - 1)) != 0;
       ++char_ptr)
    if (*char_ptr == '\0')
     928:	f993 2000 	ldrsb.w	r2, [r3]
     92c:	b182      	cbz	r2, 950 <strlen+0x2c>

  /* Handle the first few characters by reading one character at a time.
     Do this until CHAR_PTR is aligned on a longword boundary.  */
  for (char_ptr = str; ((unsigned long int) char_ptr
			& (sizeof (longword) - 1)) != 0;
       ++char_ptr)
     92e:	3301      	adds	r3, #1
  const unsigned long int *longword_ptr;
  unsigned long int longword, himagic, lomagic;

  /* Handle the first few characters by reading one character at a time.
     Do this until CHAR_PTR is aligned on a longword boundary.  */
  for (char_ptr = str; ((unsigned long int) char_ptr
     930:	f013 0f03 	tst.w	r3, #3
     934:	d1f8      	bne.n	928 <strlen+0x4>
     936:	e000      	b.n	93a <strlen+0x16>
      /* 64-bit version of the magic.  */
      /* Do the shift in two steps to avoid a warning if long has 32 bits.  */
      himagic = ((himagic << 16) << 16) | himagic;
      lomagic = ((lomagic << 16) << 16) | lomagic;
    }
  if (sizeof (longword) > 8)
     938:	3304      	adds	r3, #4
  /* Instead of the traditional loop which tests each character,
     we will test a longword at a time.  The tricky part is testing
     if *any of the four* bytes in the longword in question are zero.  */
  for (;;)
    {
      longword = *longword_ptr++;
     93a:	681a      	ldr	r2, [r3, #0]

      if (((longword - lomagic) & ~longword & himagic) != 0)
     93c:	f1a2 3101 	sub.w	r1, r2, #16843009	; 0x1010101
     940:	ea21 0202 	bic.w	r2, r1, r2
     944:	f012 3f80 	tst.w	r2, #2155905152	; 0x80808080
     948:	d0f6      	beq.n	938 <strlen+0x14>
	  /* Which of the bytes was the zero?  If none of them were, it was
	     a misfire; continue the search.  */

	  const char *cp = (const char *) (longword_ptr - 1);

	  if (cp[0] == 0)
     94a:	f993 2000 	ldrsb.w	r2, [r3]
     94e:	b90a      	cbnz	r2, 954 <strlen+0x30>
	    return cp - str;
     950:	1a18      	subs	r0, r3, r0
     952:	4770      	bx	lr
	  if (cp[1] == 0)
     954:	f993 2001 	ldrsb.w	r2, [r3, #1]
     958:	b912      	cbnz	r2, 960 <strlen+0x3c>
	    return cp - str + 1;
     95a:	f1c0 0001 	rsb	r0, r0, #1
     95e:	e004      	b.n	96a <strlen+0x46>
	  if (cp[2] == 0)
     960:	f993 2002 	ldrsb.w	r2, [r3, #2]
     964:	b91a      	cbnz	r2, 96e <strlen+0x4a>
	    return cp - str + 2;
     966:	f1c0 0002 	rsb	r0, r0, #2
     96a:	18c0      	adds	r0, r0, r3
     96c:	4770      	bx	lr
	  if (cp[3] == 0)
     96e:	f993 2003 	ldrsb.w	r2, [r3, #3]
     972:	2a00      	cmp	r2, #0
     974:	d1e0      	bne.n	938 <strlen+0x14>
	    return cp - str + 3;
     976:	f1c0 0003 	rsb	r0, r0, #3
     97a:	18c0      	adds	r0, r0, r3
	      if (cp[7] == 0)
		return cp - str + 7;
	    }
	}
    }
}
     97c:	4770      	bx	lr

0000097e <uvsnprintf>:
//
//*****************************************************************************
int
uvsnprintf(char *pcBuf, unsigned long ulSize, const char *pcString,
           va_list vaArgP)
{
     97e:	e92d 4ff7 	stmdb	sp!, {r0, r1, r2, r4, r5, r6, r7, r8, r9, sl, fp, lr}
     982:	4604      	mov	r4, r0
     984:	4691      	mov	r9, r2
     986:	461f      	mov	r7, r3
    ASSERT(ulSize != 0);

    //
    // Adjust buffer size limit to allow one space for null termination.
    //
    if(ulSize)
     988:	460d      	mov	r5, r1
     98a:	b101      	cbz	r1, 98e <uvsnprintf+0x10>
    {
        ulSize--;
     98c:	1e4d      	subs	r5, r1, #1
     98e:	2600      	movs	r6, #0
     990:	e10d      	b.n	bae <uvsnprintf+0x230>
    {
        //
        // Find the first non-% character, or the end of the string.
        //
        for(ulIdx = 0; (pcString[ulIdx] != '%') && (pcString[ulIdx] != '\0');
            ulIdx++)
     992:	f108 0801 	add.w	r8, r8, #1
    while(*pcString)
    {
        //
        // Find the first non-% character, or the end of the string.
        //
        for(ulIdx = 0; (pcString[ulIdx] != '%') && (pcString[ulIdx] != '\0');
     996:	f819 3008 	ldrb.w	r3, [r9, r8]
//! including the NULL termination character, regardless of space in the
//! buffer.
//
//*****************************************************************************
int
uvsnprintf(char *pcBuf, unsigned long ulSize, const char *pcString,
     99a:	eb08 0a09 	add.w	sl, r8, r9
    while(*pcString)
    {
        //
        // Find the first non-% character, or the end of the string.
        //
        for(ulIdx = 0; (pcString[ulIdx] != '%') && (pcString[ulIdx] != '\0');
     99e:	2b25      	cmp	r3, #37	; 0x25
     9a0:	d001      	beq.n	9a6 <uvsnprintf+0x28>
     9a2:	2b00      	cmp	r3, #0
     9a4:	d1f5      	bne.n	992 <uvsnprintf+0x14>
        //
        // Write this portion of the string to the output buffer.  If there are
        // more characters to write than there is space in the buffer, then
        // only write as much as will fit in the buffer.
        //
        if(ulIdx > ulSize)
     9a6:	45a8      	cmp	r8, r5
        {
            strncpy(pcBuf, pcString, ulSize);
     9a8:	4620      	mov	r0, r4
     9aa:	4649      	mov	r1, r9
        //
        // Write this portion of the string to the output buffer.  If there are
        // more characters to write than there is space in the buffer, then
        // only write as much as will fit in the buffer.
        //
        if(ulIdx > ulSize)
     9ac:	d905      	bls.n	9ba <uvsnprintf+0x3c>
        {
            strncpy(pcBuf, pcString, ulSize);
     9ae:	462a      	mov	r2, r5
            pcBuf += ulSize;
     9b0:	1964      	adds	r4, r4, r5
        // more characters to write than there is space in the buffer, then
        // only write as much as will fit in the buffer.
        //
        if(ulIdx > ulSize)
        {
            strncpy(pcBuf, pcString, ulSize);
     9b2:	f7ff ff3b 	bl	82c <strncpy>
            pcBuf += ulSize;
     9b6:	2500      	movs	r5, #0
     9b8:	e005      	b.n	9c6 <uvsnprintf+0x48>
            ulSize = 0;
        }
        else
        {
            strncpy(pcBuf, pcString, ulIdx);
     9ba:	4642      	mov	r2, r8
     9bc:	f7ff ff36 	bl	82c <strncpy>
            pcBuf += ulIdx;
     9c0:	4444      	add	r4, r8
            ulSize -= ulIdx;
     9c2:	ebc8 0505 	rsb	r5, r8, r5
        pcString += ulIdx;

        //
        // See if the next character is a %.
        //
        if(*pcString == '%')
     9c6:	f99a 3000 	ldrsb.w	r3, [sl]
        //
        // Update the conversion count.  This will be the number of characters
        // that should have been written, even if there was not room in the
        // buffer.
        //
        iConvertCount += ulIdx;
     9ca:	4446      	add	r6, r8
        pcString += ulIdx;

        //
        // See if the next character is a %.
        //
        if(*pcString == '%')
     9cc:	2b25      	cmp	r3, #37	; 0x25
     9ce:	d001      	beq.n	9d4 <uvsnprintf+0x56>
     9d0:	46d1      	mov	r9, sl
     9d2:	e0ec      	b.n	bae <uvsnprintf+0x230>
     9d4:	462b      	mov	r3, r5
     9d6:	f10a 0102 	add.w	r1, sl, #2
     9da:	f04f 0b20 	mov.w	fp, #32
     9de:	f04f 0800 	mov.w	r8, #0
again:

            //
            // Determine how to handle the next character.
            //
            switch(*pcString++)
     9e2:	f811 0c01 	ldrb.w	r0, [r1, #-1]
     9e6:	4689      	mov	r9, r1
     9e8:	b242      	sxtb	r2, r0
     9ea:	2a64      	cmp	r2, #100	; 0x64
     9ec:	d02c      	beq.n	a48 <uvsnprintf+0xca>
     9ee:	dc0d      	bgt.n	a0c <uvsnprintf+0x8e>
     9f0:	2a39      	cmp	r2, #57	; 0x39
     9f2:	dc05      	bgt.n	a00 <uvsnprintf+0x82>
     9f4:	2a30      	cmp	r2, #48	; 0x30
     9f6:	da14      	bge.n	a22 <uvsnprintf+0xa4>
     9f8:	2a25      	cmp	r2, #37	; 0x25
     9fa:	f040 80c8 	bne.w	b8e <uvsnprintf+0x210>
     9fe:	e0bf      	b.n	b80 <uvsnprintf+0x202>
     a00:	2a58      	cmp	r2, #88	; 0x58
     a02:	d067      	beq.n	ad4 <uvsnprintf+0x156>
     a04:	2a63      	cmp	r2, #99	; 0x63
     a06:	f040 80c2 	bne.w	b8e <uvsnprintf+0x210>
     a0a:	e016      	b.n	a3a <uvsnprintf+0xbc>
     a0c:	2a73      	cmp	r2, #115	; 0x73
     a0e:	d029      	beq.n	a64 <uvsnprintf+0xe6>
     a10:	dc01      	bgt.n	a16 <uvsnprintf+0x98>
     a12:	2a70      	cmp	r2, #112	; 0x70
     a14:	e002      	b.n	a1c <uvsnprintf+0x9e>
     a16:	2a75      	cmp	r2, #117	; 0x75
     a18:	d057      	beq.n	aca <uvsnprintf+0x14c>
     a1a:	2a78      	cmp	r2, #120	; 0x78
     a1c:	f040 80b7 	bne.w	b8e <uvsnprintf+0x210>
     a20:	e058      	b.n	ad4 <uvsnprintf+0x156>
                {
                    //
                    // If this is a zero, and it is the first digit, then the
                    // fill character is a zero instead of a space.
                    //
                    if((pcString[-1] == '0') && (ulCount == 0))
     a22:	d103      	bne.n	a2c <uvsnprintf+0xae>
     a24:	f1b8 0f00 	cmp.w	r8, #0
     a28:	bf08      	it	eq
     a2a:	4693      	moveq	fp, r2

                    //
                    // Update the digit count.
                    //
                    ulCount *= 10;
                    ulCount += pcString[-1] - '0';
     a2c:	b240      	sxtb	r0, r0
     a2e:	3830      	subs	r0, #48	; 0x30
     a30:	220a      	movs	r2, #10
     a32:	fb02 0808 	mla	r8, r2, r8, r0
     a36:	3101      	adds	r1, #1

                    //
                    // Get the next character.
                    //
                    goto again;
     a38:	e7d3      	b.n	9e2 <uvsnprintf+0x64>
                case 'c':
                {
                    //
                    // Get the value from the varargs.
                    //
                    ulValue = va_arg(vaArgP, unsigned long);
     a3a:	683a      	ldr	r2, [r7, #0]

                    //
                    // Copy the character to the output buffer, if there is
                    // room.  Update the buffer size remaining.
                    //
                    if(ulSize != 0)
     a3c:	b115      	cbz	r5, a44 <uvsnprintf+0xc6>
                    {
                        *pcBuf++ = (char)ulValue;
     a3e:	f804 2b01 	strb.w	r2, [r4], #1
                        ulSize--;
     a42:	1e6b      	subs	r3, r5, #1
                case 'c':
                {
                    //
                    // Get the value from the varargs.
                    //
                    ulValue = va_arg(vaArgP, unsigned long);
     a44:	3704      	adds	r7, #4
     a46:	e09f      	b.n	b88 <uvsnprintf+0x20a>
                case 'd':
                {
                    //
                    // Get the value from the varargs.
                    //
                    ulValue = va_arg(vaArgP, unsigned long);
     a48:	f8d7 c000 	ldr.w	ip, [r7]
     a4c:	1d3a      	adds	r2, r7, #4

                    //
                    // If the value is negative, make it positive and indicate
                    // that a minus sign is needed.
                    //
                    if((long)ulValue < 0)
     a4e:	f1bc 0f00 	cmp.w	ip, #0
     a52:	db01      	blt.n	a58 <uvsnprintf+0xda>
     a54:	4617      	mov	r7, r2
     a56:	e03b      	b.n	ad0 <uvsnprintf+0x152>
                    {
                        //
                        // Make the value positive.
                        //
                        ulValue = -(long)ulValue;
     a58:	f1cc 0c00 	rsb	ip, ip, #0
     a5c:	4617      	mov	r7, r2
     a5e:	2101      	movs	r1, #1
     a60:	220a      	movs	r2, #10
     a62:	e03c      	b.n	ade <uvsnprintf+0x160>
                case 's':
                {
                    //
                    // Get the string pointer from the varargs.
                    //
                    pcStr = va_arg(vaArgP, char *);
     a64:	6839      	ldr	r1, [r7, #0]
     a66:	f04f 0a00 	mov.w	sl, #0

                    //
                    // Determine the length of the string.
                    //
                    for(ulIdx = 0; pcStr[ulIdx] != '\0'; ulIdx++)
     a6a:	e001      	b.n	a70 <uvsnprintf+0xf2>
     a6c:	f10a 0a01 	add.w	sl, sl, #1
     a70:	f911 300a 	ldrsb.w	r3, [r1, sl]
     a74:	2b00      	cmp	r3, #0
     a76:	d1f9      	bne.n	a6c <uvsnprintf+0xee>
                    //
                    // Update the convert count to include any padding that
                    // should be necessary (regardless of whether we have space
                    // to write it or not).
                    //
                    if(ulCount > ulIdx)
     a78:	45d0      	cmp	r8, sl
                    {
                        iConvertCount += (ulCount - ulIdx);
     a7a:	bf84      	itt	hi
     a7c:	4446      	addhi	r6, r8
     a7e:	ebca 0606 	rsbhi	r6, sl, r6
                    //
                    // Copy the string to the output buffer.  Only copy as much
                    // as will fit in the buffer.  Update the output buffer
                    // pointer and the space remaining.
                    //
                    if(ulIdx > ulSize)
     a82:	45aa      	cmp	sl, r5
                    {
                        strncpy(pcBuf, pcStr, ulSize);
     a84:	4620      	mov	r0, r4
                    //
                    // Copy the string to the output buffer.  Only copy as much
                    // as will fit in the buffer.  Update the output buffer
                    // pointer and the space remaining.
                    //
                    if(ulIdx > ulSize)
     a86:	d905      	bls.n	a94 <uvsnprintf+0x116>
                    {
                        strncpy(pcBuf, pcStr, ulSize);
     a88:	462a      	mov	r2, r5
                        pcBuf += ulSize;
     a8a:	1964      	adds	r4, r4, r5
                    // as will fit in the buffer.  Update the output buffer
                    // pointer and the space remaining.
                    //
                    if(ulIdx > ulSize)
                    {
                        strncpy(pcBuf, pcStr, ulSize);
     a8c:	f7ff fece 	bl	82c <strncpy>
                        pcBuf += ulSize;
     a90:	2500      	movs	r5, #0
     a92:	e017      	b.n	ac4 <uvsnprintf+0x146>
                        ulSize = 0;
                    }
                    else
                    {
                        strncpy(pcBuf, pcStr, ulIdx);
     a94:	4652      	mov	r2, sl
     a96:	f7ff fec9 	bl	82c <strncpy>

                        //
                        // Write any required padding spaces assuming there is
                        // still space in the buffer.
                        //
                        if(ulCount > ulIdx)
     a9a:	45d0      	cmp	r8, sl
                        ulSize = 0;
                    }
                    else
                    {
                        strncpy(pcBuf, pcStr, ulIdx);
                        pcBuf += ulIdx;
     a9c:	4454      	add	r4, sl
                        ulSize -= ulIdx;
     a9e:	ebca 0505 	rsb	r5, sl, r5

                        //
                        // Write any required padding spaces assuming there is
                        // still space in the buffer.
                        //
                        if(ulCount > ulIdx)
     aa2:	d90f      	bls.n	ac4 <uvsnprintf+0x146>
                        {
                            ulCount -= ulIdx;
     aa4:	ebca 0808 	rsb	r8, sl, r8
     aa8:	45a8      	cmp	r8, r5
     aaa:	bf38      	it	cc
     aac:	4645      	movcc	r5, r8
     aae:	462a      	mov	r2, r5
     ab0:	2300      	movs	r3, #0
                            {
                                ulCount = ulSize;
                            }
                            ulSize =- ulCount;

                            while(ulCount--)
     ab2:	e003      	b.n	abc <uvsnprintf+0x13e>
                            {
                                *pcBuf++ = ' ';
     ab4:	2120      	movs	r1, #32
     ab6:	54e1      	strb	r1, [r4, r3]
     ab8:	3a01      	subs	r2, #1
     aba:	3301      	adds	r3, #1
                            {
                                ulCount = ulSize;
                            }
                            ulSize =- ulCount;

                            while(ulCount--)
     abc:	2a00      	cmp	r2, #0
     abe:	d1f9      	bne.n	ab4 <uvsnprintf+0x136>
     ac0:	1964      	adds	r4, r4, r5
                            ulCount -= ulIdx;
                            if(ulCount > ulSize)
                            {
                                ulCount = ulSize;
                            }
                            ulSize =- ulCount;
     ac2:	426d      	negs	r5, r5
                case 's':
                {
                    //
                    // Get the string pointer from the varargs.
                    //
                    pcStr = va_arg(vaArgP, char *);
     ac4:	3704      	adds	r7, #4
                    //
                    // Update the conversion count.  This will be the number of
                    // characters that should have been written, even if there
                    // was not room in the buffer.
                    //
                    iConvertCount += ulIdx;
     ac6:	4456      	add	r6, sl

                    //
                    // This command has been handled.
                    //
                    break;
     ac8:	e071      	b.n	bae <uvsnprintf+0x230>
                case 'u':
                {
                    //
                    // Get the value from the varargs.
                    //
                    ulValue = va_arg(vaArgP, unsigned long);
     aca:	f8d7 c000 	ldr.w	ip, [r7]
     ace:	3704      	adds	r7, #4
     ad0:	2100      	movs	r1, #0
     ad2:	e7c5      	b.n	a60 <uvsnprintf+0xe2>
                case 'p':
                {
                    //
                    // Get the value from the varargs.
                    //
                    ulValue = va_arg(vaArgP, unsigned long);
     ad4:	f8d7 c000 	ldr.w	ip, [r7]
     ad8:	2100      	movs	r1, #0
     ada:	3704      	adds	r7, #4
     adc:	2210      	movs	r2, #16
     ade:	2001      	movs	r0, #1
     ae0:	9301      	str	r3, [sp, #4]
     ae2:	46ba      	mov	sl, r7
                    //
                    // Determine the number of digits in the string version of
                    // the value.
                    //
convert:
                    for(ulIdx = 1;
     ae4:	e002      	b.n	aec <uvsnprintf+0x16e>
                        (((ulIdx * ulBase) <= ulValue) &&
                         (((ulIdx * ulBase) / ulBase) == ulIdx));
                        ulIdx *= ulBase, ulCount--)
     ae6:	f108 38ff 	add.w	r8, r8, #4294967295
     aea:	4618      	mov	r0, r3
                    // Determine the number of digits in the string version of
                    // the value.
                    //
convert:
                    for(ulIdx = 1;
                        (((ulIdx * ulBase) <= ulValue) &&
     aec:	fb02 f300 	mul.w	r3, r2, r0
                    //
                    // Determine the number of digits in the string version of
                    // the value.
                    //
convert:
                    for(ulIdx = 1;
     af0:	4563      	cmp	r3, ip
     af2:	d803      	bhi.n	afc <uvsnprintf+0x17e>
     af4:	fbb3 f7f2 	udiv	r7, r3, r2
     af8:	4287      	cmp	r7, r0
     afa:	d0f4      	beq.n	ae6 <uvsnprintf+0x168>
     afc:	9b01      	ldr	r3, [sp, #4]
     afe:	4657      	mov	r7, sl

                    //
                    // If the value is negative, reduce the count of padding
                    // characters needed.
                    //
                    if(ulNeg)
     b00:	b909      	cbnz	r1, b06 <uvsnprintf+0x188>
     b02:	462b      	mov	r3, r5
     b04:	e00f      	b.n	b26 <uvsnprintf+0x1a8>
                    {
                        ulCount--;
     b06:	f108 38ff 	add.w	r8, r8, #4294967295

                    //
                    // If the value is negative and the value is padded with
                    // zeros, then place the minus sign before the padding.
                    //
                    if(ulNeg && (ulSize != 0) && (cFill == '0'))
     b0a:	b125      	cbz	r5, b16 <uvsnprintf+0x198>
     b0c:	fa4f f38b 	sxtb.w	r3, fp
     b10:	2b30      	cmp	r3, #48	; 0x30
     b12:	d002      	beq.n	b1a <uvsnprintf+0x19c>
     b14:	462b      	mov	r3, r5
     b16:	2101      	movs	r1, #1
     b18:	e005      	b.n	b26 <uvsnprintf+0x1a8>
                    {
                        //
                        // Place the minus sign in the output buffer.
                        //
                        *pcBuf++ = '-';
     b1a:	232d      	movs	r3, #45	; 0x2d
     b1c:	f804 3b01 	strb.w	r3, [r4], #1
                        ulSize--;

                        //
                        // Update the conversion count.
                        //
                        iConvertCount++;
     b20:	3601      	adds	r6, #1
                    {
                        //
                        // Place the minus sign in the output buffer.
                        //
                        *pcBuf++ = '-';
                        ulSize--;
     b22:	1e6b      	subs	r3, r5, #1

                        //
                        // Update the conversion count.
                        //
                        iConvertCount++;
     b24:	2100      	movs	r1, #0

                    //
                    // See if there are more characters in the specified field
                    // width than there are in the conversion of this value.
                    //
                    if((ulCount > 1) && (ulCount < 65536))
     b26:	f1a8 0a02 	sub.w	sl, r8, #2
     b2a:	f64f 75fd 	movw	r5, #65533	; 0xfffd
     b2e:	45aa      	cmp	sl, r5
     b30:	d80b      	bhi.n	b4a <uvsnprintf+0x1cc>
                    {
                        //
                        // Loop through the required padding characters.
                        //
                        for(ulCount--; ulCount; ulCount--)
     b32:	f108 38ff 	add.w	r8, r8, #4294967295
     b36:	4645      	mov	r5, r8
     b38:	e004      	b.n	b44 <uvsnprintf+0x1c6>
                        {
                            //
                            // Copy the character to the output buffer if there
                            // is room.
                            //
                            if(ulSize != 0)
     b3a:	b113      	cbz	r3, b42 <uvsnprintf+0x1c4>
                            {
                                *pcBuf++ = cFill;
     b3c:	f804 bb01 	strb.w	fp, [r4], #1
                                ulSize--;
     b40:	3b01      	subs	r3, #1
                    if((ulCount > 1) && (ulCount < 65536))
                    {
                        //
                        // Loop through the required padding characters.
                        //
                        for(ulCount--; ulCount; ulCount--)
     b42:	3d01      	subs	r5, #1
     b44:	2d00      	cmp	r5, #0
     b46:	d1f8      	bne.n	b3a <uvsnprintf+0x1bc>
     b48:	4446      	add	r6, r8

                    //
                    // If the value is negative, then place the minus sign
                    // before the number.
                    //
                    if(ulNeg && (ulSize != 0))
     b4a:	b129      	cbz	r1, b58 <uvsnprintf+0x1da>
     b4c:	b123      	cbz	r3, b58 <uvsnprintf+0x1da>
                    {
                        //
                        // Place the minus sign in the output buffer.
                        //
                        *pcBuf++ = '-';
     b4e:	212d      	movs	r1, #45	; 0x2d
     b50:	f804 1b01 	strb.w	r1, [r4], #1
                        ulSize--;
     b54:	3b01      	subs	r3, #1

                        //
                        // Update the conversion count.
                        //
                        iConvertCount++;
     b56:	3601      	adds	r6, #1
     b58:	461d      	mov	r5, r3
     b5a:	e00e      	b.n	b7a <uvsnprintf+0x1fc>
                    {
                        //
                        // Copy the character to the output buffer if there is
                        // room.
                        //
                        if(ulSize != 0)
     b5c:	b155      	cbz	r5, b74 <uvsnprintf+0x1f6>
                        {
                            *pcBuf++ = g_pcHex[(ulValue / ulIdx) % ulBase];
     b5e:	fbbc f3f0 	udiv	r3, ip, r0
     b62:	fbb3 f1f2 	udiv	r1, r3, r2
     b66:	fb02 3311 	mls	r3, r2, r1, r3
     b6a:	4916      	ldr	r1, [pc, #88]	; (bc4 <uvsnprintf+0x246>)
                            ulSize--;
     b6c:	3d01      	subs	r5, #1
                        // Copy the character to the output buffer if there is
                        // room.
                        //
                        if(ulSize != 0)
                        {
                            *pcBuf++ = g_pcHex[(ulValue / ulIdx) % ulBase];
     b6e:	5c5b      	ldrb	r3, [r3, r1]
     b70:	f804 3b01 	strb.w	r3, [r4], #1
                        }

                        //
                        // Update the conversion count.
                        //
                        iConvertCount++;
     b74:	3601      	adds	r6, #1
                    }

                    //
                    // Convert the value into a string.
                    //
                    for(; ulIdx; ulIdx /= ulBase)
     b76:	fbb0 f0f2 	udiv	r0, r0, r2
     b7a:	2800      	cmp	r0, #0
     b7c:	d1ee      	bne.n	b5c <uvsnprintf+0x1de>
     b7e:	e016      	b.n	bae <uvsnprintf+0x230>
                case '%':
                {
                    //
                    // Simply write a single %.
                    //
                    if(ulSize != 0)
     b80:	b115      	cbz	r5, b88 <uvsnprintf+0x20a>
                    {
                        *pcBuf++ = pcString[-1];
     b82:	f804 2b01 	strb.w	r2, [r4], #1
                        ulSize--;
     b86:	1e6b      	subs	r3, r5, #1
                    }

                    //
                    // Update the conversion count.
                    //
                    iConvertCount++;
     b88:	3601      	adds	r6, #1
     b8a:	461d      	mov	r5, r3

                    //
                    // This command has been handled.
                    //
                    break;
     b8c:	e00f      	b.n	bae <uvsnprintf+0x230>
                default:
                {
                    //
                    // Indicate an error.
                    //
                    if(ulSize >= 5)
     b8e:	2d04      	cmp	r5, #4
                    {
                        strncpy(pcBuf, "ERROR", 5);
     b90:	4620      	mov	r0, r4
     b92:	490d      	ldr	r1, [pc, #52]	; (bc8 <uvsnprintf+0x24a>)
                default:
                {
                    //
                    // Indicate an error.
                    //
                    if(ulSize >= 5)
     b94:	d905      	bls.n	ba2 <uvsnprintf+0x224>
                    {
                        strncpy(pcBuf, "ERROR", 5);
     b96:	2205      	movs	r2, #5
     b98:	f7ff fe48 	bl	82c <strncpy>
                        pcBuf += 5;
     b9c:	3405      	adds	r4, #5
                        ulSize -= 5;
     b9e:	3d05      	subs	r5, #5
     ba0:	e004      	b.n	bac <uvsnprintf+0x22e>
                    }
                    else
                    {
                        strncpy(pcBuf, "ERROR", ulSize);
     ba2:	462a      	mov	r2, r5
     ba4:	f7ff fe42 	bl	82c <strncpy>
                        pcBuf += ulSize;
     ba8:	1964      	adds	r4, r4, r5
     baa:	2500      	movs	r5, #0
                    }

                    //
                    // Update the conversion count.
                    //
                    iConvertCount += 5;
     bac:	3605      	adds	r6, #5
    iConvertCount = 0;

    //
    // Loop while there are more characters in the format string.
    //
    while(*pcString)
     bae:	f999 3000 	ldrsb.w	r3, [r9]
     bb2:	b113      	cbz	r3, bba <uvsnprintf+0x23c>
     bb4:	f04f 0800 	mov.w	r8, #0
     bb8:	e6ed      	b.n	996 <uvsnprintf+0x18>
    }

    //
    // Null terminate the string in the buffer.
    //
    *pcBuf = 0;
     bba:	7023      	strb	r3, [r4, #0]

    //
    // Return the number of characters in the full converted string.
    //
    return(iConvertCount);
}
     bbc:	4630      	mov	r0, r6
     bbe:	e8bd 8ffe 	ldmia.w	sp!, {r1, r2, r3, r4, r5, r6, r7, r8, r9, sl, fp, pc}
     bc2:	bf00      	nop
     bc4:	0000916e 	.word	0x0000916e
     bc8:	0000917f 	.word	0x0000917f

00000bcc <ulocaltime>:
    unsigned long ulTemp;

    //
    // Extract the number of seconds, converting time to the number of minutes.
    //
    ulTemp = ulTime / 60;
     bcc:	233c      	movs	r3, #60	; 0x3c
     bce:	fbb0 fcf3 	udiv	ip, r0, r3
    psTime->ucSec = ulTime - (ulTemp * 60);
     bd2:	fb03 001c 	mls	r0, r3, ip, r0
    ulTime = ulTemp;

    //
    // Extract the number of minutes, converting time to the number of hours.
    //
    ulTemp = ulTime / 60;
     bd6:	fbbc f2f3 	udiv	r2, ip, r3
    psTime->ucMin = ulTime - (ulTemp * 60);
     bda:	fb03 c312 	mls	r3, r3, r2, ip

    //
    // Extract the number of seconds, converting time to the number of minutes.
    //
    ulTemp = ulTime / 60;
    psTime->ucSec = ulTime - (ulTemp * 60);
     bde:	71c8      	strb	r0, [r1, #7]
    ulTime = ulTemp;

    //
    // Extract the number of hours, converting time to the number of days.
    //
    ulTemp = ulTime / 24;
     be0:	2018      	movs	r0, #24

    //
    // Extract the number of minutes, converting time to the number of hours.
    //
    ulTemp = ulTime / 60;
    psTime->ucMin = ulTime - (ulTemp * 60);
     be2:	718b      	strb	r3, [r1, #6]
    ulTime = ulTemp;

    //
    // Extract the number of hours, converting time to the number of days.
    //
    ulTemp = ulTime / 24;
     be4:	fbb2 f3f0 	udiv	r3, r2, r0
    psTime->ucHour = ulTime - (ulTemp * 24);
     be8:	fb00 2213 	mls	r2, r0, r3, r2
    ulTime = ulTemp;

    //
    // Compute the day of the week.
    //
    psTime->ucWday = (ulTime + 4) % 7;
     bec:	3811      	subs	r0, #17

    //
    // Extract the number of hours, converting time to the number of days.
    //
    ulTemp = ulTime / 24;
    psTime->ucHour = ulTime - (ulTemp * 24);
     bee:	714a      	strb	r2, [r1, #5]
    ulTime = ulTemp;

    //
    // Compute the day of the week.
    //
    psTime->ucWday = (ulTime + 4) % 7;
     bf0:	1d1a      	adds	r2, r3, #4
     bf2:	fbb2 f0f0 	udiv	r0, r2, r0
     bf6:	ea4f 0cc0 	mov.w	ip, r0, lsl #3
     bfa:	ebc0 000c 	rsb	r0, r0, ip

    //
    // Compute the number of leap years that have occurred since 1968, the
    // first leap year before 1970.
    //
    ulTime += 366 + 365;
     bfe:	f503 7336 	add.w	r3, r3, #728	; 0x2d8
     c02:	3303      	adds	r3, #3
    ulTime = ulTemp;

    //
    // Compute the day of the week.
    //
    psTime->ucWday = (ulTime + 4) % 7;
     c04:	1a12      	subs	r2, r2, r0
    //
    // Compute the number of leap years that have occurred since 1968, the
    // first leap year before 1970.
    //
    ulTime += 366 + 365;
    ulTemp = ulTime / ((4 * 365) + 1);
     c06:	f240 50b5 	movw	r0, #1461	; 0x5b5
    ulTime = ulTemp;

    //
    // Compute the day of the week.
    //
    psTime->ucWday = (ulTime + 4) % 7;
     c0a:	710a      	strb	r2, [r1, #4]
    //
    // Compute the number of leap years that have occurred since 1968, the
    // first leap year before 1970.
    //
    ulTime += 366 + 365;
    ulTemp = ulTime / ((4 * 365) + 1);
     c0c:	fbb3 f2f0 	udiv	r2, r3, r0
    if((ulTime - (ulTemp * ((4 * 365) + 1))) > (31 + 29))
     c10:	fb00 3012 	mls	r0, r0, r2, r3
     c14:	283c      	cmp	r0, #60	; 0x3c
    {
        ulTemp++;
     c16:	bf88      	it	hi
     c18:	3201      	addhi	r2, #1
    }

    //
    // Extract the year.
    //
    psTime->usYear = ((ulTime - ulTemp) / 365) + 1968;
     c1a:	1a98      	subs	r0, r3, r2
     c1c:	f240 1c6d 	movw	ip, #365	; 0x16d
     c20:	fbb0 f0fc 	udiv	r0, r0, ip
     c24:	f500 60f6 	add.w	r0, r0, #1968	; 0x7b0
     c28:	b280      	uxth	r0, r0
//! \return None.
//
//*****************************************************************************
void
ulocaltime(unsigned long ulTime, tTime *psTime)
{
     c2a:	b510      	push	{r4, lr}
    }

    //
    // Extract the year.
    //
    psTime->usYear = ((ulTime - ulTemp) / 365) + 1968;
     c2c:	0a04      	lsrs	r4, r0, #8
     c2e:	704c      	strb	r4, [r1, #1]
    ulTime -= ((psTime->usYear - 1968) * 365) + ulTemp;
     c30:	4c0d      	ldr	r4, [pc, #52]	; (c68 <ulocaltime+0x9c>)
    }

    //
    // Extract the year.
    //
    psTime->usYear = ((ulTime - ulTemp) / 365) + 1968;
     c32:	7008      	strb	r0, [r1, #0]
    ulTime -= ((psTime->usYear - 1968) * 365) + ulTemp;
     c34:	191c      	adds	r4, r3, r4
     c36:	1aa2      	subs	r2, r4, r2
     c38:	fb0c 2010 	mls	r0, ip, r0, r2
     c3c:	2300      	movs	r3, #0
    //
    // Extract the month.
    //
    for(ulTemp = 0; ulTemp < 12; ulTemp++)
    {
        if(g_psDaysToMonth[ulTemp] > ulTime)
     c3e:	4a0b      	ldr	r2, [pc, #44]	; (c6c <ulocaltime+0xa0>)
     c40:	f932 2013 	ldrsh.w	r2, [r2, r3, lsl #1]
     c44:	4282      	cmp	r2, r0
     c46:	d802      	bhi.n	c4e <ulocaltime+0x82>
    ulTime -= ((psTime->usYear - 1968) * 365) + ulTemp;

    //
    // Extract the month.
    //
    for(ulTemp = 0; ulTemp < 12; ulTemp++)
     c48:	3301      	adds	r3, #1
     c4a:	2b0c      	cmp	r3, #12
     c4c:	d1f7      	bne.n	c3e <ulocaltime+0x72>
        if(g_psDaysToMonth[ulTemp] > ulTime)
        {
            break;
        }
    }
    psTime->ucMon = ulTemp - 1;
     c4e:	1e5a      	subs	r2, r3, #1
     c50:	708a      	strb	r2, [r1, #2]

    //
    // Extract the day of the month.
    //
    psTime->ucMday = ulTime - g_psDaysToMonth[ulTemp - 1] + 1;
     c52:	f103 4300 	add.w	r3, r3, #2147483648	; 0x80000000
     c56:	4a05      	ldr	r2, [pc, #20]	; (c6c <ulocaltime+0xa0>)
     c58:	3b01      	subs	r3, #1
     c5a:	f812 3013 	ldrb.w	r3, [r2, r3, lsl #1]
     c5e:	3001      	adds	r0, #1
     c60:	1ac0      	subs	r0, r0, r3
     c62:	70c8      	strb	r0, [r1, #3]
}
     c64:	bd10      	pop	{r4, pc}
     c66:	bf00      	nop
     c68:	000af5f0 	.word	0x000af5f0
     c6c:	00009188 	.word	0x00009188

00000c70 <ustrtoul>:
//! \return Returns the result of the conversion.
//
//*****************************************************************************
unsigned long
ustrtoul(const char *pcStr, const char **ppcStrRet, int iBase)
{
     c70:	e92d 45f0 	stmdb	sp!, {r4, r5, r6, r7, r8, sl, lr}
     c74:	4603      	mov	r3, r0

    //
    // Skip past any leading white space.
    //
    pcPtr = pcStr;
    while((*pcPtr == ' ') || (*pcPtr == '\t'))
     c76:	e000      	b.n	c7a <ustrtoul+0xa>
    {
        pcPtr++;
     c78:	3001      	adds	r0, #1

    //
    // Skip past any leading white space.
    //
    pcPtr = pcStr;
    while((*pcPtr == ' ') || (*pcPtr == '\t'))
     c7a:	f990 c000 	ldrsb.w	ip, [r0]
     c7e:	f1bc 0f20 	cmp.w	ip, #32
     c82:	d0f9      	beq.n	c78 <ustrtoul+0x8>
     c84:	f1bc 0f09 	cmp.w	ip, #9
     c88:	d0f6      	beq.n	c78 <ustrtoul+0x8>
    }

    //
    // Take a leading + or - from the value.
    //
    if(*pcPtr == '-')
     c8a:	f1bc 0f2d 	cmp.w	ip, #45	; 0x2d
     c8e:	d102      	bne.n	c96 <ustrtoul+0x26>
    {
        ulNeg = 1;
        pcPtr++;
     c90:	3001      	adds	r0, #1
     c92:	2501      	movs	r5, #1
     c94:	e004      	b.n	ca0 <ustrtoul+0x30>
    }
    else if(*pcPtr == '+')
     c96:	f1bc 0f2b 	cmp.w	ip, #43	; 0x2b
    {
        pcPtr++;
     c9a:	bf08      	it	eq
     c9c:	3001      	addeq	r0, #1
     c9e:	2500      	movs	r5, #0

    //
    // See if the radix was not specified, or is 16, and the value starts with
    // "0x" or "0X" (to indicate a hex value).
    //
    if(((iBase == 0) || (iBase == 16)) && (*pcPtr == '0') &&
     ca0:	b10a      	cbz	r2, ca6 <ustrtoul+0x36>
     ca2:	2a10      	cmp	r2, #16
     ca4:	d113      	bne.n	cce <ustrtoul+0x5e>
     ca6:	f890 c000 	ldrb.w	ip, [r0]
     caa:	f1bc 0f30 	cmp.w	ip, #48	; 0x30
     cae:	d108      	bne.n	cc2 <ustrtoul+0x52>
     cb0:	f990 4001 	ldrsb.w	r4, [r0, #1]
     cb4:	2c78      	cmp	r4, #120	; 0x78
     cb6:	d001      	beq.n	cbc <ustrtoul+0x4c>
     cb8:	2c58      	cmp	r4, #88	; 0x58
     cba:	d102      	bne.n	cc2 <ustrtoul+0x52>
       ((pcPtr[1] == 'x') || (pcPtr[1] == 'X')))
    {
        //
        // Skip the leading "0x".
        //
        pcPtr += 2;
     cbc:	3002      	adds	r0, #2
     cbe:	2210      	movs	r2, #16
     cc0:	e005      	b.n	cce <ustrtoul+0x5e>
    }

    //
    // See if the radix was not specified.
    //
    if(iBase == 0)
     cc2:	b922      	cbnz	r2, cce <ustrtoul+0x5e>
    {
        //
        // See if the value starts with "0".
        //
        if(*pcPtr == '0')
     cc4:	f1bc 0f30 	cmp.w	ip, #48	; 0x30
     cc8:	bf0c      	ite	eq
     cca:	2208      	moveq	r2, #8
     ccc:	220a      	movne	r2, #10
     cce:	2700      	movs	r7, #0
     cd0:	1c44      	adds	r4, r0, #1
     cd2:	4638      	mov	r0, r7
    while(1)
    {
        //
        // See if this character is a number.
        //
        if((*pcPtr >= '0') && (*pcPtr <= '9'))
     cd4:	f814 cc01 	ldrb.w	ip, [r4, #-1]
    if(iBase == 0)
    {
        //
        // See if the value starts with "0".
        //
        if(*pcPtr == '0')
     cd8:	1e66      	subs	r6, r4, #1
    while(1)
    {
        //
        // See if this character is a number.
        //
        if((*pcPtr >= '0') && (*pcPtr <= '9'))
     cda:	fa5f f88c 	uxtb.w	r8, ip
     cde:	f1a8 0a30 	sub.w	sl, r8, #48	; 0x30
     ce2:	fa5f fa8a 	uxtb.w	sl, sl
     ce6:	f1ba 0f09 	cmp.w	sl, #9
     cea:	d804      	bhi.n	cf6 <ustrtoul+0x86>
        {
            //
            // Convert the character to its integer equivalent.
            //
            ulDigit = *pcPtr++ - '0';
     cec:	fa4f fc8c 	sxtb.w	ip, ip
     cf0:	f1ac 0c30 	sub.w	ip, ip, #48	; 0x30
     cf4:	e016      	b.n	d24 <ustrtoul+0xb4>
        }

        //
        // Otherwise, see if this character is an upper case letter.
        //
        else if((*pcPtr >= 'A') && (*pcPtr <= 'Z'))
     cf6:	f1a8 0a41 	sub.w	sl, r8, #65	; 0x41
     cfa:	fa5f fa8a 	uxtb.w	sl, sl
     cfe:	f1ba 0f19 	cmp.w	sl, #25
     d02:	d804      	bhi.n	d0e <ustrtoul+0x9e>
        {
            //
            // Convert the character to its integer equivalent.
            //
            ulDigit = *pcPtr++ - 'A' + 10;
     d04:	fa4f fc8c 	sxtb.w	ip, ip
     d08:	f1ac 0c37 	sub.w	ip, ip, #55	; 0x37
     d0c:	e00a      	b.n	d24 <ustrtoul+0xb4>
        }

        //
        // Otherwise, see if this character is a lower case letter.
        //
        else if((*pcPtr >= 'a') && (*pcPtr <= 'z'))
     d0e:	f1a8 0861 	sub.w	r8, r8, #97	; 0x61
     d12:	fa5f f888 	uxtb.w	r8, r8
     d16:	f1b8 0f19 	cmp.w	r8, #25
     d1a:	d80a      	bhi.n	d32 <ustrtoul+0xc2>
        {
            //
            // Convert the character to its integer equivalent.
            //
            ulDigit = *pcPtr++ - 'a' + 10;
     d1c:	fa4f fc8c 	sxtb.w	ip, ip
     d20:	f1ac 0c57 	sub.w	ip, ip, #87	; 0x57
        }

        //
        // See if this digit is valid for the chosen radix.
        //
        if(ulDigit >= iBase)
     d24:	3401      	adds	r4, #1
     d26:	4594      	cmp	ip, r2
     d28:	d203      	bcs.n	d32 <ustrtoul+0xc2>

        //
        // Add this digit to the converted value.
        //
        ulRet *= iBase;
        ulRet += ulDigit;
     d2a:	fb02 c000 	mla	r0, r2, r0, ip
     d2e:	2701      	movs	r7, #1

        //
        // Since a digit has been added, this is now a valid result.
        //
        ulValid = 1;
    }
     d30:	e7d0      	b.n	cd4 <ustrtoul+0x64>

    //
    // Set the return string pointer to the first character not consumed.
    //
    if(ppcStrRet)
     d32:	b119      	cbz	r1, d3c <ustrtoul+0xcc>
    {
        *ppcStrRet = ulValid ? pcPtr : pcStr;
     d34:	2f00      	cmp	r7, #0
     d36:	bf08      	it	eq
     d38:	461e      	moveq	r6, r3
     d3a:	600e      	str	r6, [r1, #0]
    }

    //
    // Return the converted value.
    //
    return(ulNeg ? (0 - ulRet) : ulRet);
     d3c:	b105      	cbz	r5, d40 <ustrtoul+0xd0>
     d3e:	4240      	negs	r0, r0
}
     d40:	e8bd 85f0 	ldmia.w	sp!, {r4, r5, r6, r7, r8, sl, pc}

00000d44 <GetVal>:

unsigned long GetVal(const char *pcStr, const char **ppcStrRet, int iBase)
{
     d44:	e92d 45f0 	stmdb	sp!, {r4, r5, r6, r7, r8, sl, lr}
     d48:	4603      	mov	r3, r0
    // Return the converted value.
    //
    return(ulNeg ? (0 - ulRet) : ulRet);
}

unsigned long GetVal(const char *pcStr, const char **ppcStrRet, int iBase)
     d4a:	f100 0c64 	add.w	ip, r0, #100	; 0x64
     d4e:	4604      	mov	r4, r0
    //
    pcPtr = pcStr;
    //while((*pcPtr == ' ') || (*pcPtr == '\t'))

    count = 0;
    while(*pcPtr != '=' && count < 100 && *pcPtr != 0)
     d50:	e000      	b.n	d54 <GetVal+0x10>
    {
    	pcPtr++;
     d52:	3401      	adds	r4, #1
    //
    pcPtr = pcStr;
    //while((*pcPtr == ' ') || (*pcPtr == '\t'))

    count = 0;
    while(*pcPtr != '=' && count < 100 && *pcPtr != 0)
     d54:	7820      	ldrb	r0, [r4, #0]
     d56:	283d      	cmp	r0, #61	; 0x3d
     d58:	d003      	beq.n	d62 <GetVal+0x1e>
     d5a:	4564      	cmp	r4, ip
     d5c:	d001      	beq.n	d62 <GetVal+0x1e>
     d5e:	2800      	cmp	r0, #0
     d60:	d1f7      	bne.n	d52 <GetVal+0xe>
    pcPtr++;

    //
    // Take a leading + or - from the value.
    //
    if(*pcPtr == '-')
     d62:	f994 c001 	ldrsb.w	ip, [r4, #1]
    {
    	pcPtr++;
    	count++;
    }

    pcPtr++;
     d66:	1c60      	adds	r0, r4, #1

    //
    // Take a leading + or - from the value.
    //
    if(*pcPtr == '-')
     d68:	f1bc 0f2d 	cmp.w	ip, #45	; 0x2d
     d6c:	d102      	bne.n	d74 <GetVal+0x30>
    {
        ulNeg = 1;
        pcPtr++;
     d6e:	3001      	adds	r0, #1
     d70:	2501      	movs	r5, #1
     d72:	e004      	b.n	d7e <GetVal+0x3a>
    }
    else if(*pcPtr == '+')
     d74:	f1bc 0f2b 	cmp.w	ip, #43	; 0x2b
    {
        pcPtr++;
     d78:	bf08      	it	eq
     d7a:	3001      	addeq	r0, #1
     d7c:	2500      	movs	r5, #0

    //
    // See if the radix was not specified, or is 16, and the value starts with
    // "0x" or "0X" (to indicate a hex value).
    //
    if(((iBase == 0) || (iBase == 16)) && (*pcPtr == '0') &&
     d7e:	b10a      	cbz	r2, d84 <GetVal+0x40>
     d80:	2a10      	cmp	r2, #16
     d82:	d113      	bne.n	dac <GetVal+0x68>
     d84:	f890 c000 	ldrb.w	ip, [r0]
     d88:	f1bc 0f30 	cmp.w	ip, #48	; 0x30
     d8c:	d108      	bne.n	da0 <GetVal+0x5c>
     d8e:	f990 4001 	ldrsb.w	r4, [r0, #1]
     d92:	2c78      	cmp	r4, #120	; 0x78
     d94:	d001      	beq.n	d9a <GetVal+0x56>
     d96:	2c58      	cmp	r4, #88	; 0x58
     d98:	d102      	bne.n	da0 <GetVal+0x5c>
       ((pcPtr[1] == 'x') || (pcPtr[1] == 'X')))
    {
        //
        // Skip the leading "0x".
        //
        pcPtr += 2;
     d9a:	3002      	adds	r0, #2
     d9c:	2210      	movs	r2, #16
     d9e:	e005      	b.n	dac <GetVal+0x68>
    }

    //
    // See if the radix was not specified.
    //
    if(iBase == 0)
     da0:	b922      	cbnz	r2, dac <GetVal+0x68>
    {
        //
        // See if the value starts with "0".
        //
        if(*pcPtr == '0')
     da2:	f1bc 0f30 	cmp.w	ip, #48	; 0x30
     da6:	bf0c      	ite	eq
     da8:	2208      	moveq	r2, #8
     daa:	220a      	movne	r2, #10
     dac:	2700      	movs	r7, #0
     dae:	1c44      	adds	r4, r0, #1
     db0:	4638      	mov	r0, r7
    while(1)
    {
        //
        // See if this character is a number.
        //
        if((*pcPtr >= '0') && (*pcPtr <= '9'))
     db2:	f814 cc01 	ldrb.w	ip, [r4, #-1]
    if(iBase == 0)
    {
        //
        // See if the value starts with "0".
        //
        if(*pcPtr == '0')
     db6:	1e66      	subs	r6, r4, #1
    while(1)
    {
        //
        // See if this character is a number.
        //
        if((*pcPtr >= '0') && (*pcPtr <= '9'))
     db8:	fa5f f88c 	uxtb.w	r8, ip
     dbc:	f1a8 0a30 	sub.w	sl, r8, #48	; 0x30
     dc0:	fa5f fa8a 	uxtb.w	sl, sl
     dc4:	f1ba 0f09 	cmp.w	sl, #9
     dc8:	d804      	bhi.n	dd4 <GetVal+0x90>
        {
            //
            // Convert the character to its integer equivalent.
            //
            ulDigit = *pcPtr++ - '0';
     dca:	fa4f fc8c 	sxtb.w	ip, ip
     dce:	f1ac 0c30 	sub.w	ip, ip, #48	; 0x30
     dd2:	e016      	b.n	e02 <GetVal+0xbe>
        }

        //
        // Otherwise, see if this character is an upper case letter.
        //
        else if((*pcPtr >= 'A') && (*pcPtr <= 'Z'))
     dd4:	f1a8 0a41 	sub.w	sl, r8, #65	; 0x41
     dd8:	fa5f fa8a 	uxtb.w	sl, sl
     ddc:	f1ba 0f19 	cmp.w	sl, #25
     de0:	d804      	bhi.n	dec <GetVal+0xa8>
        {
            //
            // Convert the character to its integer equivalent.
            //
            ulDigit = *pcPtr++ - 'A' + 10;
     de2:	fa4f fc8c 	sxtb.w	ip, ip
     de6:	f1ac 0c37 	sub.w	ip, ip, #55	; 0x37
     dea:	e00a      	b.n	e02 <GetVal+0xbe>
        }

        //
        // Otherwise, see if this character is a lower case letter.
        //
        else if((*pcPtr >= 'a') && (*pcPtr <= 'z'))
     dec:	f1a8 0861 	sub.w	r8, r8, #97	; 0x61
     df0:	fa5f f888 	uxtb.w	r8, r8
     df4:	f1b8 0f19 	cmp.w	r8, #25
     df8:	d80a      	bhi.n	e10 <GetVal+0xcc>
        {
            //
            // Convert the character to its integer equivalent.
            //
            ulDigit = *pcPtr++ - 'a' + 10;
     dfa:	fa4f fc8c 	sxtb.w	ip, ip
     dfe:	f1ac 0c57 	sub.w	ip, ip, #87	; 0x57
        }

        //
        // See if this digit is valid for the chosen radix.
        //
        if(ulDigit >= iBase)
     e02:	3401      	adds	r4, #1
     e04:	4594      	cmp	ip, r2
     e06:	d203      	bcs.n	e10 <GetVal+0xcc>

        //
        // Add this digit to the converted value.
        //
        ulRet *= iBase;
        ulRet += ulDigit;
     e08:	fb02 c000 	mla	r0, r2, r0, ip
     e0c:	2701      	movs	r7, #1

        //
        // Since a digit has been added, this is now a valid result.
        //
        ulValid = 1;
    }
     e0e:	e7d0      	b.n	db2 <GetVal+0x6e>

    //
    // Set the return string pointer to the first character not consumed.
    //
    if(ppcStrRet)
     e10:	b119      	cbz	r1, e1a <GetVal+0xd6>
    {
        *ppcStrRet = ulValid ? pcPtr : pcStr;
     e12:	2f00      	cmp	r7, #0
     e14:	bf08      	it	eq
     e16:	461e      	moveq	r6, r3
     e18:	600e      	str	r6, [r1, #0]
    }

    //
    // Return the converted value.
    //
    return(ulNeg ? (0 - ulRet) : ulRet);
     e1a:	b105      	cbz	r5, e1e <GetVal+0xda>
     e1c:	4240      	negs	r0, r0
}
     e1e:	e8bd 85f0 	ldmia.w	sp!, {r4, r5, r6, r7, r8, sl, pc}

00000e22 <ustrstr>:
//! \e pcHaystack or NULL if no match is found.
//
//*****************************************************************************
char *
ustrstr(const char *pcHaystack, const char *pcNeedle)
{
     e22:	b570      	push	{r4, r5, r6, lr}
     e24:	4604      	mov	r4, r0
    unsigned long ulLength;

    //
    // Get the length of the string to be found.
    //
    ulLength = strlen(pcNeedle);
     e26:	4608      	mov	r0, r1
//! \e pcHaystack or NULL if no match is found.
//
//*****************************************************************************
char *
ustrstr(const char *pcHaystack, const char *pcNeedle)
{
     e28:	460d      	mov	r5, r1
    unsigned long ulLength;

    //
    // Get the length of the string to be found.
    //
    ulLength = strlen(pcNeedle);
     e2a:	f7ff fd7b 	bl	924 <strlen>
     e2e:	4606      	mov	r6, r0

    //
    // Loop while we have not reached the end of the string.
    //
    while(*pcHaystack)
     e30:	e006      	b.n	e40 <ustrstr+0x1e>
    {
        //
        // Check to see if the substring appears at this position.
        //
        if(strncmp(pcNeedle, pcHaystack, ulLength) == 0)
     e32:	4628      	mov	r0, r5
     e34:	4621      	mov	r1, r4
     e36:	4632      	mov	r2, r6
     e38:	f7ff fd3c 	bl	8b4 <strncmp>
     e3c:	b128      	cbz	r0, e4a <ustrstr+0x28>
        }

        //
        // Move to the next position in the string being searched.
        //
        pcHaystack++;
     e3e:	3401      	adds	r4, #1
    ulLength = strlen(pcNeedle);

    //
    // Loop while we have not reached the end of the string.
    //
    while(*pcHaystack)
     e40:	f994 3000 	ldrsb.w	r3, [r4]
     e44:	2b00      	cmp	r3, #0
     e46:	d1f4      	bne.n	e32 <ustrstr+0x10>
     e48:	461c      	mov	r4, r3
    //
    // We reached the end of the string without finding the substring so
    // return NULL.
    //
    return((char *)0);
}
     e4a:	4620      	mov	r0, r4
     e4c:	bd70      	pop	{r4, r5, r6, pc}

00000e4e <usnprintf>:
//! buffer.
//
//*****************************************************************************
int
usnprintf(char *pcBuf, unsigned long ulSize, const char *pcString, ...)
{
     e4e:	b40c      	push	{r2, r3}
     e50:	b507      	push	{r0, r1, r2, lr}
     e52:	ab04      	add	r3, sp, #16
     e54:	f853 2b04 	ldr.w	r2, [r3], #4
    va_list vaArgP;

    //
    // Start the varargs processing.
    //
    va_start(vaArgP, pcString);
     e58:	9301      	str	r3, [sp, #4]

    //
    // Call vsnprintf to perform the conversion.
    //
    iRet = uvsnprintf(pcBuf, ulSize, pcString, vaArgP);
     e5a:	f7ff fd90 	bl	97e <uvsnprintf>

    //
    // Return the conversion count.
    //
    return(iRet);
}
     e5e:	e8bd 400e 	ldmia.w	sp!, {r1, r2, r3, lr}
     e62:	b002      	add	sp, #8
     e64:	4770      	bx	lr

00000e66 <usprintf>:
//! buffer, not including the NULL termination character.
//
//*****************************************************************************
int
usprintf(char *pcBuf, const char *pcString, ...)
{
     e66:	b40e      	push	{r1, r2, r3}
     e68:	b503      	push	{r0, r1, lr}
     e6a:	ab03      	add	r3, sp, #12
     e6c:	f853 2b04 	ldr.w	r2, [r3], #4

    //
    // Call vsnprintf to perform the conversion.  Use a large number for the
    // buffer size.
    //
    iRet = uvsnprintf(pcBuf, 0xffff, pcString, vaArgP);
     e70:	f64f 71ff 	movw	r1, #65535	; 0xffff
    int iRet;

    //
    // Start the varargs processing.
    //
    va_start(vaArgP, pcString);
     e74:	9301      	str	r3, [sp, #4]

    //
    // Call vsnprintf to perform the conversion.  Use a large number for the
    // buffer size.
    //
    iRet = uvsnprintf(pcBuf, 0xffff, pcString, vaArgP);
     e76:	f7ff fd82 	bl	97e <uvsnprintf>

    //
    // Return the conversion count.
    //
    return(iRet);
}
     e7a:	e8bd 400c 	ldmia.w	sp!, {r2, r3, lr}
     e7e:	b003      	add	sp, #12
     e80:	4770      	bx	lr
     e82:	bf00      	nop

00000e84 <Uart2_GetBytes>:
		}
	}
}

void Uart2_GetBytes(void)
{
     e84:	b538      	push	{r3, r4, r5, lr}
	long c;
	byte counter = 0;

	if (UARTCharsAvail(UART2_BASE) == true)
     e86:	4812      	ldr	r0, [pc, #72]	; (ed0 <Uart2_GetBytes+0x4c>)
     e88:	f007 f988 	bl	819c <UARTCharsAvail>
     e8c:	2801      	cmp	r0, #1
     e8e:	d11e      	bne.n	ece <Uart2_GetBytes+0x4a>
     e90:	2500      	movs	r5, #0
     e92:	e015      	b.n	ec0 <Uart2_GetBytes+0x3c>
	{
		while (UARTCharsAvail(UART2_BASE) == true && (counter++
				< UART_COUNT_READ))
		//if (UARTCharsAvail(UART2_BASE) == true)
		{
			c = UARTCharGetNonBlocking(UART2_BASE);
     e94:	480e      	ldr	r0, [pc, #56]	; (ed0 <Uart2_GetBytes+0x4c>)
     e96:	f007 f98f 	bl	81b8 <UARTCharGetNonBlocking>

			uart2_bufor[uart2_glowa++] = (byte) c;
     e9a:	4c0e      	ldr	r4, [pc, #56]	; (ed4 <Uart2_GetBytes+0x50>)
     e9c:	4a0e      	ldr	r2, [pc, #56]	; (ed8 <Uart2_GetBytes+0x54>)
     e9e:	8823      	ldrh	r3, [r4, #0]
     ea0:	b2c0      	uxtb	r0, r0
     ea2:	b29b      	uxth	r3, r3
     ea4:	54d0      	strb	r0, [r2, r3]
     ea6:	3301      	adds	r3, #1
     ea8:	b29b      	uxth	r3, r3
     eaa:	8023      	strh	r3, [r4, #0]

			LedSwitch();
     eac:	f000 fbf2 	bl	1694 <LedSwitch>

			if (uart2_glowa >= UART_BUFOR_SIZE)
     eb0:	8823      	ldrh	r3, [r4, #0]
     eb2:	f5b3 6f80 	cmp.w	r3, #1024	; 0x400
			{
				uart2_glowa = 0;
     eb6:	bf24      	itt	cs
     eb8:	2300      	movcs	r3, #0
     eba:	8023      	strhcs	r3, [r4, #0]
	long c;
	byte counter = 0;

	if (UARTCharsAvail(UART2_BASE) == true)
	{
		while (UARTCharsAvail(UART2_BASE) == true && (counter++
     ebc:	3501      	adds	r5, #1
     ebe:	b2ed      	uxtb	r5, r5
     ec0:	4803      	ldr	r0, [pc, #12]	; (ed0 <Uart2_GetBytes+0x4c>)
     ec2:	f007 f96b 	bl	819c <UARTCharsAvail>
     ec6:	2801      	cmp	r0, #1
     ec8:	d101      	bne.n	ece <Uart2_GetBytes+0x4a>
     eca:	2d20      	cmp	r5, #32
     ecc:	d1e2      	bne.n	e94 <Uart2_GetBytes+0x10>
     ece:	bd38      	pop	{r3, r4, r5, pc}
     ed0:	4000e000 	.word	0x4000e000
     ed4:	20000abc 	.word	0x20000abc
     ed8:	20000ac0 	.word	0x20000ac0

00000edc <Uart1_GetBytes>:
		}
	}
}

void Uart1_GetBytes(void)
{
     edc:	b538      	push	{r3, r4, r5, lr}
	long c;
	byte counter = 0;

	if (UARTCharsAvail(UART1_BASE) == true)
     ede:	4812      	ldr	r0, [pc, #72]	; (f28 <Uart1_GetBytes+0x4c>)
     ee0:	f007 f95c 	bl	819c <UARTCharsAvail>
     ee4:	2801      	cmp	r0, #1
     ee6:	d11e      	bne.n	f26 <Uart1_GetBytes+0x4a>
     ee8:	2500      	movs	r5, #0
     eea:	e015      	b.n	f18 <Uart1_GetBytes+0x3c>
	{
		while (UARTCharsAvail(UART1_BASE) == true && (counter++
				< UART_COUNT_READ))
		{
			c = UARTCharGetNonBlocking(UART1_BASE);
     eec:	480e      	ldr	r0, [pc, #56]	; (f28 <Uart1_GetBytes+0x4c>)
     eee:	f007 f963 	bl	81b8 <UARTCharGetNonBlocking>

			uart1_bufor[uart1_glowa++] = (byte) c;
     ef2:	4c0e      	ldr	r4, [pc, #56]	; (f2c <Uart1_GetBytes+0x50>)
     ef4:	4a0e      	ldr	r2, [pc, #56]	; (f30 <Uart1_GetBytes+0x54>)
     ef6:	8823      	ldrh	r3, [r4, #0]
     ef8:	b2c0      	uxtb	r0, r0
     efa:	b29b      	uxth	r3, r3
     efc:	54d0      	strb	r0, [r2, r3]
     efe:	3301      	adds	r3, #1
     f00:	b29b      	uxth	r3, r3
     f02:	8023      	strh	r3, [r4, #0]

			LedSwitch();
     f04:	f000 fbc6 	bl	1694 <LedSwitch>

			if (uart1_glowa >= UART_BUFOR_SIZE)
     f08:	8823      	ldrh	r3, [r4, #0]
     f0a:	f5b3 6f80 	cmp.w	r3, #1024	; 0x400
			{
				uart1_glowa = 0;
     f0e:	bf24      	itt	cs
     f10:	2300      	movcs	r3, #0
     f12:	8023      	strhcs	r3, [r4, #0]
	long c;
	byte counter = 0;

	if (UARTCharsAvail(UART1_BASE) == true)
	{
		while (UARTCharsAvail(UART1_BASE) == true && (counter++
     f14:	3501      	adds	r5, #1
     f16:	b2ed      	uxtb	r5, r5
     f18:	4803      	ldr	r0, [pc, #12]	; (f28 <Uart1_GetBytes+0x4c>)
     f1a:	f007 f93f 	bl	819c <UARTCharsAvail>
     f1e:	2801      	cmp	r0, #1
     f20:	d101      	bne.n	f26 <Uart1_GetBytes+0x4a>
     f22:	2d20      	cmp	r5, #32
     f24:	d1e2      	bne.n	eec <Uart1_GetBytes+0x10>
     f26:	bd38      	pop	{r3, r4, r5, pc}
     f28:	4000d000 	.word	0x4000d000
     f2c:	20000ab6 	.word	0x20000ab6
     f30:	200006b4 	.word	0x200006b4

00000f34 <Uart0_GetBytes>:

//*****************************************************************************
// Odbir danych z Uart'a do bufora
//*****************************************************************************
void Uart0_GetBytes(void)
{
     f34:	b538      	push	{r3, r4, r5, lr}
	long c;
	byte counter = 0;

	if (UARTCharsAvail(UART0_BASE) == true)
     f36:	4812      	ldr	r0, [pc, #72]	; (f80 <Uart0_GetBytes+0x4c>)
     f38:	f007 f930 	bl	819c <UARTCharsAvail>
     f3c:	2801      	cmp	r0, #1
     f3e:	d11e      	bne.n	f7e <Uart0_GetBytes+0x4a>
     f40:	2500      	movs	r5, #0
     f42:	e015      	b.n	f70 <Uart0_GetBytes+0x3c>
	{
		while (UARTCharsAvail(UART0_BASE) == true && (counter++
				< UART_COUNT_READ))
		{
			c = UARTCharGetNonBlocking(UART0_BASE);
     f44:	480e      	ldr	r0, [pc, #56]	; (f80 <Uart0_GetBytes+0x4c>)
     f46:	f007 f937 	bl	81b8 <UARTCharGetNonBlocking>

			uart0_bufor[uart0_glowa++] = (byte) c;
     f4a:	4c0e      	ldr	r4, [pc, #56]	; (f84 <Uart0_GetBytes+0x50>)
     f4c:	4a0e      	ldr	r2, [pc, #56]	; (f88 <Uart0_GetBytes+0x54>)
     f4e:	8823      	ldrh	r3, [r4, #0]
     f50:	b2c0      	uxtb	r0, r0
     f52:	b29b      	uxth	r3, r3
     f54:	54d0      	strb	r0, [r2, r3]
     f56:	3301      	adds	r3, #1
     f58:	b29b      	uxth	r3, r3
     f5a:	8023      	strh	r3, [r4, #0]

			LedSwitch();
     f5c:	f000 fb9a 	bl	1694 <LedSwitch>

			//Uart1_SendChar('x');

			if (uart0_glowa >= UART_BUFOR_SIZE)
     f60:	8823      	ldrh	r3, [r4, #0]
     f62:	f5b3 6f80 	cmp.w	r3, #1024	; 0x400
			{
				uart0_glowa = 0;
     f66:	bf24      	itt	cs
     f68:	2300      	movcs	r3, #0
     f6a:	8023      	strhcs	r3, [r4, #0]
	long c;
	byte counter = 0;

	if (UARTCharsAvail(UART0_BASE) == true)
	{
		while (UARTCharsAvail(UART0_BASE) == true && (counter++
     f6c:	3501      	adds	r5, #1
     f6e:	b2ed      	uxtb	r5, r5
     f70:	4803      	ldr	r0, [pc, #12]	; (f80 <Uart0_GetBytes+0x4c>)
     f72:	f007 f913 	bl	819c <UARTCharsAvail>
     f76:	2801      	cmp	r0, #1
     f78:	d101      	bne.n	f7e <Uart0_GetBytes+0x4a>
     f7a:	2d20      	cmp	r5, #32
     f7c:	d1e2      	bne.n	f44 <Uart0_GetBytes+0x10>
     f7e:	bd38      	pop	{r3, r4, r5, pc}
     f80:	4000c000 	.word	0x4000c000
     f84:	20000ec0 	.word	0x20000ec0
     f88:	200002b0 	.word	0x200002b0

00000f8c <Uart2_SendString>:

	GPIOPinWrite(GPIO_PORTG_BASE, GPIO_PIN_3, 0);
}

void Uart2_SendString(char *str)
{
     f8c:	b570      	push	{r4, r5, r6, lr}
     f8e:	4606      	mov	r6, r0
     f90:	2400      	movs	r4, #0
	word x = 0;

	while ((*str != '\n') && (*str != 0) && (x++ < MAX_UART_STRING))
     f92:	e002      	b.n	f9a <Uart2_SendString+0xe>
	{
		UARTCharPut(UART2_BASE, *str++);
     f94:	480c      	ldr	r0, [pc, #48]	; (fc8 <Uart2_SendString+0x3c>)
     f96:	f007 f926 	bl	81e6 <UARTCharPut>

void Uart2_SendString(char *str)
{
	word x = 0;

	while ((*str != '\n') && (*str != 0) && (x++ < MAX_UART_STRING))
     f9a:	5d31      	ldrb	r1, [r6, r4]
     f9c:	b24d      	sxtb	r5, r1
     f9e:	2d0a      	cmp	r5, #10
     fa0:	d006      	beq.n	fb0 <Uart2_SendString+0x24>
     fa2:	b179      	cbz	r1, fc4 <Uart2_SendString+0x38>
     fa4:	3401      	adds	r4, #1
     fa6:	f240 1301 	movw	r3, #257	; 0x101
     faa:	429c      	cmp	r4, r3
     fac:	d1f2      	bne.n	f94 <Uart2_SendString+0x8>
     fae:	bd70      	pop	{r4, r5, r6, pc}
		UARTCharPut(UART2_BASE, *str++);
	}

	if (*str == '\n')
	{
		UARTCharPut(UART2_BASE, '\r');
     fb0:	210d      	movs	r1, #13
     fb2:	4805      	ldr	r0, [pc, #20]	; (fc8 <Uart2_SendString+0x3c>)
     fb4:	f007 f917 	bl	81e6 <UARTCharPut>
		UARTCharPut(UART2_BASE, '\n');
     fb8:	4803      	ldr	r0, [pc, #12]	; (fc8 <Uart2_SendString+0x3c>)
     fba:	4629      	mov	r1, r5
	}
}
     fbc:	e8bd 4070 	ldmia.w	sp!, {r4, r5, r6, lr}
	}

	if (*str == '\n')
	{
		UARTCharPut(UART2_BASE, '\r');
		UARTCharPut(UART2_BASE, '\n');
     fc0:	f007 b911 	b.w	81e6 <UARTCharPut>
     fc4:	bd70      	pop	{r4, r5, r6, pc}
     fc6:	bf00      	nop
     fc8:	4000e000 	.word	0x4000e000

00000fcc <Uart0_SendString>:

//*****************************************************************************
// Wysya acuch na Uart'a
//*****************************************************************************
void Uart0_SendString(char *str)
{
     fcc:	b570      	push	{r4, r5, r6, lr}
     fce:	4606      	mov	r6, r0
     fd0:	2400      	movs	r4, #0
	word x = 0;

	while ((*str != '\n') && (*str != 0) && (x++ < MAX_UART_STRING))
     fd2:	e002      	b.n	fda <Uart0_SendString+0xe>
	{
		UARTCharPut(UART0_BASE, *str++);
     fd4:	480c      	ldr	r0, [pc, #48]	; (1008 <Uart0_SendString+0x3c>)
     fd6:	f007 f906 	bl	81e6 <UARTCharPut>
//*****************************************************************************
void Uart0_SendString(char *str)
{
	word x = 0;

	while ((*str != '\n') && (*str != 0) && (x++ < MAX_UART_STRING))
     fda:	5d31      	ldrb	r1, [r6, r4]
     fdc:	b24d      	sxtb	r5, r1
     fde:	2d0a      	cmp	r5, #10
     fe0:	d006      	beq.n	ff0 <Uart0_SendString+0x24>
     fe2:	b179      	cbz	r1, 1004 <Uart0_SendString+0x38>
     fe4:	3401      	adds	r4, #1
     fe6:	f240 1301 	movw	r3, #257	; 0x101
     fea:	429c      	cmp	r4, r3
     fec:	d1f2      	bne.n	fd4 <Uart0_SendString+0x8>
     fee:	bd70      	pop	{r4, r5, r6, pc}
		UARTCharPut(UART0_BASE, *str++);
	}

	if (*str == '\n')
	{
		UARTCharPut(UART0_BASE, '\r');
     ff0:	210d      	movs	r1, #13
     ff2:	4805      	ldr	r0, [pc, #20]	; (1008 <Uart0_SendString+0x3c>)
     ff4:	f007 f8f7 	bl	81e6 <UARTCharPut>
		UARTCharPut(UART0_BASE, '\n');
     ff8:	4803      	ldr	r0, [pc, #12]	; (1008 <Uart0_SendString+0x3c>)
     ffa:	4629      	mov	r1, r5
	}
}
     ffc:	e8bd 4070 	ldmia.w	sp!, {r4, r5, r6, lr}
	}

	if (*str == '\n')
	{
		UARTCharPut(UART0_BASE, '\r');
		UARTCharPut(UART0_BASE, '\n');
    1000:	f007 b8f1 	b.w	81e6 <UARTCharPut>
    1004:	bd70      	pop	{r4, r5, r6, pc}
    1006:	bf00      	nop
    1008:	4000c000 	.word	0x4000c000

0000100c <Uart2_SendBytes>:

	GPIOPinWrite(GPIO_PORTG_BASE, GPIO_PIN_3, 0);
}

void Uart2_SendBytes(byte *str, word length)
{
    100c:	b570      	push	{r4, r5, r6, lr}
    100e:	4606      	mov	r6, r0
    1010:	460d      	mov	r5, r1
    1012:	2400      	movs	r4, #0
	uint x;

	for (x = 0; x < length; x++)
    1014:	e004      	b.n	1020 <Uart2_SendBytes+0x14>
	{
		UARTCharPut(UART2_BASE, str[x]);
    1016:	5d31      	ldrb	r1, [r6, r4]
    1018:	4803      	ldr	r0, [pc, #12]	; (1028 <Uart2_SendBytes+0x1c>)
    101a:	f007 f8e4 	bl	81e6 <UARTCharPut>

void Uart2_SendBytes(byte *str, word length)
{
	uint x;

	for (x = 0; x < length; x++)
    101e:	3401      	adds	r4, #1
    1020:	42ac      	cmp	r4, r5
    1022:	d3f8      	bcc.n	1016 <Uart2_SendBytes+0xa>
	{
		UARTCharPut(UART2_BASE, str[x]);
	}
}
    1024:	bd70      	pop	{r4, r5, r6, pc}
    1026:	bf00      	nop
    1028:	4000e000 	.word	0x4000e000

0000102c <Uart0_SendBytes>:

//*****************************************************************************
// Wysya tablic o odpowiedniej dlugosci na Uart'a
//*****************************************************************************
void Uart0_SendBytes(byte *str, byte length)
{
    102c:	b570      	push	{r4, r5, r6, lr}
    102e:	4606      	mov	r6, r0
    1030:	460d      	mov	r5, r1
    1032:	2400      	movs	r4, #0
	byte x;

	for (x = 0; x < length; x++)
    1034:	e004      	b.n	1040 <Uart0_SendBytes+0x14>
	{
		UARTCharPut(UART0_BASE, str[x]);
    1036:	5d31      	ldrb	r1, [r6, r4]
    1038:	4803      	ldr	r0, [pc, #12]	; (1048 <Uart0_SendBytes+0x1c>)
    103a:	f007 f8d4 	bl	81e6 <UARTCharPut>
    103e:	3401      	adds	r4, #1
//*****************************************************************************
void Uart0_SendBytes(byte *str, byte length)
{
	byte x;

	for (x = 0; x < length; x++)
    1040:	b2e3      	uxtb	r3, r4
    1042:	42ab      	cmp	r3, r5
    1044:	d3f7      	bcc.n	1036 <Uart0_SendBytes+0xa>
	{
		UARTCharPut(UART0_BASE, str[x]);
	}
}
    1046:	bd70      	pop	{r4, r5, r6, pc}
    1048:	4000c000 	.word	0x4000c000

0000104c <Uart2_SendChar>:
	}
	GPIOPinWrite(GPIO_PORTG_BASE, GPIO_PIN_3, 0);
}
void Uart2_SendChar(char ch)
{
	UARTCharPut(UART2_BASE, ch);
    104c:	b2c1      	uxtb	r1, r0
    104e:	4801      	ldr	r0, [pc, #4]	; (1054 <Uart2_SendChar+0x8>)
    1050:	f007 b8c9 	b.w	81e6 <UARTCharPut>
    1054:	4000e000 	.word	0x4000e000

00001058 <Uart0_SendChar>:
//*****************************************************************************
// Wysya znak na Uart'a
//*****************************************************************************
void Uart0_SendChar(char ch)
{
	UARTCharPut(UART0_BASE, ch);
    1058:	b2c1      	uxtb	r1, r0
    105a:	4801      	ldr	r0, [pc, #4]	; (1060 <Uart0_SendChar+0x8>)
    105c:	f007 b8c3 	b.w	81e6 <UARTCharPut>
    1060:	4000c000 	.word	0x4000c000

00001064 <Uart1_SendString>:

void Uart1_SendString(char *str)
{
	word x = 0;

	GPIOPinWrite(GPIO_PORTG_BASE, GPIO_PIN_3, GPIO_PIN_3);
    1064:	2108      	movs	r1, #8
		UARTCharPut(UART0_BASE, '\n');
	}
}

void Uart1_SendString(char *str)
{
    1066:	b570      	push	{r4, r5, r6, lr}
	word x = 0;

	GPIOPinWrite(GPIO_PORTG_BASE, GPIO_PIN_3, GPIO_PIN_3);
    1068:	460a      	mov	r2, r1
		UARTCharPut(UART0_BASE, '\n');
	}
}

void Uart1_SendString(char *str)
{
    106a:	4604      	mov	r4, r0
	word x = 0;

	GPIOPinWrite(GPIO_PORTG_BASE, GPIO_PIN_3, GPIO_PIN_3);
    106c:	4813      	ldr	r0, [pc, #76]	; (10bc <Uart1_SendString+0x58>)
    106e:	f005 ff48 	bl	6f02 <GPIOPinWrite>
    1072:	2500      	movs	r5, #0

	while ((*str != '\n') && (*str != 0) && (x++ < MAX_UART_STRING))
    1074:	e002      	b.n	107c <Uart1_SendString+0x18>
	{
		UARTCharPut(UART1_BASE, *str++);
    1076:	4812      	ldr	r0, [pc, #72]	; (10c0 <Uart1_SendString+0x5c>)
    1078:	f007 f8b5 	bl	81e6 <UARTCharPut>
{
	word x = 0;

	GPIOPinWrite(GPIO_PORTG_BASE, GPIO_PIN_3, GPIO_PIN_3);

	while ((*str != '\n') && (*str != 0) && (x++ < MAX_UART_STRING))
    107c:	5d61      	ldrb	r1, [r4, r5]
    107e:	b24e      	sxtb	r6, r1
    1080:	2e0a      	cmp	r6, #10
    1082:	d006      	beq.n	1092 <Uart1_SendString+0x2e>
    1084:	b169      	cbz	r1, 10a2 <Uart1_SendString+0x3e>
    1086:	3501      	adds	r5, #1
    1088:	f240 1301 	movw	r3, #257	; 0x101
    108c:	429d      	cmp	r5, r3
    108e:	d1f2      	bne.n	1076 <Uart1_SendString+0x12>
    1090:	e007      	b.n	10a2 <Uart1_SendString+0x3e>
		UARTCharPut(UART1_BASE, *str++);
	}

	if (*str == '\n')
	{
		UARTCharPut(UART1_BASE, '\r');
    1092:	480b      	ldr	r0, [pc, #44]	; (10c0 <Uart1_SendString+0x5c>)
    1094:	210d      	movs	r1, #13
    1096:	f007 f8a6 	bl	81e6 <UARTCharPut>
		UARTCharPut(UART1_BASE, '\n');
    109a:	4809      	ldr	r0, [pc, #36]	; (10c0 <Uart1_SendString+0x5c>)
    109c:	4631      	mov	r1, r6
    109e:	f007 f8a2 	bl	81e6 <UARTCharPut>
	}

	while (UARTBusy(UART1_BASE))
    10a2:	4807      	ldr	r0, [pc, #28]	; (10c0 <Uart1_SendString+0x5c>)
    10a4:	f007 f8b1 	bl	820a <UARTBusy>
    10a8:	4602      	mov	r2, r0
    10aa:	2800      	cmp	r0, #0
    10ac:	d1f9      	bne.n	10a2 <Uart1_SendString+0x3e>
	{
	}

	GPIOPinWrite(GPIO_PORTG_BASE, GPIO_PIN_3, 0);
    10ae:	4803      	ldr	r0, [pc, #12]	; (10bc <Uart1_SendString+0x58>)
    10b0:	2108      	movs	r1, #8
}
    10b2:	e8bd 4070 	ldmia.w	sp!, {r4, r5, r6, lr}

	while (UARTBusy(UART1_BASE))
	{
	}

	GPIOPinWrite(GPIO_PORTG_BASE, GPIO_PIN_3, 0);
    10b6:	f005 bf24 	b.w	6f02 <GPIOPinWrite>
    10ba:	bf00      	nop
    10bc:	40026000 	.word	0x40026000
    10c0:	4000d000 	.word	0x4000d000

000010c4 <Uart1_SendBytes>:
		UARTCharPut(UART0_BASE, str[x]);
	}
}

void Uart1_SendBytes(byte *str, word length)
{
    10c4:	b570      	push	{r4, r5, r6, lr}
    10c6:	460c      	mov	r4, r1
	uint x;

	GPIOPinWrite(GPIO_PORTG_BASE, GPIO_PIN_3, GPIO_PIN_3);
    10c8:	2108      	movs	r1, #8
		UARTCharPut(UART0_BASE, str[x]);
	}
}

void Uart1_SendBytes(byte *str, word length)
{
    10ca:	4605      	mov	r5, r0
	uint x;

	GPIOPinWrite(GPIO_PORTG_BASE, GPIO_PIN_3, GPIO_PIN_3);
    10cc:	460a      	mov	r2, r1
    10ce:	480c      	ldr	r0, [pc, #48]	; (1100 <Uart1_SendBytes+0x3c>)
    10d0:	f005 ff17 	bl	6f02 <GPIOPinWrite>
    10d4:	2600      	movs	r6, #0

	for (x = 0; x < length; x++)
    10d6:	e004      	b.n	10e2 <Uart1_SendBytes+0x1e>
	{
		UARTCharPut(UART1_BASE, str[x]);
    10d8:	5da9      	ldrb	r1, [r5, r6]
    10da:	480a      	ldr	r0, [pc, #40]	; (1104 <Uart1_SendBytes+0x40>)
    10dc:	f007 f883 	bl	81e6 <UARTCharPut>
{
	uint x;

	GPIOPinWrite(GPIO_PORTG_BASE, GPIO_PIN_3, GPIO_PIN_3);

	for (x = 0; x < length; x++)
    10e0:	3601      	adds	r6, #1
    10e2:	42a6      	cmp	r6, r4
    10e4:	d3f8      	bcc.n	10d8 <Uart1_SendBytes+0x14>
	{
		UARTCharPut(UART1_BASE, str[x]);
	}
	while (UARTBusy(UART1_BASE))
    10e6:	4807      	ldr	r0, [pc, #28]	; (1104 <Uart1_SendBytes+0x40>)
    10e8:	f007 f88f 	bl	820a <UARTBusy>
    10ec:	4602      	mov	r2, r0
    10ee:	2800      	cmp	r0, #0
    10f0:	d1f9      	bne.n	10e6 <Uart1_SendBytes+0x22>
	{
	}

	GPIOPinWrite(GPIO_PORTG_BASE, GPIO_PIN_3, 0);
    10f2:	4803      	ldr	r0, [pc, #12]	; (1100 <Uart1_SendBytes+0x3c>)
    10f4:	2108      	movs	r1, #8
}
    10f6:	e8bd 4070 	ldmia.w	sp!, {r4, r5, r6, lr}
	}
	while (UARTBusy(UART1_BASE))
	{
	}

	GPIOPinWrite(GPIO_PORTG_BASE, GPIO_PIN_3, 0);
    10fa:	f005 bf02 	b.w	6f02 <GPIOPinWrite>
    10fe:	bf00      	nop
    1100:	40026000 	.word	0x40026000
    1104:	4000d000 	.word	0x4000d000

00001108 <Uart1_SendChar>:
{
	UARTCharPut(UART0_BASE, ch);
}
void Uart1_SendChar(char ch)
{
	GPIOPinWrite(GPIO_PORTG_BASE, GPIO_PIN_3, GPIO_PIN_3);
    1108:	2108      	movs	r1, #8
void Uart0_SendChar(char ch)
{
	UARTCharPut(UART0_BASE, ch);
}
void Uart1_SendChar(char ch)
{
    110a:	b510      	push	{r4, lr}
	GPIOPinWrite(GPIO_PORTG_BASE, GPIO_PIN_3, GPIO_PIN_3);
    110c:	460a      	mov	r2, r1
void Uart0_SendChar(char ch)
{
	UARTCharPut(UART0_BASE, ch);
}
void Uart1_SendChar(char ch)
{
    110e:	4604      	mov	r4, r0
	GPIOPinWrite(GPIO_PORTG_BASE, GPIO_PIN_3, GPIO_PIN_3);
    1110:	4809      	ldr	r0, [pc, #36]	; (1138 <Uart1_SendChar+0x30>)
    1112:	f005 fef6 	bl	6f02 <GPIOPinWrite>

	UARTCharPut(UART1_BASE, ch);
    1116:	4809      	ldr	r0, [pc, #36]	; (113c <Uart1_SendChar+0x34>)
    1118:	b2e1      	uxtb	r1, r4
    111a:	f007 f864 	bl	81e6 <UARTCharPut>

	while (UARTBusy(UART1_BASE))
    111e:	4807      	ldr	r0, [pc, #28]	; (113c <Uart1_SendChar+0x34>)
    1120:	f007 f873 	bl	820a <UARTBusy>
    1124:	4602      	mov	r2, r0
    1126:	2800      	cmp	r0, #0
    1128:	d1f9      	bne.n	111e <Uart1_SendChar+0x16>
	{
	}
	GPIOPinWrite(GPIO_PORTG_BASE, GPIO_PIN_3, 0);
    112a:	4803      	ldr	r0, [pc, #12]	; (1138 <Uart1_SendChar+0x30>)
    112c:	2108      	movs	r1, #8
}
    112e:	e8bd 4010 	ldmia.w	sp!, {r4, lr}
	UARTCharPut(UART1_BASE, ch);

	while (UARTBusy(UART1_BASE))
	{
	}
	GPIOPinWrite(GPIO_PORTG_BASE, GPIO_PIN_3, 0);
    1132:	f005 bee6 	b.w	6f02 <GPIOPinWrite>
    1136:	bf00      	nop
    1138:	40026000 	.word	0x40026000
    113c:	4000d000 	.word	0x4000d000

00001140 <Uarts_Init>:
// Inicjacja UARTw
//*****************************************************************************

void Uarts_Init(void)
{
	uart0_ogon = uart0_glowa = uart1_ogon = uart1_glowa = uart2_ogon
    1140:	4b38      	ldr	r3, [pc, #224]	; (1224 <Uarts_Init+0xe4>)
//*****************************************************************************
// Inicjacja UARTw
//*****************************************************************************

void Uarts_Init(void)
{
    1142:	b510      	push	{r4, lr}
	uart0_ogon = uart0_glowa = uart1_ogon = uart1_glowa = uart2_ogon
    1144:	2400      	movs	r4, #0
    1146:	801c      	strh	r4, [r3, #0]
			= uart2_glowa = 0;
    1148:	881a      	ldrh	r2, [r3, #0]
// Inicjacja UARTw
//*****************************************************************************

void Uarts_Init(void)
{
	uart0_ogon = uart0_glowa = uart1_ogon = uart1_glowa = uart2_ogon
    114a:	4b37      	ldr	r3, [pc, #220]	; (1228 <Uarts_Init+0xe8>)
			= uart2_glowa = 0;
    114c:	b292      	uxth	r2, r2
// Inicjacja UARTw
//*****************************************************************************

void Uarts_Init(void)
{
	uart0_ogon = uart0_glowa = uart1_ogon = uart1_glowa = uart2_ogon
    114e:	801a      	strh	r2, [r3, #0]
			= uart2_glowa = 0;
    1150:	881a      	ldrh	r2, [r3, #0]
// Inicjacja UARTw
//*****************************************************************************

void Uarts_Init(void)
{
	uart0_ogon = uart0_glowa = uart1_ogon = uart1_glowa = uart2_ogon
    1152:	4b36      	ldr	r3, [pc, #216]	; (122c <Uarts_Init+0xec>)
			= uart2_glowa = 0;
    1154:	b292      	uxth	r2, r2
// Inicjacja UARTw
//*****************************************************************************

void Uarts_Init(void)
{
	uart0_ogon = uart0_glowa = uart1_ogon = uart1_glowa = uart2_ogon
    1156:	801a      	strh	r2, [r3, #0]
    1158:	881a      	ldrh	r2, [r3, #0]
    115a:	4b35      	ldr	r3, [pc, #212]	; (1230 <Uarts_Init+0xf0>)
    115c:	b292      	uxth	r2, r2
    115e:	801a      	strh	r2, [r3, #0]
    1160:	881a      	ldrh	r2, [r3, #0]
    1162:	4b34      	ldr	r3, [pc, #208]	; (1234 <Uarts_Init+0xf4>)
    1164:	b292      	uxth	r2, r2
    1166:	801a      	strh	r2, [r3, #0]
    1168:	881a      	ldrh	r2, [r3, #0]
    116a:	4b33      	ldr	r3, [pc, #204]	; (1238 <Uarts_Init+0xf8>)
    116c:	b292      	uxth	r2, r2
    116e:	801a      	strh	r2, [r3, #0]
			= uart2_glowa = 0;
	uart0_bufor_przepelnienie = uart1_bufor_przepelnienie
    1170:	4b32      	ldr	r3, [pc, #200]	; (123c <Uarts_Init+0xfc>)
			= uart2_bufor_przepelnienie = 0;

	// Konfiguracja pinw
	GPIOPinTypeUART(GPIO_PORTA_BASE, GPIO_PIN_0 | GPIO_PIN_1);
    1172:	2103      	movs	r1, #3

void Uarts_Init(void)
{
	uart0_ogon = uart0_glowa = uart1_ogon = uart1_glowa = uart2_ogon
			= uart2_glowa = 0;
	uart0_bufor_przepelnienie = uart1_bufor_przepelnienie
    1174:	801c      	strh	r4, [r3, #0]
    1176:	4b32      	ldr	r3, [pc, #200]	; (1240 <Uarts_Init+0x100>)
			= uart2_bufor_przepelnienie = 0;

	// Konfiguracja pinw
	GPIOPinTypeUART(GPIO_PORTA_BASE, GPIO_PIN_0 | GPIO_PIN_1);
    1178:	4832      	ldr	r0, [pc, #200]	; (1244 <Uarts_Init+0x104>)

void Uarts_Init(void)
{
	uart0_ogon = uart0_glowa = uart1_ogon = uart1_glowa = uart2_ogon
			= uart2_glowa = 0;
	uart0_bufor_przepelnienie = uart1_bufor_przepelnienie
    117a:	801c      	strh	r4, [r3, #0]
    117c:	4b32      	ldr	r3, [pc, #200]	; (1248 <Uarts_Init+0x108>)
    117e:	801c      	strh	r4, [r3, #0]
			= uart2_bufor_przepelnienie = 0;

	// Konfiguracja pinw
	GPIOPinTypeUART(GPIO_PORTA_BASE, GPIO_PIN_0 | GPIO_PIN_1);
    1180:	f005 ff46 	bl	7010 <GPIOPinTypeUART>
	GPIOPinTypeUART(GPIO_PORTD_BASE, GPIO_PIN_2 | GPIO_PIN_3);
    1184:	210c      	movs	r1, #12
    1186:	4831      	ldr	r0, [pc, #196]	; (124c <Uarts_Init+0x10c>)
    1188:	f005 ff42 	bl	7010 <GPIOPinTypeUART>
	GPIOPinTypeUART(GPIO_PORTG_BASE, GPIO_PIN_0 | GPIO_PIN_1);
    118c:	2103      	movs	r1, #3
    118e:	4830      	ldr	r0, [pc, #192]	; (1250 <Uarts_Init+0x110>)
    1190:	f005 ff3e 	bl	7010 <GPIOPinTypeUART>
	// Inicjacja wyjcia dla nadawania RS485
	GPIOPinTypeGPIOOutput(GPIO_PORTG_BASE, GPIO_PIN_3);
    1194:	2108      	movs	r1, #8
    1196:	482e      	ldr	r0, [pc, #184]	; (1250 <Uarts_Init+0x110>)
    1198:	f005 feea 	bl	6f70 <GPIOPinTypeGPIOOutput>
	GPIOPadConfigSet(GPIO_PORTG_BASE, GPIO_PIN_3, GPIO_STRENGTH_2MA,
    119c:	2108      	movs	r1, #8
    119e:	460b      	mov	r3, r1
    11a0:	2201      	movs	r2, #1
    11a2:	482b      	ldr	r0, [pc, #172]	; (1250 <Uarts_Init+0x110>)
    11a4:	f005 fdd8 	bl	6d58 <GPIOPadConfigSet>
			GPIO_PIN_TYPE_STD);
	GPIOPinWrite(GPIO_PORTG_BASE, GPIO_PIN_3, 0);
    11a8:	2108      	movs	r1, #8
    11aa:	4622      	mov	r2, r4
    11ac:	4828      	ldr	r0, [pc, #160]	; (1250 <Uarts_Init+0x110>)
    11ae:	f005 fea8 	bl	6f02 <GPIOPinWrite>

	// ******************************* UART 0 ******************************************
	// STDIO na RS232
	SysCtlPeripheralEnable(SYSCTL_PERIPH_UART0);
    11b2:	4828      	ldr	r0, [pc, #160]	; (1254 <Uarts_Init+0x114>)
    11b4:	f006 fa3a 	bl	762c <SysCtlPeripheralEnable>
	UARTConfigSetExpClk(UART0_BASE, SysCtlClockGet(), uart0_baud,
    11b8:	f006 fbb6 	bl	7928 <SysCtlClockGet>
    11bc:	2360      	movs	r3, #96	; 0x60
    11be:	4601      	mov	r1, r0
    11c0:	f44f 32e1 	mov.w	r2, #115200	; 0x1c200
    11c4:	4824      	ldr	r0, [pc, #144]	; (1258 <Uarts_Init+0x118>)
    11c6:	f006 ff70 	bl	80aa <UARTConfigSetExpClk>
			(UART_CONFIG_WLEN_8 | UART_CONFIG_STOP_ONE | UART_CONFIG_PAR_NONE));
	UARTFIFOEnable(UART0_BASE);
    11ca:	4823      	ldr	r0, [pc, #140]	; (1258 <Uarts_Init+0x118>)
    11cc:	f006 ff92 	bl	80f4 <UARTFIFOEnable>
	UARTEnable(UART0_BASE);
    11d0:	4821      	ldr	r0, [pc, #132]	; (1258 <Uarts_Init+0x118>)
    11d2:	f006 ff50 	bl	8076 <UARTEnable>

	// ******************************* UART 1 ******************************************
	// RS485
	SysCtlPeripheralEnable(SYSCTL_PERIPH_UART1);
    11d6:	4821      	ldr	r0, [pc, #132]	; (125c <Uarts_Init+0x11c>)
    11d8:	f006 fa28 	bl	762c <SysCtlPeripheralEnable>
	UARTConfigSetExpClk(UART1_BASE, SysCtlClockGet(), uart1_baud,
    11dc:	f006 fba4 	bl	7928 <SysCtlClockGet>
    11e0:	2360      	movs	r3, #96	; 0x60
    11e2:	4601      	mov	r1, r0
    11e4:	f44f 32e1 	mov.w	r2, #115200	; 0x1c200
    11e8:	481d      	ldr	r0, [pc, #116]	; (1260 <Uarts_Init+0x120>)
    11ea:	f006 ff5e 	bl	80aa <UARTConfigSetExpClk>
			(UART_CONFIG_WLEN_8 | UART_CONFIG_STOP_ONE | UART_CONFIG_PAR_NONE));
	UARTFIFOEnable(UART1_BASE);
    11ee:	481c      	ldr	r0, [pc, #112]	; (1260 <Uarts_Init+0x120>)
    11f0:	f006 ff80 	bl	80f4 <UARTFIFOEnable>
	UARTEnable(UART1_BASE);
    11f4:	481a      	ldr	r0, [pc, #104]	; (1260 <Uarts_Init+0x120>)
    11f6:	f006 ff3e 	bl	8076 <UARTEnable>

	// ******************************* UART 2 ******************************************
	// RS422
	SysCtlPeripheralEnable(SYSCTL_PERIPH_UART2);
    11fa:	481a      	ldr	r0, [pc, #104]	; (1264 <Uarts_Init+0x124>)
    11fc:	f006 fa16 	bl	762c <SysCtlPeripheralEnable>
	UARTConfigSetExpClk(UART2_BASE, SysCtlClockGet(), uart2_baud,
    1200:	f006 fb92 	bl	7928 <SysCtlClockGet>
    1204:	f44f 32e1 	mov.w	r2, #115200	; 0x1c200
    1208:	4601      	mov	r1, r0
    120a:	2360      	movs	r3, #96	; 0x60
    120c:	4816      	ldr	r0, [pc, #88]	; (1268 <Uarts_Init+0x128>)
    120e:	f006 ff4c 	bl	80aa <UARTConfigSetExpClk>
			(UART_CONFIG_WLEN_8 | UART_CONFIG_STOP_ONE | UART_CONFIG_PAR_NONE));
	UARTFIFOEnable(UART2_BASE);
    1212:	4815      	ldr	r0, [pc, #84]	; (1268 <Uarts_Init+0x128>)
    1214:	f006 ff6e 	bl	80f4 <UARTFIFOEnable>
	UARTEnable(UART2_BASE);
    1218:	4813      	ldr	r0, [pc, #76]	; (1268 <Uarts_Init+0x128>)
}
    121a:	e8bd 4010 	ldmia.w	sp!, {r4, lr}
	// RS422
	SysCtlPeripheralEnable(SYSCTL_PERIPH_UART2);
	UARTConfigSetExpClk(UART2_BASE, SysCtlClockGet(), uart2_baud,
			(UART_CONFIG_WLEN_8 | UART_CONFIG_STOP_ONE | UART_CONFIG_PAR_NONE));
	UARTFIFOEnable(UART2_BASE);
	UARTEnable(UART2_BASE);
    121e:	f006 bf2a 	b.w	8076 <UARTEnable>
    1222:	bf00      	nop
    1224:	20000abc 	.word	0x20000abc
    1228:	20000ec2 	.word	0x20000ec2
    122c:	20000ab6 	.word	0x20000ab6
    1230:	200002ac 	.word	0x200002ac
    1234:	20000ec0 	.word	0x20000ec0
    1238:	20000ab8 	.word	0x20000ab8
    123c:	20000aba 	.word	0x20000aba
    1240:	20000ab4 	.word	0x20000ab4
    1244:	40004000 	.word	0x40004000
    1248:	200006b0 	.word	0x200006b0
    124c:	40007000 	.word	0x40007000
    1250:	40026000 	.word	0x40026000
    1254:	10000001 	.word	0x10000001
    1258:	4000c000 	.word	0x4000c000
    125c:	10000002 	.word	0x10000002
    1260:	4000d000 	.word	0x4000d000
    1264:	10000004 	.word	0x10000004
    1268:	4000e000 	.word	0x4000e000

0000126c <SPI_EmptyFIFO>:
void SPI_EmptyFIFO()
{
	unsigned int x;
	unsigned long dummy;

	while (HWREG(SSI1_BASE + SSI_O_SR) & SSI_SR_RNE)
    126c:	e001      	b.n	1272 <SPI_EmptyFIFO+0x6>
	{
		dummy = HWREG(SSI1_BASE + SSI_O_DR);
    126e:	4b06      	ldr	r3, [pc, #24]	; (1288 <SPI_EmptyFIFO+0x1c>)
    1270:	681b      	ldr	r3, [r3, #0]
void SPI_EmptyFIFO()
{
	unsigned int x;
	unsigned long dummy;

	while (HWREG(SSI1_BASE + SSI_O_SR) & SSI_SR_RNE)
    1272:	4b06      	ldr	r3, [pc, #24]	; (128c <SPI_EmptyFIFO+0x20>)
    1274:	681b      	ldr	r3, [r3, #0]
    1276:	f013 0304 	ands.w	r3, r3, #4
    127a:	d1f8      	bne.n	126e <SPI_EmptyFIFO+0x2>
		dummy = HWREG(SSI1_BASE + SSI_O_DR);
	}

	for (x = 0; x < 8; x++)
	{
		dummy = HWREG(SSI1_BASE + SSI_O_DR);
    127c:	4a02      	ldr	r2, [pc, #8]	; (1288 <SPI_EmptyFIFO+0x1c>)
	while (HWREG(SSI1_BASE + SSI_O_SR) & SSI_SR_RNE)
	{
		dummy = HWREG(SSI1_BASE + SSI_O_DR);
	}

	for (x = 0; x < 8; x++)
    127e:	3301      	adds	r3, #1
    1280:	2b08      	cmp	r3, #8
	{
		dummy = HWREG(SSI1_BASE + SSI_O_DR);
    1282:	6812      	ldr	r2, [r2, #0]
	while (HWREG(SSI1_BASE + SSI_O_SR) & SSI_SR_RNE)
	{
		dummy = HWREG(SSI1_BASE + SSI_O_DR);
	}

	for (x = 0; x < 8; x++)
    1284:	d1fa      	bne.n	127c <SPI_EmptyFIFO+0x10>
	{
		dummy = HWREG(SSI1_BASE + SSI_O_DR);
	}
}
    1286:	4770      	bx	lr
    1288:	40009008 	.word	0x40009008
    128c:	4000900c 	.word	0x4000900c

00001290 <Status>:
	else
		GPIOPinWrite(GPIO_PORTF_BASE, GPIO_PIN_7, 0);
}

char Status(void)
{
    1290:	b508      	push	{r3, lr}
	char x;

	x = GPIOPinRead(GPIO_PORTF_BASE, GPIO_PIN_4);
    1292:	2110      	movs	r1, #16
    1294:	4804      	ldr	r0, [pc, #16]	; (12a8 <Status+0x18>)
    1296:	f005 fe31 	bl	6efc <GPIOPinRead>
    129a:	b240      	sxtb	r0, r0

	if (x > 0)
		return 1;
	else
		return 0;
}
    129c:	2800      	cmp	r0, #0
    129e:	bfd4      	ite	le
    12a0:	2000      	movle	r0, #0
    12a2:	2001      	movgt	r0, #1
    12a4:	bd08      	pop	{r3, pc}
    12a6:	bf00      	nop
    12a8:	40025000 	.word	0x40025000

000012ac <GetHard_Q17>:
{
	GPIOPinWrite(GPIO_PORTB_BASE, GPIO_PIN_4, 0);
}

unsigned char GetHard_Q17(void)
{
    12ac:	b508      	push	{r3, lr}
	return GPIOPinRead(GPIO_PORTB_BASE, GPIO_PIN_4) << 3;
    12ae:	2110      	movs	r1, #16
    12b0:	4803      	ldr	r0, [pc, #12]	; (12c0 <GetHard_Q17+0x14>)
    12b2:	f005 fe23 	bl	6efc <GPIOPinRead>
    12b6:	00c0      	lsls	r0, r0, #3
}
    12b8:	f000 00f8 	and.w	r0, r0, #248	; 0xf8
    12bc:	bd08      	pop	{r3, pc}
    12be:	bf00      	nop
    12c0:	40005000 	.word	0x40005000

000012c4 <GetHard_Q16>:
{
	GPIOPinWrite(GPIO_PORTB_BASE, GPIO_PIN_5, 0);
}

unsigned char GetHard_Q16(void)
{
    12c4:	b508      	push	{r3, lr}
	return GPIOPinRead(GPIO_PORTB_BASE, GPIO_PIN_5) << 1;
    12c6:	2120      	movs	r1, #32
    12c8:	4803      	ldr	r0, [pc, #12]	; (12d8 <GetHard_Q16+0x14>)
    12ca:	f005 fe17 	bl	6efc <GPIOPinRead>
    12ce:	0040      	lsls	r0, r0, #1
}
    12d0:	f000 00fe 	and.w	r0, r0, #254	; 0xfe
    12d4:	bd08      	pop	{r3, pc}
    12d6:	bf00      	nop
    12d8:	40005000 	.word	0x40005000

000012dc <GetHard_Q15>:
{
	GPIOPinWrite(GPIO_PORTB_BASE, GPIO_PIN_6, 0);
}

unsigned char GetHard_Q15(void)
{
    12dc:	b508      	push	{r3, lr}
	return GPIOPinRead(GPIO_PORTB_BASE, GPIO_PIN_6) >> 1;
    12de:	2140      	movs	r1, #64	; 0x40
    12e0:	4802      	ldr	r0, [pc, #8]	; (12ec <GetHard_Q15+0x10>)
    12e2:	f005 fe0b 	bl	6efc <GPIOPinRead>
    12e6:	0840      	lsrs	r0, r0, #1
}
    12e8:	b2c0      	uxtb	r0, r0
    12ea:	bd08      	pop	{r3, pc}
    12ec:	40005000 	.word	0x40005000

000012f0 <GetHard_Q14>:
{
	GPIOPinWrite(GPIO_PORTH_BASE, GPIO_PIN_2, 0);
}

unsigned char GetHard_Q14(void)
{
    12f0:	b508      	push	{r3, lr}
	return GPIOPinRead(GPIO_PORTH_BASE, GPIO_PIN_2) << 2;
    12f2:	2104      	movs	r1, #4
    12f4:	4803      	ldr	r0, [pc, #12]	; (1304 <GetHard_Q14+0x14>)
    12f6:	f005 fe01 	bl	6efc <GPIOPinRead>
    12fa:	0080      	lsls	r0, r0, #2
}
    12fc:	f000 00fc 	and.w	r0, r0, #252	; 0xfc
    1300:	bd08      	pop	{r3, pc}
    1302:	bf00      	nop
    1304:	40027000 	.word	0x40027000

00001308 <GetHard_Q13>:
{
	GPIOPinWrite(GPIO_PORTH_BASE, GPIO_PIN_3, 0);
}

unsigned char GetHard_Q13(void)
{
    1308:	b508      	push	{r3, lr}
	return GPIOPinRead(GPIO_PORTH_BASE, GPIO_PIN_3) >> 0;
    130a:	2108      	movs	r1, #8
    130c:	4802      	ldr	r0, [pc, #8]	; (1318 <GetHard_Q13+0x10>)
    130e:	f005 fdf5 	bl	6efc <GPIOPinRead>
}
    1312:	b2c0      	uxtb	r0, r0
    1314:	bd08      	pop	{r3, pc}
    1316:	bf00      	nop
    1318:	40027000 	.word	0x40027000

0000131c <GetHard_Q12>:
{
	GPIOPinWrite(GPIO_PORTF_BASE, GPIO_PIN_5, 0);
}

unsigned char GetHard_Q12(void)
{
    131c:	b508      	push	{r3, lr}
	return GPIOPinRead(GPIO_PORTF_BASE, GPIO_PIN_5) >> 3;
    131e:	2120      	movs	r1, #32
    1320:	4802      	ldr	r0, [pc, #8]	; (132c <GetHard_Q12+0x10>)
    1322:	f005 fdeb 	bl	6efc <GPIOPinRead>
    1326:	08c0      	lsrs	r0, r0, #3
}
    1328:	b2c0      	uxtb	r0, r0
    132a:	bd08      	pop	{r3, pc}
    132c:	40025000 	.word	0x40025000

00001330 <GetHard_Q11>:
{
	GPIOPinWrite(GPIO_PORTG_BASE, GPIO_PIN_4, 0);
}

unsigned char GetHard_Q11(void)
{
    1330:	b508      	push	{r3, lr}
	return GPIOPinRead(GPIO_PORTG_BASE, GPIO_PIN_4) >> 3;
    1332:	2110      	movs	r1, #16
    1334:	4802      	ldr	r0, [pc, #8]	; (1340 <GetHard_Q11+0x10>)
    1336:	f005 fde1 	bl	6efc <GPIOPinRead>
    133a:	08c0      	lsrs	r0, r0, #3
}
    133c:	b2c0      	uxtb	r0, r0
    133e:	bd08      	pop	{r3, pc}
    1340:	40026000 	.word	0x40026000

00001344 <GetHard_Q10>:
{
	GPIOPinWrite(GPIO_PORTB_BASE, GPIO_PIN_1, 0);
}

unsigned char GetHard_Q10(void)
{
    1344:	b508      	push	{r3, lr}
	return GPIOPinRead(GPIO_PORTB_BASE, GPIO_PIN_1) >> 1;
    1346:	2102      	movs	r1, #2
    1348:	4802      	ldr	r0, [pc, #8]	; (1354 <GetHard_Q10+0x10>)
    134a:	f005 fdd7 	bl	6efc <GPIOPinRead>
    134e:	0840      	lsrs	r0, r0, #1
}
    1350:	b2c0      	uxtb	r0, r0
    1352:	bd08      	pop	{r3, pc}
    1354:	40005000 	.word	0x40005000

00001358 <GetHard_Q1>:
	return GetHard_Q00() + GetHard_Q01() + GetHard_Q02() + GetHard_Q03()
			+ GetHard_Q04() + GetHard_Q05() + GetHard_Q06() + GetHard_Q07();
}

unsigned char GetHard_Q1(void)
{
    1358:	e92d 47f0 	stmdb	sp!, {r4, r5, r6, r7, r8, r9, sl, lr}
	return GetHard_Q10() + GetHard_Q11() + GetHard_Q12() + GetHard_Q13()
    135c:	f7ff fff2 	bl	1344 <GetHard_Q10>
    1360:	4682      	mov	sl, r0
    1362:	f7ff ffe5 	bl	1330 <GetHard_Q11>
    1366:	4681      	mov	r9, r0
    1368:	f7ff ffd8 	bl	131c <GetHard_Q12>
    136c:	4680      	mov	r8, r0
    136e:	f7ff ffcb 	bl	1308 <GetHard_Q13>
    1372:	4607      	mov	r7, r0
    1374:	f7ff ffbc 	bl	12f0 <GetHard_Q14>
    1378:	4606      	mov	r6, r0
    137a:	f7ff ffaf 	bl	12dc <GetHard_Q15>
    137e:	4605      	mov	r5, r0
    1380:	f7ff ffa0 	bl	12c4 <GetHard_Q16>
    1384:	4604      	mov	r4, r0
    1386:	f7ff ff91 	bl	12ac <GetHard_Q17>
    138a:	eb09 030a 	add.w	r3, r9, sl
    138e:	4443      	add	r3, r8
    1390:	18fb      	adds	r3, r7, r3
    1392:	18f3      	adds	r3, r6, r3
    1394:	18eb      	adds	r3, r5, r3
    1396:	18e3      	adds	r3, r4, r3
    1398:	18c0      	adds	r0, r0, r3
			+ GetHard_Q14() + GetHard_Q15() + GetHard_Q16() + GetHard_Q17();
}
    139a:	b2c0      	uxtb	r0, r0
    139c:	e8bd 87f0 	ldmia.w	sp!, {r4, r5, r6, r7, r8, r9, sl, pc}

000013a0 <GetHard_Q07>:
{
	GPIOPinWrite(GPIO_PORTF_BASE, GPIO_PIN_6, 0);
}

unsigned char GetHard_Q07(void)
{
    13a0:	b508      	push	{r3, lr}
	return GPIOPinRead(GPIO_PORTF_BASE, GPIO_PIN_6) << 1;
    13a2:	2140      	movs	r1, #64	; 0x40
    13a4:	4803      	ldr	r0, [pc, #12]	; (13b4 <GetHard_Q07+0x14>)
    13a6:	f005 fda9 	bl	6efc <GPIOPinRead>
    13aa:	0040      	lsls	r0, r0, #1
}
    13ac:	f000 00fe 	and.w	r0, r0, #254	; 0xfe
    13b0:	bd08      	pop	{r3, pc}
    13b2:	bf00      	nop
    13b4:	40025000 	.word	0x40025000

000013b8 <GetHard_Q06>:
{
	GPIOPinWrite(GPIO_PORTB_BASE, GPIO_PIN_0, 0);
}

unsigned char GetHard_Q06(void)
{
    13b8:	b508      	push	{r3, lr}
	return GPIOPinRead(GPIO_PORTB_BASE, GPIO_PIN_0) << 6;
    13ba:	2101      	movs	r1, #1
    13bc:	4803      	ldr	r0, [pc, #12]	; (13cc <GetHard_Q06+0x14>)
    13be:	f005 fd9d 	bl	6efc <GPIOPinRead>
    13c2:	0180      	lsls	r0, r0, #6
}
    13c4:	f000 00c0 	and.w	r0, r0, #192	; 0xc0
    13c8:	bd08      	pop	{r3, pc}
    13ca:	bf00      	nop
    13cc:	40005000 	.word	0x40005000

000013d0 <GetHard_Q05>:
{
	GPIOPinWrite(GPIO_PORTF_BASE, GPIO_PIN_3, 0);
}

unsigned char GetHard_Q05(void)
{
    13d0:	b508      	push	{r3, lr}
	return GPIOPinRead(GPIO_PORTF_BASE, GPIO_PIN_3) << 2;
    13d2:	2108      	movs	r1, #8
    13d4:	4803      	ldr	r0, [pc, #12]	; (13e4 <GetHard_Q05+0x14>)
    13d6:	f005 fd91 	bl	6efc <GPIOPinRead>
    13da:	0080      	lsls	r0, r0, #2
}
    13dc:	f000 00fc 	and.w	r0, r0, #252	; 0xfc
    13e0:	bd08      	pop	{r3, pc}
    13e2:	bf00      	nop
    13e4:	40025000 	.word	0x40025000

000013e8 <GetHard_Q04>:
{
	GPIOPinWrite(GPIO_PORTF_BASE, GPIO_PIN_2, 0);
}

unsigned char GetHard_Q04(void)
{
    13e8:	b508      	push	{r3, lr}
	return GPIOPinRead(GPIO_PORTF_BASE, GPIO_PIN_2) << 2;
    13ea:	2104      	movs	r1, #4
    13ec:	4803      	ldr	r0, [pc, #12]	; (13fc <GetHard_Q04+0x14>)
    13ee:	f005 fd85 	bl	6efc <GPIOPinRead>
    13f2:	0080      	lsls	r0, r0, #2
}
    13f4:	f000 00fc 	and.w	r0, r0, #252	; 0xfc
    13f8:	bd08      	pop	{r3, pc}
    13fa:	bf00      	nop
    13fc:	40025000 	.word	0x40025000

00001400 <GetHard_Q03>:
{
	GPIOPinWrite(GPIO_PORTH_BASE, GPIO_PIN_1, 0);
}

unsigned char GetHard_Q03(void)
{
    1400:	b508      	push	{r3, lr}
	return GPIOPinRead(GPIO_PORTH_BASE, GPIO_PIN_1) << 2;
    1402:	2102      	movs	r1, #2
    1404:	4803      	ldr	r0, [pc, #12]	; (1414 <GetHard_Q03+0x14>)
    1406:	f005 fd79 	bl	6efc <GPIOPinRead>
    140a:	0080      	lsls	r0, r0, #2
}
    140c:	f000 00fc 	and.w	r0, r0, #252	; 0xfc
    1410:	bd08      	pop	{r3, pc}
    1412:	bf00      	nop
    1414:	40027000 	.word	0x40027000

00001418 <GetHard_Q02>:
{
	GPIOPinWrite(GPIO_PORTH_BASE, GPIO_PIN_0, 0);
}

unsigned char GetHard_Q02(void)
{
    1418:	b508      	push	{r3, lr}
	return GPIOPinRead(GPIO_PORTH_BASE, GPIO_PIN_0) << 2;
    141a:	2101      	movs	r1, #1
    141c:	4803      	ldr	r0, [pc, #12]	; (142c <GetHard_Q02+0x14>)
    141e:	f005 fd6d 	bl	6efc <GPIOPinRead>
    1422:	0080      	lsls	r0, r0, #2
}
    1424:	f000 00fc 	and.w	r0, r0, #252	; 0xfc
    1428:	bd08      	pop	{r3, pc}
    142a:	bf00      	nop
    142c:	40027000 	.word	0x40027000

00001430 <GetHard_Q01>:
{
	GPIOPinWrite(GPIO_PORTD_BASE, GPIO_PIN_1, 0);
}

unsigned char GetHard_Q01(void)
{
    1430:	b508      	push	{r3, lr}
	return GPIOPinRead(GPIO_PORTD_BASE, GPIO_PIN_1) >> 0;
    1432:	2102      	movs	r1, #2
    1434:	4802      	ldr	r0, [pc, #8]	; (1440 <GetHard_Q01+0x10>)
    1436:	f005 fd61 	bl	6efc <GPIOPinRead>
}
    143a:	b2c0      	uxtb	r0, r0
    143c:	bd08      	pop	{r3, pc}
    143e:	bf00      	nop
    1440:	40007000 	.word	0x40007000

00001444 <GetHard_Q00>:
{
	GPIOPinWrite(GPIO_PORTG_BASE, GPIO_PIN_2, 0);
}

unsigned char GetHard_Q00(void)
{
    1444:	b508      	push	{r3, lr}
	return GPIOPinRead(GPIO_PORTG_BASE, GPIO_PIN_2) >> 2;
    1446:	2104      	movs	r1, #4
    1448:	4802      	ldr	r0, [pc, #8]	; (1454 <GetHard_Q00+0x10>)
    144a:	f005 fd57 	bl	6efc <GPIOPinRead>
    144e:	0880      	lsrs	r0, r0, #2
}
    1450:	b2c0      	uxtb	r0, r0
    1452:	bd08      	pop	{r3, pc}
    1454:	40026000 	.word	0x40026000

00001458 <GetHard_Q0>:
	return GetHard_I10() + GetHard_I11() + GetHard_I12() + GetHard_I13()
			+ GetHard_I14() + GetHard_I15() + GetHard_I16() + GetHard_I17();
}

unsigned char GetHard_Q0(void)
{
    1458:	e92d 47f0 	stmdb	sp!, {r4, r5, r6, r7, r8, r9, sl, lr}
	return GetHard_Q00() + GetHard_Q01() + GetHard_Q02() + GetHard_Q03()
    145c:	f7ff fff2 	bl	1444 <GetHard_Q00>
    1460:	4682      	mov	sl, r0
    1462:	f7ff ffe5 	bl	1430 <GetHard_Q01>
    1466:	4681      	mov	r9, r0
    1468:	f7ff ffd6 	bl	1418 <GetHard_Q02>
    146c:	4680      	mov	r8, r0
    146e:	f7ff ffc7 	bl	1400 <GetHard_Q03>
    1472:	4607      	mov	r7, r0
    1474:	f7ff ffb8 	bl	13e8 <GetHard_Q04>
    1478:	4606      	mov	r6, r0
    147a:	f7ff ffa9 	bl	13d0 <GetHard_Q05>
    147e:	4605      	mov	r5, r0
    1480:	f7ff ff9a 	bl	13b8 <GetHard_Q06>
    1484:	4604      	mov	r4, r0
    1486:	f7ff ff8b 	bl	13a0 <GetHard_Q07>
    148a:	eb09 030a 	add.w	r3, r9, sl
    148e:	4443      	add	r3, r8
    1490:	18fb      	adds	r3, r7, r3
    1492:	18f3      	adds	r3, r6, r3
    1494:	18eb      	adds	r3, r5, r3
    1496:	18e3      	adds	r3, r4, r3
    1498:	18c0      	adds	r0, r0, r3
			+ GetHard_Q04() + GetHard_Q05() + GetHard_Q06() + GetHard_Q07();
}
    149a:	b2c0      	uxtb	r0, r0
    149c:	e8bd 87f0 	ldmia.w	sp!, {r4, r5, r6, r7, r8, r9, sl, pc}

000014a0 <GetHard_I17>:
{
	return GPIOPinRead(GPIO_PORTA_BASE, GPIO_PIN_7) >> 1;
}

unsigned char GetHard_I17(void)
{
    14a0:	b508      	push	{r3, lr}
	return GPIOPinRead(GPIO_PORTG_BASE, GPIO_PIN_5) << 2;
    14a2:	2120      	movs	r1, #32
    14a4:	4803      	ldr	r0, [pc, #12]	; (14b4 <GetHard_I17+0x14>)
    14a6:	f005 fd29 	bl	6efc <GPIOPinRead>
    14aa:	0080      	lsls	r0, r0, #2
}
    14ac:	f000 00fc 	and.w	r0, r0, #252	; 0xfc
    14b0:	bd08      	pop	{r3, pc}
    14b2:	bf00      	nop
    14b4:	40026000 	.word	0x40026000

000014b8 <GetHard_I16>:
{
	return GPIOPinRead(GPIO_PORTA_BASE, GPIO_PIN_6) >> 1;
}

unsigned char GetHard_I16(void)
{
    14b8:	b508      	push	{r3, lr}
	return GPIOPinRead(GPIO_PORTA_BASE, GPIO_PIN_7) >> 1;
    14ba:	2180      	movs	r1, #128	; 0x80
    14bc:	4802      	ldr	r0, [pc, #8]	; (14c8 <GetHard_I16+0x10>)
    14be:	f005 fd1d 	bl	6efc <GPIOPinRead>
    14c2:	0840      	lsrs	r0, r0, #1
}
    14c4:	b2c0      	uxtb	r0, r0
    14c6:	bd08      	pop	{r3, pc}
    14c8:	40004000 	.word	0x40004000

000014cc <GetHard_I15>:
{
	return GPIOPinRead(GPIO_PORTA_BASE, GPIO_PIN_5) >> 1;
}

unsigned char GetHard_I15(void)
{
    14cc:	b508      	push	{r3, lr}
	return GPIOPinRead(GPIO_PORTA_BASE, GPIO_PIN_6) >> 1;
    14ce:	2140      	movs	r1, #64	; 0x40
    14d0:	4802      	ldr	r0, [pc, #8]	; (14dc <GetHard_I15+0x10>)
    14d2:	f005 fd13 	bl	6efc <GPIOPinRead>
    14d6:	0840      	lsrs	r0, r0, #1
}
    14d8:	b2c0      	uxtb	r0, r0
    14da:	bd08      	pop	{r3, pc}
    14dc:	40004000 	.word	0x40004000

000014e0 <GetHard_I14>:
{
	return GPIOPinRead(GPIO_PORTA_BASE, GPIO_PIN_4) >> 1;
}

unsigned char GetHard_I14(void)
{
    14e0:	b508      	push	{r3, lr}
	return GPIOPinRead(GPIO_PORTA_BASE, GPIO_PIN_5) >> 1;
    14e2:	2120      	movs	r1, #32
    14e4:	4802      	ldr	r0, [pc, #8]	; (14f0 <GetHard_I14+0x10>)
    14e6:	f005 fd09 	bl	6efc <GPIOPinRead>
    14ea:	0840      	lsrs	r0, r0, #1
}
    14ec:	b2c0      	uxtb	r0, r0
    14ee:	bd08      	pop	{r3, pc}
    14f0:	40004000 	.word	0x40004000

000014f4 <GetHard_I13>:
{
	return GPIOPinRead(GPIO_PORTA_BASE, GPIO_PIN_3) >> 1;
}

unsigned char GetHard_I13(void)
{
    14f4:	b508      	push	{r3, lr}
	return GPIOPinRead(GPIO_PORTA_BASE, GPIO_PIN_4) >> 1;
    14f6:	2110      	movs	r1, #16
    14f8:	4802      	ldr	r0, [pc, #8]	; (1504 <GetHard_I13+0x10>)
    14fa:	f005 fcff 	bl	6efc <GPIOPinRead>
    14fe:	0840      	lsrs	r0, r0, #1
}
    1500:	b2c0      	uxtb	r0, r0
    1502:	bd08      	pop	{r3, pc}
    1504:	40004000 	.word	0x40004000

00001508 <GetHard_I12>:
{
	return GPIOPinRead(GPIO_PORTA_BASE, GPIO_PIN_2) >> 1;
}

unsigned char GetHard_I12(void)
{
    1508:	b508      	push	{r3, lr}
	return GPIOPinRead(GPIO_PORTA_BASE, GPIO_PIN_3) >> 1;
    150a:	2108      	movs	r1, #8
    150c:	4802      	ldr	r0, [pc, #8]	; (1518 <GetHard_I12+0x10>)
    150e:	f005 fcf5 	bl	6efc <GPIOPinRead>
    1512:	0840      	lsrs	r0, r0, #1
}
    1514:	b2c0      	uxtb	r0, r0
    1516:	bd08      	pop	{r3, pc}
    1518:	40004000 	.word	0x40004000

0000151c <GetHard_I11>:
{
	return GPIOPinRead(GPIO_PORTC_BASE, GPIO_PIN_5) >> 5;
}

unsigned char GetHard_I11(void)
{
    151c:	b508      	push	{r3, lr}
	return GPIOPinRead(GPIO_PORTA_BASE, GPIO_PIN_2) >> 1;
    151e:	2104      	movs	r1, #4
    1520:	4802      	ldr	r0, [pc, #8]	; (152c <GetHard_I11+0x10>)
    1522:	f005 fceb 	bl	6efc <GPIOPinRead>
    1526:	0840      	lsrs	r0, r0, #1
}
    1528:	b2c0      	uxtb	r0, r0
    152a:	bd08      	pop	{r3, pc}
    152c:	40004000 	.word	0x40004000

00001530 <GetHard_I10>:
{
	return GPIOPinRead(GPIO_PORTC_BASE, GPIO_PIN_6) << 1;
}

unsigned char GetHard_I10(void)
{
    1530:	b508      	push	{r3, lr}
	return GPIOPinRead(GPIO_PORTC_BASE, GPIO_PIN_5) >> 5;
    1532:	2120      	movs	r1, #32
    1534:	4802      	ldr	r0, [pc, #8]	; (1540 <GetHard_I10+0x10>)
    1536:	f005 fce1 	bl	6efc <GPIOPinRead>
    153a:	0940      	lsrs	r0, r0, #5
}
    153c:	b2c0      	uxtb	r0, r0
    153e:	bd08      	pop	{r3, pc}
    1540:	40006000 	.word	0x40006000

00001544 <GetHard_I1>:
	return GetHard_I00() + GetHard_I01() + GetHard_I02() + GetHard_I03()
			+ GetHard_I04() + GetHard_I05() + GetHard_I06() + GetHard_I07();
}

unsigned char GetHard_I1(void)
{
    1544:	e92d 47f0 	stmdb	sp!, {r4, r5, r6, r7, r8, r9, sl, lr}
	return GetHard_I10() + GetHard_I11() + GetHard_I12() + GetHard_I13()
    1548:	f7ff fff2 	bl	1530 <GetHard_I10>
    154c:	4682      	mov	sl, r0
    154e:	f7ff ffe5 	bl	151c <GetHard_I11>
    1552:	4681      	mov	r9, r0
    1554:	f7ff ffd8 	bl	1508 <GetHard_I12>
    1558:	4680      	mov	r8, r0
    155a:	f7ff ffcb 	bl	14f4 <GetHard_I13>
    155e:	4607      	mov	r7, r0
    1560:	f7ff ffbe 	bl	14e0 <GetHard_I14>
    1564:	4606      	mov	r6, r0
    1566:	f7ff ffb1 	bl	14cc <GetHard_I15>
    156a:	4605      	mov	r5, r0
    156c:	f7ff ffa4 	bl	14b8 <GetHard_I16>
    1570:	4604      	mov	r4, r0
    1572:	f7ff ff95 	bl	14a0 <GetHard_I17>
    1576:	eb09 030a 	add.w	r3, r9, sl
    157a:	4443      	add	r3, r8
    157c:	18fb      	adds	r3, r7, r3
    157e:	18f3      	adds	r3, r6, r3
    1580:	18eb      	adds	r3, r5, r3
    1582:	18e3      	adds	r3, r4, r3
    1584:	18c0      	adds	r0, r0, r3
			+ GetHard_I14() + GetHard_I15() + GetHard_I16() + GetHard_I17();
}
    1586:	b2c0      	uxtb	r0, r0
    1588:	e8bd 87f0 	ldmia.w	sp!, {r4, r5, r6, r7, r8, r9, sl, pc}

0000158c <GetHard_I07>:
{
	return GPIOPinRead(GPIO_PORTC_BASE, GPIO_PIN_7) >> 1;
}

unsigned char GetHard_I07(void)
{
    158c:	b508      	push	{r3, lr}
	return GPIOPinRead(GPIO_PORTC_BASE, GPIO_PIN_6) << 1;
    158e:	2140      	movs	r1, #64	; 0x40
    1590:	4803      	ldr	r0, [pc, #12]	; (15a0 <GetHard_I07+0x14>)
    1592:	f005 fcb3 	bl	6efc <GPIOPinRead>
    1596:	0040      	lsls	r0, r0, #1
}
    1598:	f000 00fe 	and.w	r0, r0, #254	; 0xfe
    159c:	bd08      	pop	{r3, pc}
    159e:	bf00      	nop
    15a0:	40006000 	.word	0x40006000

000015a4 <GetHard_I06>:
{
	return GPIOPinRead(GPIO_PORTG_BASE, GPIO_PIN_7) >> 2;
}

unsigned char GetHard_I06(void)
{
    15a4:	b508      	push	{r3, lr}
	return GPIOPinRead(GPIO_PORTC_BASE, GPIO_PIN_7) >> 1;
    15a6:	2180      	movs	r1, #128	; 0x80
    15a8:	4802      	ldr	r0, [pc, #8]	; (15b4 <GetHard_I06+0x10>)
    15aa:	f005 fca7 	bl	6efc <GPIOPinRead>
    15ae:	0840      	lsrs	r0, r0, #1
}
    15b0:	b2c0      	uxtb	r0, r0
    15b2:	bd08      	pop	{r3, pc}
    15b4:	40006000 	.word	0x40006000

000015b8 <GetHard_I05>:
{
	return GPIOPinRead(GPIO_PORTG_BASE, GPIO_PIN_6) >> 2;
}

unsigned char GetHard_I05(void)
{
    15b8:	b508      	push	{r3, lr}
	return GPIOPinRead(GPIO_PORTG_BASE, GPIO_PIN_7) >> 2;
    15ba:	2180      	movs	r1, #128	; 0x80
    15bc:	4802      	ldr	r0, [pc, #8]	; (15c8 <GetHard_I05+0x10>)
    15be:	f005 fc9d 	bl	6efc <GPIOPinRead>
    15c2:	0880      	lsrs	r0, r0, #2
}
    15c4:	b2c0      	uxtb	r0, r0
    15c6:	bd08      	pop	{r3, pc}
    15c8:	40026000 	.word	0x40026000

000015cc <GetHard_I04>:
{
	return GPIOPinRead(GPIO_PORTF_BASE, GPIO_PIN_1) << 2;
}

unsigned char GetHard_I04(void)
{
    15cc:	b508      	push	{r3, lr}
	return GPIOPinRead(GPIO_PORTG_BASE, GPIO_PIN_6) >> 2;
    15ce:	2140      	movs	r1, #64	; 0x40
    15d0:	4802      	ldr	r0, [pc, #8]	; (15dc <GetHard_I04+0x10>)
    15d2:	f005 fc93 	bl	6efc <GPIOPinRead>
    15d6:	0880      	lsrs	r0, r0, #2
}
    15d8:	b2c0      	uxtb	r0, r0
    15da:	bd08      	pop	{r3, pc}
    15dc:	40026000 	.word	0x40026000

000015e0 <GetHard_I03>:
{
	return GPIOPinRead(GPIO_PORTF_BASE, GPIO_PIN_0) << 2;
}

unsigned char GetHard_I03(void)
{
    15e0:	b508      	push	{r3, lr}
	return GPIOPinRead(GPIO_PORTF_BASE, GPIO_PIN_1) << 2;
    15e2:	2102      	movs	r1, #2
    15e4:	4803      	ldr	r0, [pc, #12]	; (15f4 <GetHard_I03+0x14>)
    15e6:	f005 fc89 	bl	6efc <GPIOPinRead>
    15ea:	0080      	lsls	r0, r0, #2
}
    15ec:	f000 00fc 	and.w	r0, r0, #252	; 0xfc
    15f0:	bd08      	pop	{r3, pc}
    15f2:	bf00      	nop
    15f4:	40025000 	.word	0x40025000

000015f8 <GetHard_I02>:
{
	return GPIOPinRead(GPIO_PORTC_BASE, GPIO_PIN_4) >> 3;
}

unsigned char GetHard_I02(void)
{
    15f8:	b508      	push	{r3, lr}
	return GPIOPinRead(GPIO_PORTF_BASE, GPIO_PIN_0) << 2;
    15fa:	2101      	movs	r1, #1
    15fc:	4803      	ldr	r0, [pc, #12]	; (160c <GetHard_I02+0x14>)
    15fe:	f005 fc7d 	bl	6efc <GPIOPinRead>
    1602:	0080      	lsls	r0, r0, #2
}
    1604:	f000 00fc 	and.w	r0, r0, #252	; 0xfc
    1608:	bd08      	pop	{r3, pc}
    160a:	bf00      	nop
    160c:	40025000 	.word	0x40025000

00001610 <GetHard_I01>:
{
	return GPIOPinRead(GPIO_PORTD_BASE, GPIO_PIN_0) >> 0;
}

unsigned char GetHard_I01(void)
{
    1610:	b508      	push	{r3, lr}
	return GPIOPinRead(GPIO_PORTC_BASE, GPIO_PIN_4) >> 3;
    1612:	2110      	movs	r1, #16
    1614:	4802      	ldr	r0, [pc, #8]	; (1620 <GetHard_I01+0x10>)
    1616:	f005 fc71 	bl	6efc <GPIOPinRead>
    161a:	08c0      	lsrs	r0, r0, #3
}
    161c:	b2c0      	uxtb	r0, r0
    161e:	bd08      	pop	{r3, pc}
    1620:	40006000 	.word	0x40006000

00001624 <GetHard_I00>:
{
	return GPIOPinRead(GPIO_PORTF_BASE, GPIO_PIN_4);
}

unsigned char GetHard_I00(void)
{
    1624:	b508      	push	{r3, lr}
	return GPIOPinRead(GPIO_PORTD_BASE, GPIO_PIN_0) >> 0;
    1626:	2101      	movs	r1, #1
    1628:	4802      	ldr	r0, [pc, #8]	; (1634 <GetHard_I00+0x10>)
    162a:	f005 fc67 	bl	6efc <GPIOPinRead>
}
    162e:	b2c0      	uxtb	r0, r0
    1630:	bd08      	pop	{r3, pc}
    1632:	bf00      	nop
    1634:	40007000 	.word	0x40007000

00001638 <GetHard_I0>:
//*****************************************************************************
// Obraz wej wyj
//*****************************************************************************

unsigned char GetHard_I0(void)
{
    1638:	e92d 47f0 	stmdb	sp!, {r4, r5, r6, r7, r8, r9, sl, lr}
	return GetHard_I00() + GetHard_I01() + GetHard_I02() + GetHard_I03()
    163c:	f7ff fff2 	bl	1624 <GetHard_I00>
    1640:	4682      	mov	sl, r0
    1642:	f7ff ffe5 	bl	1610 <GetHard_I01>
    1646:	4681      	mov	r9, r0
    1648:	f7ff ffd6 	bl	15f8 <GetHard_I02>
    164c:	4680      	mov	r8, r0
    164e:	f7ff ffc7 	bl	15e0 <GetHard_I03>
    1652:	4607      	mov	r7, r0
    1654:	f7ff ffba 	bl	15cc <GetHard_I04>
    1658:	4606      	mov	r6, r0
    165a:	f7ff ffad 	bl	15b8 <GetHard_I05>
    165e:	4605      	mov	r5, r0
    1660:	f7ff ffa0 	bl	15a4 <GetHard_I06>
    1664:	4604      	mov	r4, r0
    1666:	f7ff ff91 	bl	158c <GetHard_I07>
    166a:	eb09 030a 	add.w	r3, r9, sl
    166e:	4443      	add	r3, r8
    1670:	18fb      	adds	r3, r7, r3
    1672:	18f3      	adds	r3, r6, r3
    1674:	18eb      	adds	r3, r5, r3
    1676:	18e3      	adds	r3, r4, r3
    1678:	18c0      	adds	r0, r0, r3
			+ GetHard_I04() + GetHard_I05() + GetHard_I06() + GetHard_I07();
}
    167a:	b2c0      	uxtb	r0, r0
    167c:	e8bd 87f0 	ldmia.w	sp!, {r4, r5, r6, r7, r8, r9, sl, pc}

00001680 <GetHard_SelectButton>:
//*****************************************************************************
// Get - odczyt stanu wej
//*****************************************************************************

unsigned char GetHard_SelectButton(void)
{
    1680:	b508      	push	{r3, lr}
	return GPIOPinRead(GPIO_PORTF_BASE, GPIO_PIN_4);
    1682:	2110      	movs	r1, #16
    1684:	4802      	ldr	r0, [pc, #8]	; (1690 <GetHard_SelectButton+0x10>)
    1686:	f005 fc39 	bl	6efc <GPIOPinRead>
}
    168a:	b2c0      	uxtb	r0, r0
    168c:	bd08      	pop	{r3, pc}
    168e:	bf00      	nop
    1690:	40025000 	.word	0x40025000

00001694 <LedSwitch>:
{
	GPIOPinWrite(GPIO_PORTF_BASE, GPIO_PIN_7, 0);
}

void LedSwitch(void)
{
    1694:	b510      	push	{r4, lr}
	if (GPIOPinRead(GPIO_PORTF_BASE, GPIO_PIN_7) == 0)
    1696:	4808      	ldr	r0, [pc, #32]	; (16b8 <LedSwitch+0x24>)
    1698:	2180      	movs	r1, #128	; 0x80
    169a:	f005 fc2f 	bl	6efc <GPIOPinRead>
    169e:	b918      	cbnz	r0, 16a8 <LedSwitch+0x14>
		GPIOPinWrite(GPIO_PORTF_BASE, GPIO_PIN_7, GPIO_PIN_7);
    16a0:	2180      	movs	r1, #128	; 0x80
    16a2:	4805      	ldr	r0, [pc, #20]	; (16b8 <LedSwitch+0x24>)
    16a4:	460a      	mov	r2, r1
    16a6:	e002      	b.n	16ae <LedSwitch+0x1a>
	else
		GPIOPinWrite(GPIO_PORTF_BASE, GPIO_PIN_7, 0);
    16a8:	4803      	ldr	r0, [pc, #12]	; (16b8 <LedSwitch+0x24>)
    16aa:	2180      	movs	r1, #128	; 0x80
    16ac:	2200      	movs	r2, #0
}
    16ae:	e8bd 4010 	ldmia.w	sp!, {r4, lr}
void LedSwitch(void)
{
	if (GPIOPinRead(GPIO_PORTF_BASE, GPIO_PIN_7) == 0)
		GPIOPinWrite(GPIO_PORTF_BASE, GPIO_PIN_7, GPIO_PIN_7);
	else
		GPIOPinWrite(GPIO_PORTF_BASE, GPIO_PIN_7, 0);
    16b2:	f005 bc26 	b.w	6f02 <GPIOPinWrite>
    16b6:	bf00      	nop
    16b8:	40025000 	.word	0x40025000

000016bc <LedOff>:
	GPIOPinWrite(GPIO_PORTF_BASE, GPIO_PIN_7, GPIO_PIN_7);
}

void LedOff(void)
{
	GPIOPinWrite(GPIO_PORTF_BASE, GPIO_PIN_7, 0);
    16bc:	4802      	ldr	r0, [pc, #8]	; (16c8 <LedOff+0xc>)
    16be:	2180      	movs	r1, #128	; 0x80
    16c0:	2200      	movs	r2, #0
    16c2:	f005 bc1e 	b.w	6f02 <GPIOPinWrite>
    16c6:	bf00      	nop
    16c8:	40025000 	.word	0x40025000

000016cc <LedOn>:
//*****************************************************************************
// Zapalenie i gaszenie diody STATUS
//*****************************************************************************
void LedOn(void)
{
	GPIOPinWrite(GPIO_PORTF_BASE, GPIO_PIN_7, GPIO_PIN_7);
    16cc:	2180      	movs	r1, #128	; 0x80
    16ce:	4802      	ldr	r0, [pc, #8]	; (16d8 <LedOn+0xc>)
    16d0:	460a      	mov	r2, r1
    16d2:	f005 bc16 	b.w	6f02 <GPIOPinWrite>
    16d6:	bf00      	nop
    16d8:	40025000 	.word	0x40025000

000016dc <ResetHard_Q17>:
	GPIOPinWrite(GPIO_PORTB_BASE, GPIO_PIN_4, GPIO_PIN_4);
}

void ResetHard_Q17(void)
{
	GPIOPinWrite(GPIO_PORTB_BASE, GPIO_PIN_4, 0);
    16dc:	4802      	ldr	r0, [pc, #8]	; (16e8 <ResetHard_Q17+0xc>)
    16de:	2110      	movs	r1, #16
    16e0:	2200      	movs	r2, #0
    16e2:	f005 bc0e 	b.w	6f02 <GPIOPinWrite>
    16e6:	bf00      	nop
    16e8:	40005000 	.word	0x40005000

000016ec <SetHard_Q17>:
// ----------------------------------------------------------------------------
// Q17
// ----------------------------------------------------------------------------
void SetHard_Q17(void)
{
	GPIOPinWrite(GPIO_PORTB_BASE, GPIO_PIN_4, GPIO_PIN_4);
    16ec:	2110      	movs	r1, #16
    16ee:	4802      	ldr	r0, [pc, #8]	; (16f8 <SetHard_Q17+0xc>)
    16f0:	460a      	mov	r2, r1
    16f2:	f005 bc06 	b.w	6f02 <GPIOPinWrite>
    16f6:	bf00      	nop
    16f8:	40005000 	.word	0x40005000

000016fc <ResetHard_Q16>:
	GPIOPinWrite(GPIO_PORTB_BASE, GPIO_PIN_5, GPIO_PIN_5);
}

void ResetHard_Q16(void)
{
	GPIOPinWrite(GPIO_PORTB_BASE, GPIO_PIN_5, 0);
    16fc:	4802      	ldr	r0, [pc, #8]	; (1708 <ResetHard_Q16+0xc>)
    16fe:	2120      	movs	r1, #32
    1700:	2200      	movs	r2, #0
    1702:	f005 bbfe 	b.w	6f02 <GPIOPinWrite>
    1706:	bf00      	nop
    1708:	40005000 	.word	0x40005000

0000170c <SetHard_Q16>:
// ----------------------------------------------------------------------------
// Q16
// ----------------------------------------------------------------------------
void SetHard_Q16(void)
{
	GPIOPinWrite(GPIO_PORTB_BASE, GPIO_PIN_5, GPIO_PIN_5);
    170c:	2120      	movs	r1, #32
    170e:	4802      	ldr	r0, [pc, #8]	; (1718 <SetHard_Q16+0xc>)
    1710:	460a      	mov	r2, r1
    1712:	f005 bbf6 	b.w	6f02 <GPIOPinWrite>
    1716:	bf00      	nop
    1718:	40005000 	.word	0x40005000

0000171c <ResetHard_Q15>:
	GPIOPinWrite(GPIO_PORTB_BASE, GPIO_PIN_6, GPIO_PIN_6);
}

void ResetHard_Q15(void)
{
	GPIOPinWrite(GPIO_PORTB_BASE, GPIO_PIN_6, 0);
    171c:	4802      	ldr	r0, [pc, #8]	; (1728 <ResetHard_Q15+0xc>)
    171e:	2140      	movs	r1, #64	; 0x40
    1720:	2200      	movs	r2, #0
    1722:	f005 bbee 	b.w	6f02 <GPIOPinWrite>
    1726:	bf00      	nop
    1728:	40005000 	.word	0x40005000

0000172c <SetHard_Q15>:
// ----------------------------------------------------------------------------
// Q15
// ----------------------------------------------------------------------------
void SetHard_Q15(void)
{
	GPIOPinWrite(GPIO_PORTB_BASE, GPIO_PIN_6, GPIO_PIN_6);
    172c:	2140      	movs	r1, #64	; 0x40
    172e:	4802      	ldr	r0, [pc, #8]	; (1738 <SetHard_Q15+0xc>)
    1730:	460a      	mov	r2, r1
    1732:	f005 bbe6 	b.w	6f02 <GPIOPinWrite>
    1736:	bf00      	nop
    1738:	40005000 	.word	0x40005000

0000173c <ResetHard_Q14>:
	GPIOPinWrite(GPIO_PORTH_BASE, GPIO_PIN_2, GPIO_PIN_2);
}

void ResetHard_Q14(void)
{
	GPIOPinWrite(GPIO_PORTH_BASE, GPIO_PIN_2, 0);
    173c:	4802      	ldr	r0, [pc, #8]	; (1748 <ResetHard_Q14+0xc>)
    173e:	2104      	movs	r1, #4
    1740:	2200      	movs	r2, #0
    1742:	f005 bbde 	b.w	6f02 <GPIOPinWrite>
    1746:	bf00      	nop
    1748:	40027000 	.word	0x40027000

0000174c <SetHard_Q14>:
// ----------------------------------------------------------------------------
// Q14
// ----------------------------------------------------------------------------
void SetHard_Q14(void)
{
	GPIOPinWrite(GPIO_PORTH_BASE, GPIO_PIN_2, GPIO_PIN_2);
    174c:	2104      	movs	r1, #4
    174e:	4802      	ldr	r0, [pc, #8]	; (1758 <SetHard_Q14+0xc>)
    1750:	460a      	mov	r2, r1
    1752:	f005 bbd6 	b.w	6f02 <GPIOPinWrite>
    1756:	bf00      	nop
    1758:	40027000 	.word	0x40027000

0000175c <ResetHard_Q13>:
	GPIOPinWrite(GPIO_PORTH_BASE, GPIO_PIN_3, GPIO_PIN_3);
}

void ResetHard_Q13(void)
{
	GPIOPinWrite(GPIO_PORTH_BASE, GPIO_PIN_3, 0);
    175c:	4802      	ldr	r0, [pc, #8]	; (1768 <ResetHard_Q13+0xc>)
    175e:	2108      	movs	r1, #8
    1760:	2200      	movs	r2, #0
    1762:	f005 bbce 	b.w	6f02 <GPIOPinWrite>
    1766:	bf00      	nop
    1768:	40027000 	.word	0x40027000

0000176c <SetHard_Q13>:
// ----------------------------------------------------------------------------
// Q13
// ----------------------------------------------------------------------------
void SetHard_Q13(void)
{
	GPIOPinWrite(GPIO_PORTH_BASE, GPIO_PIN_3, GPIO_PIN_3);
    176c:	2108      	movs	r1, #8
    176e:	4802      	ldr	r0, [pc, #8]	; (1778 <SetHard_Q13+0xc>)
    1770:	460a      	mov	r2, r1
    1772:	f005 bbc6 	b.w	6f02 <GPIOPinWrite>
    1776:	bf00      	nop
    1778:	40027000 	.word	0x40027000

0000177c <ResetHard_Q12>:
	GPIOPinWrite(GPIO_PORTF_BASE, GPIO_PIN_5, GPIO_PIN_5);
}

void ResetHard_Q12(void)
{
	GPIOPinWrite(GPIO_PORTF_BASE, GPIO_PIN_5, 0);
    177c:	4802      	ldr	r0, [pc, #8]	; (1788 <ResetHard_Q12+0xc>)
    177e:	2120      	movs	r1, #32
    1780:	2200      	movs	r2, #0
    1782:	f005 bbbe 	b.w	6f02 <GPIOPinWrite>
    1786:	bf00      	nop
    1788:	40025000 	.word	0x40025000

0000178c <SetHard_Q12>:
// ----------------------------------------------------------------------------
// Q12
// ----------------------------------------------------------------------------
void SetHard_Q12(void)
{
	GPIOPinWrite(GPIO_PORTF_BASE, GPIO_PIN_5, GPIO_PIN_5);
    178c:	2120      	movs	r1, #32
    178e:	4802      	ldr	r0, [pc, #8]	; (1798 <SetHard_Q12+0xc>)
    1790:	460a      	mov	r2, r1
    1792:	f005 bbb6 	b.w	6f02 <GPIOPinWrite>
    1796:	bf00      	nop
    1798:	40025000 	.word	0x40025000

0000179c <ResetHard_Q11>:
	GPIOPinWrite(GPIO_PORTG_BASE, GPIO_PIN_4, GPIO_PIN_4);
}

void ResetHard_Q11(void)
{
	GPIOPinWrite(GPIO_PORTG_BASE, GPIO_PIN_4, 0);
    179c:	4802      	ldr	r0, [pc, #8]	; (17a8 <ResetHard_Q11+0xc>)
    179e:	2110      	movs	r1, #16
    17a0:	2200      	movs	r2, #0
    17a2:	f005 bbae 	b.w	6f02 <GPIOPinWrite>
    17a6:	bf00      	nop
    17a8:	40026000 	.word	0x40026000

000017ac <SetHard_Q11>:
// ----------------------------------------------------------------------------
// Q11
// ----------------------------------------------------------------------------
void SetHard_Q11(void)
{
	GPIOPinWrite(GPIO_PORTG_BASE, GPIO_PIN_4, GPIO_PIN_4);
    17ac:	2110      	movs	r1, #16
    17ae:	4802      	ldr	r0, [pc, #8]	; (17b8 <SetHard_Q11+0xc>)
    17b0:	460a      	mov	r2, r1
    17b2:	f005 bba6 	b.w	6f02 <GPIOPinWrite>
    17b6:	bf00      	nop
    17b8:	40026000 	.word	0x40026000

000017bc <ResetHard_Q10>:
	GPIOPinWrite(GPIO_PORTB_BASE, GPIO_PIN_1, GPIO_PIN_1);
}

void ResetHard_Q10(void)
{
	GPIOPinWrite(GPIO_PORTB_BASE, GPIO_PIN_1, 0);
    17bc:	4802      	ldr	r0, [pc, #8]	; (17c8 <ResetHard_Q10+0xc>)
    17be:	2102      	movs	r1, #2
    17c0:	2200      	movs	r2, #0
    17c2:	f005 bb9e 	b.w	6f02 <GPIOPinWrite>
    17c6:	bf00      	nop
    17c8:	40005000 	.word	0x40005000

000017cc <SetHard_Q10>:
// ----------------------------------------------------------------------------
// Q10
// ----------------------------------------------------------------------------
void SetHard_Q10(void)
{
	GPIOPinWrite(GPIO_PORTB_BASE, GPIO_PIN_1, GPIO_PIN_1);
    17cc:	2102      	movs	r1, #2
    17ce:	4802      	ldr	r0, [pc, #8]	; (17d8 <SetHard_Q10+0xc>)
    17d0:	460a      	mov	r2, r1
    17d2:	f005 bb96 	b.w	6f02 <GPIOPinWrite>
    17d6:	bf00      	nop
    17d8:	40005000 	.word	0x40005000

000017dc <SetHard_Q1>:
		ResetHard_Q07();
}

void SetHard_Q1(unsigned char out)
{
	if ((out & 0x01) > 0)
    17dc:	f010 0f01 	tst.w	r0, #1
	else
		ResetHard_Q07();
}

void SetHard_Q1(unsigned char out)
{
    17e0:	b510      	push	{r4, lr}
    17e2:	4604      	mov	r4, r0
	if ((out & 0x01) > 0)
    17e4:	d002      	beq.n	17ec <SetHard_Q1+0x10>
		SetHard_Q10();
    17e6:	f7ff fff1 	bl	17cc <SetHard_Q10>
    17ea:	e001      	b.n	17f0 <SetHard_Q1+0x14>
	else
		ResetHard_Q10();
    17ec:	f7ff ffe6 	bl	17bc <ResetHard_Q10>

	if ((out & 0x02) > 0)
    17f0:	f014 0f02 	tst.w	r4, #2
    17f4:	d002      	beq.n	17fc <SetHard_Q1+0x20>
		SetHard_Q11();
    17f6:	f7ff ffd9 	bl	17ac <SetHard_Q11>
    17fa:	e001      	b.n	1800 <SetHard_Q1+0x24>
	else
		ResetHard_Q11();
    17fc:	f7ff ffce 	bl	179c <ResetHard_Q11>

	if ((out & 0x04) > 0)
    1800:	f014 0f04 	tst.w	r4, #4
    1804:	d002      	beq.n	180c <SetHard_Q1+0x30>
		SetHard_Q12();
    1806:	f7ff ffc1 	bl	178c <SetHard_Q12>
    180a:	e001      	b.n	1810 <SetHard_Q1+0x34>
	else
		ResetHard_Q12();
    180c:	f7ff ffb6 	bl	177c <ResetHard_Q12>

	if ((out & 0x08) > 0)
    1810:	f014 0f08 	tst.w	r4, #8
    1814:	d002      	beq.n	181c <SetHard_Q1+0x40>
		SetHard_Q13();
    1816:	f7ff ffa9 	bl	176c <SetHard_Q13>
    181a:	e001      	b.n	1820 <SetHard_Q1+0x44>
	else
		ResetHard_Q13();
    181c:	f7ff ff9e 	bl	175c <ResetHard_Q13>

	if ((out & 0x10) > 0)
    1820:	f014 0f10 	tst.w	r4, #16
    1824:	d002      	beq.n	182c <SetHard_Q1+0x50>
		SetHard_Q14();
    1826:	f7ff ff91 	bl	174c <SetHard_Q14>
    182a:	e001      	b.n	1830 <SetHard_Q1+0x54>
	else
		ResetHard_Q14();
    182c:	f7ff ff86 	bl	173c <ResetHard_Q14>

	if ((out & 0x20) > 0)
    1830:	f014 0f20 	tst.w	r4, #32
    1834:	d002      	beq.n	183c <SetHard_Q1+0x60>
		SetHard_Q15();
    1836:	f7ff ff79 	bl	172c <SetHard_Q15>
    183a:	e001      	b.n	1840 <SetHard_Q1+0x64>
	else
		ResetHard_Q15();
    183c:	f7ff ff6e 	bl	171c <ResetHard_Q15>

	if ((out & 0x40) > 0)
    1840:	f014 0f40 	tst.w	r4, #64	; 0x40
    1844:	d002      	beq.n	184c <SetHard_Q1+0x70>
		SetHard_Q16();
    1846:	f7ff ff61 	bl	170c <SetHard_Q16>
    184a:	e001      	b.n	1850 <SetHard_Q1+0x74>
	else
		ResetHard_Q16();
    184c:	f7ff ff56 	bl	16fc <ResetHard_Q16>

	if ((out & 0x80) > 0)
    1850:	f014 0f80 	tst.w	r4, #128	; 0x80
		SetHard_Q17();
	else
		ResetHard_Q17();
}
    1854:	e8bd 4010 	ldmia.w	sp!, {r4, lr}
	if ((out & 0x40) > 0)
		SetHard_Q16();
	else
		ResetHard_Q16();

	if ((out & 0x80) > 0)
    1858:	d000      	beq.n	185c <SetHard_Q1+0x80>
		SetHard_Q17();
    185a:	e747      	b.n	16ec <SetHard_Q17>
	else
		ResetHard_Q17();
    185c:	e73e      	b.n	16dc <ResetHard_Q17>

0000185e <ResetHard_Q07>:
	GPIOPinWrite(GPIO_PORTF_BASE, GPIO_PIN_6, GPIO_PIN_6);
}

void ResetHard_Q07(void)
{
	GPIOPinWrite(GPIO_PORTF_BASE, GPIO_PIN_6, 0);
    185e:	4802      	ldr	r0, [pc, #8]	; (1868 <ResetHard_Q07+0xa>)
    1860:	2140      	movs	r1, #64	; 0x40
    1862:	2200      	movs	r2, #0
    1864:	f005 bb4d 	b.w	6f02 <GPIOPinWrite>
    1868:	40025000 	.word	0x40025000

0000186c <SetHard_Q07>:
// ----------------------------------------------------------------------------
// Q07
// ----------------------------------------------------------------------------
void SetHard_Q07(void)
{
	GPIOPinWrite(GPIO_PORTF_BASE, GPIO_PIN_6, GPIO_PIN_6);
    186c:	2140      	movs	r1, #64	; 0x40
    186e:	4802      	ldr	r0, [pc, #8]	; (1878 <SetHard_Q07+0xc>)
    1870:	460a      	mov	r2, r1
    1872:	f005 bb46 	b.w	6f02 <GPIOPinWrite>
    1876:	bf00      	nop
    1878:	40025000 	.word	0x40025000

0000187c <ResetHard_Q06>:
	GPIOPinWrite(GPIO_PORTB_BASE, GPIO_PIN_0, GPIO_PIN_0);
}

void ResetHard_Q06(void)
{
	GPIOPinWrite(GPIO_PORTB_BASE, GPIO_PIN_0, 0);
    187c:	4802      	ldr	r0, [pc, #8]	; (1888 <ResetHard_Q06+0xc>)
    187e:	2101      	movs	r1, #1
    1880:	2200      	movs	r2, #0
    1882:	f005 bb3e 	b.w	6f02 <GPIOPinWrite>
    1886:	bf00      	nop
    1888:	40005000 	.word	0x40005000

0000188c <SetHard_Q06>:
// ----------------------------------------------------------------------------
// Q06
// ----------------------------------------------------------------------------
void SetHard_Q06(void)
{
	GPIOPinWrite(GPIO_PORTB_BASE, GPIO_PIN_0, GPIO_PIN_0);
    188c:	2101      	movs	r1, #1
    188e:	4802      	ldr	r0, [pc, #8]	; (1898 <SetHard_Q06+0xc>)
    1890:	460a      	mov	r2, r1
    1892:	f005 bb36 	b.w	6f02 <GPIOPinWrite>
    1896:	bf00      	nop
    1898:	40005000 	.word	0x40005000

0000189c <ResetHard_Q05>:
	GPIOPinWrite(GPIO_PORTF_BASE, GPIO_PIN_3, GPIO_PIN_3);
}

void ResetHard_Q05(void)
{
	GPIOPinWrite(GPIO_PORTF_BASE, GPIO_PIN_3, 0);
    189c:	4802      	ldr	r0, [pc, #8]	; (18a8 <ResetHard_Q05+0xc>)
    189e:	2108      	movs	r1, #8
    18a0:	2200      	movs	r2, #0
    18a2:	f005 bb2e 	b.w	6f02 <GPIOPinWrite>
    18a6:	bf00      	nop
    18a8:	40025000 	.word	0x40025000

000018ac <SetHard_Q05>:
// ----------------------------------------------------------------------------
// Q05
// ----------------------------------------------------------------------------
void SetHard_Q05(void)
{
	GPIOPinWrite(GPIO_PORTF_BASE, GPIO_PIN_3, GPIO_PIN_3);
    18ac:	2108      	movs	r1, #8
    18ae:	4802      	ldr	r0, [pc, #8]	; (18b8 <SetHard_Q05+0xc>)
    18b0:	460a      	mov	r2, r1
    18b2:	f005 bb26 	b.w	6f02 <GPIOPinWrite>
    18b6:	bf00      	nop
    18b8:	40025000 	.word	0x40025000

000018bc <ResetHard_Q04>:
	GPIOPinWrite(GPIO_PORTF_BASE, GPIO_PIN_2, GPIO_PIN_2);
}

void ResetHard_Q04(void)
{
	GPIOPinWrite(GPIO_PORTF_BASE, GPIO_PIN_2, 0);
    18bc:	4802      	ldr	r0, [pc, #8]	; (18c8 <ResetHard_Q04+0xc>)
    18be:	2104      	movs	r1, #4
    18c0:	2200      	movs	r2, #0
    18c2:	f005 bb1e 	b.w	6f02 <GPIOPinWrite>
    18c6:	bf00      	nop
    18c8:	40025000 	.word	0x40025000

000018cc <SetHard_Q04>:
// ----------------------------------------------------------------------------
// Q04
// ----------------------------------------------------------------------------
void SetHard_Q04(void)
{
	GPIOPinWrite(GPIO_PORTF_BASE, GPIO_PIN_2, GPIO_PIN_2);
    18cc:	2104      	movs	r1, #4
    18ce:	4802      	ldr	r0, [pc, #8]	; (18d8 <SetHard_Q04+0xc>)
    18d0:	460a      	mov	r2, r1
    18d2:	f005 bb16 	b.w	6f02 <GPIOPinWrite>
    18d6:	bf00      	nop
    18d8:	40025000 	.word	0x40025000

000018dc <ResetHard_Q03>:
	GPIOPinWrite(GPIO_PORTH_BASE, GPIO_PIN_1, GPIO_PIN_1);
}

void ResetHard_Q03(void)
{
	GPIOPinWrite(GPIO_PORTH_BASE, GPIO_PIN_1, 0);
    18dc:	4802      	ldr	r0, [pc, #8]	; (18e8 <ResetHard_Q03+0xc>)
    18de:	2102      	movs	r1, #2
    18e0:	2200      	movs	r2, #0
    18e2:	f005 bb0e 	b.w	6f02 <GPIOPinWrite>
    18e6:	bf00      	nop
    18e8:	40027000 	.word	0x40027000

000018ec <SetHard_Q03>:
// ----------------------------------------------------------------------------
// Q03
// ----------------------------------------------------------------------------
void SetHard_Q03(void)
{
	GPIOPinWrite(GPIO_PORTH_BASE, GPIO_PIN_1, GPIO_PIN_1);
    18ec:	2102      	movs	r1, #2
    18ee:	4802      	ldr	r0, [pc, #8]	; (18f8 <SetHard_Q03+0xc>)
    18f0:	460a      	mov	r2, r1
    18f2:	f005 bb06 	b.w	6f02 <GPIOPinWrite>
    18f6:	bf00      	nop
    18f8:	40027000 	.word	0x40027000

000018fc <ResetHard_Q02>:
	GPIOPinWrite(GPIO_PORTH_BASE, GPIO_PIN_0, GPIO_PIN_0);
}

void ResetHard_Q02(void)
{
	GPIOPinWrite(GPIO_PORTH_BASE, GPIO_PIN_0, 0);
    18fc:	4802      	ldr	r0, [pc, #8]	; (1908 <ResetHard_Q02+0xc>)
    18fe:	2101      	movs	r1, #1
    1900:	2200      	movs	r2, #0
    1902:	f005 bafe 	b.w	6f02 <GPIOPinWrite>
    1906:	bf00      	nop
    1908:	40027000 	.word	0x40027000

0000190c <SetHard_Q02>:
// ----------------------------------------------------------------------------
// Q02
// ----------------------------------------------------------------------------
void SetHard_Q02(void)
{
	GPIOPinWrite(GPIO_PORTH_BASE, GPIO_PIN_0, GPIO_PIN_0);
    190c:	2101      	movs	r1, #1
    190e:	4802      	ldr	r0, [pc, #8]	; (1918 <SetHard_Q02+0xc>)
    1910:	460a      	mov	r2, r1
    1912:	f005 baf6 	b.w	6f02 <GPIOPinWrite>
    1916:	bf00      	nop
    1918:	40027000 	.word	0x40027000

0000191c <ResetHard_Q01>:
	GPIOPinWrite(GPIO_PORTD_BASE, GPIO_PIN_1, GPIO_PIN_1);
}

void ResetHard_Q01(void)
{
	GPIOPinWrite(GPIO_PORTD_BASE, GPIO_PIN_1, 0);
    191c:	4802      	ldr	r0, [pc, #8]	; (1928 <ResetHard_Q01+0xc>)
    191e:	2102      	movs	r1, #2
    1920:	2200      	movs	r2, #0
    1922:	f005 baee 	b.w	6f02 <GPIOPinWrite>
    1926:	bf00      	nop
    1928:	40007000 	.word	0x40007000

0000192c <SetHard_Q01>:
// ----------------------------------------------------------------------------
// Q01
// ----------------------------------------------------------------------------
void SetHard_Q01(void)
{
	GPIOPinWrite(GPIO_PORTD_BASE, GPIO_PIN_1, GPIO_PIN_1);
    192c:	2102      	movs	r1, #2
    192e:	4802      	ldr	r0, [pc, #8]	; (1938 <SetHard_Q01+0xc>)
    1930:	460a      	mov	r2, r1
    1932:	f005 bae6 	b.w	6f02 <GPIOPinWrite>
    1936:	bf00      	nop
    1938:	40007000 	.word	0x40007000

0000193c <ResetHard_Q00>:
	GPIOPinWrite(GPIO_PORTG_BASE, GPIO_PIN_2, GPIO_PIN_2);
}

void ResetHard_Q00(void)
{
	GPIOPinWrite(GPIO_PORTG_BASE, GPIO_PIN_2, 0);
    193c:	4802      	ldr	r0, [pc, #8]	; (1948 <ResetHard_Q00+0xc>)
    193e:	2104      	movs	r1, #4
    1940:	2200      	movs	r2, #0
    1942:	f005 bade 	b.w	6f02 <GPIOPinWrite>
    1946:	bf00      	nop
    1948:	40026000 	.word	0x40026000

0000194c <SetHard_Q00>:
// ----------------------------------------------------------------------------
// Q00
// ----------------------------------------------------------------------------
void SetHard_Q00(void)
{
	GPIOPinWrite(GPIO_PORTG_BASE, GPIO_PIN_2, GPIO_PIN_2);
    194c:	2104      	movs	r1, #4
    194e:	4802      	ldr	r0, [pc, #8]	; (1958 <SetHard_Q00+0xc>)
    1950:	460a      	mov	r2, r1
    1952:	f005 bad6 	b.w	6f02 <GPIOPinWrite>
    1956:	bf00      	nop
    1958:	40026000 	.word	0x40026000

0000195c <SetHard_Q0>:
void SetHard_Q0(byte out)
{
	/*
	 * Impuls zgrzewajcy
	 */
	if ((out & 0x01) > 0)
    195c:	f010 0f01 	tst.w	r0, #1
	return GetHard_Q10() + GetHard_Q11() + GetHard_Q12() + GetHard_Q13()
			+ GetHard_Q14() + GetHard_Q15() + GetHard_Q16() + GetHard_Q17();
}

void SetHard_Q0(byte out)
{
    1960:	b510      	push	{r4, lr}
    1962:	4604      	mov	r4, r0
	/*
	 * Impuls zgrzewajcy
	 */
	if ((out & 0x01) > 0)
    1964:	d002      	beq.n	196c <SetHard_Q0+0x10>
		SetHard_Q00();
    1966:	f7ff fff1 	bl	194c <SetHard_Q00>
    196a:	e001      	b.n	1970 <SetHard_Q0+0x14>
	else
		ResetHard_Q00();
    196c:	f7ff ffe6 	bl	193c <ResetHard_Q00>

	/*
	 * MV1
	 */
	if ((out & 0x02) > 0)
    1970:	f014 0f02 	tst.w	r4, #2
    1974:	d002      	beq.n	197c <SetHard_Q0+0x20>
		SetHard_Q01();
    1976:	f7ff ffd9 	bl	192c <SetHard_Q01>
    197a:	e001      	b.n	1980 <SetHard_Q0+0x24>
	else
		ResetHard_Q01();
    197c:	f7ff ffce 	bl	191c <ResetHard_Q01>

	/*
	 * MV2
	 */
	if ((out & 0x04) > 0)
    1980:	f014 0f04 	tst.w	r4, #4
    1984:	d002      	beq.n	198c <SetHard_Q0+0x30>
		SetHard_Q02();
    1986:	f7ff ffc1 	bl	190c <SetHard_Q02>
    198a:	e001      	b.n	1990 <SetHard_Q0+0x34>
	else
		ResetHard_Q02();
    198c:	f7ff ffb6 	bl	18fc <ResetHard_Q02>

	/*
	 * MV3
	 */
	if ((out & 0x08) > 0)
    1990:	f014 0f08 	tst.w	r4, #8
    1994:	d002      	beq.n	199c <SetHard_Q0+0x40>
		SetHard_Q03();
    1996:	f7ff ffa9 	bl	18ec <SetHard_Q03>
    199a:	e001      	b.n	19a0 <SetHard_Q0+0x44>
	else
		ResetHard_Q03();
    199c:	f7ff ff9e 	bl	18dc <ResetHard_Q03>

	/*
	 * MV4
	 */
	if ((out & 0x10) > 0)
    19a0:	f014 0f10 	tst.w	r4, #16
    19a4:	d002      	beq.n	19ac <SetHard_Q0+0x50>
		SetHard_Q04();
    19a6:	f7ff ff91 	bl	18cc <SetHard_Q04>
    19aa:	e001      	b.n	19b0 <SetHard_Q0+0x54>
	else
		ResetHard_Q04();
    19ac:	f7ff ff86 	bl	18bc <ResetHard_Q04>

	/*
	 * danie na wyblokowanie
	 */
	if ((out & 0x20) > 0)
    19b0:	f014 0f20 	tst.w	r4, #32
    19b4:	d002      	beq.n	19bc <SetHard_Q0+0x60>
		SetHard_Q05();
    19b6:	f7ff ff79 	bl	18ac <SetHard_Q05>
    19ba:	e001      	b.n	19c0 <SetHard_Q0+0x64>
	else
		ResetHard_Q05();
    19bc:	f7ff ff6e 	bl	189c <ResetHard_Q05>

	/*
	 * VZ - przepyw prdu
	 */
	if ((out & 0x40) > 0)
    19c0:	f014 0f40 	tst.w	r4, #64	; 0x40
    19c4:	d002      	beq.n	19cc <SetHard_Q0+0x70>
		SetHard_Q06();
    19c6:	f7ff ff61 	bl	188c <SetHard_Q06>
    19ca:	e001      	b.n	19d0 <SetHard_Q0+0x74>
	else
		ResetHard_Q06();
    19cc:	f7ff ff56 	bl	187c <ResetHard_Q06>

	/*
	 * FK
	 */
	if ((out & 0x80) > 0)
    19d0:	f014 0f80 	tst.w	r4, #128	; 0x80
		SetHard_Q07();
	else
		ResetHard_Q07();
}
    19d4:	e8bd 4010 	ldmia.w	sp!, {r4, lr}
		ResetHard_Q06();

	/*
	 * FK
	 */
	if ((out & 0x80) > 0)
    19d8:	d000      	beq.n	19dc <SetHard_Q0+0x80>
		SetHard_Q07();
    19da:	e747      	b.n	186c <SetHard_Q07>
	else
		ResetHard_Q07();
    19dc:	e73f      	b.n	185e <ResetHard_Q07>

000019de <ADC_AIN_Odczyt>:
	ADCProcessorTrigger(ADC0_BASE, 2);
}

//*****************************************************************************
void ADC_AIN_Odczyt(unsigned long buf[])
{
    19de:	4602      	mov	r2, r0
	ADCSequenceDataGet(ADC0_BASE, 2, buf);
    19e0:	4801      	ldr	r0, [pc, #4]	; (19e8 <ADC_AIN_Odczyt+0xa>)
    19e2:	2102      	movs	r1, #2
    19e4:	f004 bfff 	b.w	69e6 <ADCSequenceDataGet>
    19e8:	40038000 	.word	0x40038000

000019ec <ADC_Pomiar_Odczyt>:
	ADCProcessorTrigger(ADC0_BASE, 1);
}

//*****************************************************************************
void ADC_Pomiar_Odczyt(unsigned long buf[])
{
    19ec:	4602      	mov	r2, r0
	ADCSequenceDataGet(ADC0_BASE, 1, buf);
    19ee:	4802      	ldr	r0, [pc, #8]	; (19f8 <ADC_Pomiar_Odczyt+0xc>)
    19f0:	2101      	movs	r1, #1
    19f2:	f004 bff8 	b.w	69e6 <ADCSequenceDataGet>
    19f6:	bf00      	nop
    19f8:	40038000 	.word	0x40038000

000019fc <ADC_Odczyt>:
	ADCProcessorTrigger(ADC0_BASE, 0);
}

//*****************************************************************************
void ADC_Odczyt(unsigned long buf[])
{
    19fc:	4602      	mov	r2, r0
	ADCSequenceDataGet(ADC0_BASE, 0, buf);
    19fe:	4802      	ldr	r0, [pc, #8]	; (1a08 <ADC_Odczyt+0xc>)
    1a00:	2100      	movs	r1, #0
    1a02:	f004 bff0 	b.w	69e6 <ADCSequenceDataGet>
    1a06:	bf00      	nop
    1a08:	40038000 	.word	0x40038000

00001a0c <ADC_Odczyt2>:
{
	ADCSequenceDataGet(ADC0_BASE, 1, buf);
}

void ADC_Odczyt2(unsigned long buf[])
{
    1a0c:	4602      	mov	r2, r0
	ADCSequenceDataGet(ADC0_BASE, 2, buf);
    1a0e:	4802      	ldr	r0, [pc, #8]	; (1a18 <ADC_Odczyt2+0xc>)
    1a10:	2102      	movs	r1, #2
    1a12:	f004 bfe8 	b.w	69e6 <ADCSequenceDataGet>
    1a16:	bf00      	nop
    1a18:	40038000 	.word	0x40038000

00001a1c <ADC_Odczyt1>:
{
	ADCProcessorTrigger(ADC0_BASE, 2);
}

void ADC_Odczyt1(unsigned long buf[])
{
    1a1c:	4602      	mov	r2, r0
	ADCSequenceDataGet(ADC0_BASE, 1, buf);
    1a1e:	4802      	ldr	r0, [pc, #8]	; (1a28 <ADC_Odczyt1+0xc>)
    1a20:	2101      	movs	r1, #1
    1a22:	f004 bfe0 	b.w	69e6 <ADCSequenceDataGet>
    1a26:	bf00      	nop
    1a28:	40038000 	.word	0x40038000

00001a2c <ADC_AIN_Start>:
}

//*****************************************************************************
void ADC_AIN_Start(void)
{
	ADCProcessorTrigger(ADC0_BASE, 2);
    1a2c:	4801      	ldr	r0, [pc, #4]	; (1a34 <ADC_AIN_Start+0x8>)
    1a2e:	2102      	movs	r1, #2
    1a30:	f004 bfe9 	b.w	6a06 <ADCProcessorTrigger>
    1a34:	40038000 	.word	0x40038000

00001a38 <ADC_Pomiar_Start>:
}

//*****************************************************************************
void ADC_Pomiar_Start(void)
{
	ADCProcessorTrigger(ADC0_BASE, 1);
    1a38:	4801      	ldr	r0, [pc, #4]	; (1a40 <ADC_Pomiar_Start+0x8>)
    1a3a:	2101      	movs	r1, #1
    1a3c:	f004 bfe3 	b.w	6a06 <ADCProcessorTrigger>
    1a40:	40038000 	.word	0x40038000

00001a44 <ADC_Start>:
//*****************************************************************************

//*****************************************************************************
void ADC_Start(void)
{
	ADCProcessorTrigger(ADC0_BASE, 0);
    1a44:	4801      	ldr	r0, [pc, #4]	; (1a4c <ADC_Start+0x8>)
    1a46:	2100      	movs	r1, #0
    1a48:	f004 bfdd 	b.w	6a06 <ADCProcessorTrigger>
    1a4c:	40038000 	.word	0x40038000

00001a50 <ADC_Start2>:
	ADCProcessorTrigger(ADC0_BASE, 1);
}

void ADC_Start2(void)
{
	ADCProcessorTrigger(ADC0_BASE, 2);
    1a50:	4801      	ldr	r0, [pc, #4]	; (1a58 <ADC_Start2+0x8>)
    1a52:	2102      	movs	r1, #2
    1a54:	f004 bfd7 	b.w	6a06 <ADCProcessorTrigger>
    1a58:	40038000 	.word	0x40038000

00001a5c <ADC_Start1>:
// Pomiar i odczyt - wersja trzecia
//*****************************************************************************

void ADC_Start1(void)
{
	ADCProcessorTrigger(ADC0_BASE, 1);
    1a5c:	4801      	ldr	r0, [pc, #4]	; (1a64 <ADC_Start1+0x8>)
    1a5e:	2101      	movs	r1, #1
    1a60:	f004 bfd1 	b.w	6a06 <ADCProcessorTrigger>
    1a64:	40038000 	.word	0x40038000

00001a68 <ADC_Init3>:
//*****************************************************************************
// Inicjacja - wersja trzecia
//*****************************************************************************

void ADC_Init3(void)
{
    1a68:	b510      	push	{r4, lr}
	SysCtlPeripheralEnable(SYSCTL_PERIPH_ADC0);
    1a6a:	4824      	ldr	r0, [pc, #144]	; (1afc <ADC_Init3+0x94>)
    1a6c:	f005 fdde 	bl	762c <SysCtlPeripheralEnable>

	// *******************************************************************
	// Sekwenser nr1, trigger softwarewy, priorytet 0
	// *******************************************************************
	ADCSequenceConfigure(ADC0_BASE, 1, ADC_TRIGGER_PROCESSOR, 0);
    1a70:	2200      	movs	r2, #0
    1a72:	2101      	movs	r1, #1
    1a74:	4613      	mov	r3, r2
    1a76:	4822      	ldr	r0, [pc, #136]	; (1b00 <ADC_Init3+0x98>)
    1a78:	f004 ff4f 	bl	691a <ADCSequenceConfigure>
	ADCSequenceStepConfigure(ADC0_BASE, 1, 0, ADC_CTL_CH0);
    1a7c:	2200      	movs	r2, #0
    1a7e:	2101      	movs	r1, #1
    1a80:	4613      	mov	r3, r2
    1a82:	481f      	ldr	r0, [pc, #124]	; (1b00 <ADC_Init3+0x98>)
    1a84:	f004 ff64 	bl	6950 <ADCSequenceStepConfigure>
	ADCSequenceStepConfigure(ADC0_BASE, 1, 1, ADC_CTL_CH1);
    1a88:	2101      	movs	r1, #1
    1a8a:	460a      	mov	r2, r1
    1a8c:	460b      	mov	r3, r1
    1a8e:	481c      	ldr	r0, [pc, #112]	; (1b00 <ADC_Init3+0x98>)
    1a90:	f004 ff5e 	bl	6950 <ADCSequenceStepConfigure>
	ADCSequenceStepConfigure(ADC0_BASE, 1, 2, ADC_CTL_CH2);
    1a94:	2202      	movs	r2, #2
    1a96:	2101      	movs	r1, #1
    1a98:	4613      	mov	r3, r2
    1a9a:	4819      	ldr	r0, [pc, #100]	; (1b00 <ADC_Init3+0x98>)
    1a9c:	f004 ff58 	bl	6950 <ADCSequenceStepConfigure>
	ADCSequenceStepConfigure(ADC0_BASE, 1, 3, ADC_CTL_CH3 | ADC_CTL_END);
    1aa0:	2203      	movs	r2, #3
    1aa2:	2323      	movs	r3, #35	; 0x23
    1aa4:	2101      	movs	r1, #1
    1aa6:	4816      	ldr	r0, [pc, #88]	; (1b00 <ADC_Init3+0x98>)
    1aa8:	f004 ff52 	bl	6950 <ADCSequenceStepConfigure>
	ADCSequenceEnable(ADC0_BASE, 1);
    1aac:	2101      	movs	r1, #1
    1aae:	4814      	ldr	r0, [pc, #80]	; (1b00 <ADC_Init3+0x98>)
    1ab0:	f004 ff25 	bl	68fe <ADCSequenceEnable>

	// *******************************************************************
	// Sekwenser nr2, trigger softwarewy, priorytet 0
	// *******************************************************************
	ADCSequenceConfigure(ADC0_BASE, 2, ADC_TRIGGER_PROCESSOR, 0);
    1ab4:	2200      	movs	r2, #0
    1ab6:	2102      	movs	r1, #2
    1ab8:	4613      	mov	r3, r2
    1aba:	4811      	ldr	r0, [pc, #68]	; (1b00 <ADC_Init3+0x98>)
    1abc:	f004 ff2d 	bl	691a <ADCSequenceConfigure>
	ADCSequenceStepConfigure(ADC0_BASE, 2, 0, ADC_CTL_CH0);
    1ac0:	2200      	movs	r2, #0
    1ac2:	2102      	movs	r1, #2
    1ac4:	4613      	mov	r3, r2
    1ac6:	480e      	ldr	r0, [pc, #56]	; (1b00 <ADC_Init3+0x98>)
    1ac8:	f004 ff42 	bl	6950 <ADCSequenceStepConfigure>
	ADCSequenceStepConfigure(ADC0_BASE, 2, 1, ADC_CTL_CH1);
    1acc:	2201      	movs	r2, #1
    1ace:	2102      	movs	r1, #2
    1ad0:	4613      	mov	r3, r2
    1ad2:	480b      	ldr	r0, [pc, #44]	; (1b00 <ADC_Init3+0x98>)
    1ad4:	f004 ff3c 	bl	6950 <ADCSequenceStepConfigure>
	ADCSequenceStepConfigure(ADC0_BASE, 2, 2, ADC_CTL_CH4);
    1ad8:	2102      	movs	r1, #2
    1ada:	460a      	mov	r2, r1
    1adc:	2304      	movs	r3, #4
    1ade:	4808      	ldr	r0, [pc, #32]	; (1b00 <ADC_Init3+0x98>)
    1ae0:	f004 ff36 	bl	6950 <ADCSequenceStepConfigure>
	ADCSequenceStepConfigure(ADC0_BASE, 2, 3, ADC_CTL_TS | ADC_CTL_END);
    1ae4:	4806      	ldr	r0, [pc, #24]	; (1b00 <ADC_Init3+0x98>)
    1ae6:	2102      	movs	r1, #2
    1ae8:	2203      	movs	r2, #3
    1aea:	23a0      	movs	r3, #160	; 0xa0
    1aec:	f004 ff30 	bl	6950 <ADCSequenceStepConfigure>
	ADCSequenceEnable(ADC0_BASE, 2);
    1af0:	4803      	ldr	r0, [pc, #12]	; (1b00 <ADC_Init3+0x98>)
    1af2:	2102      	movs	r1, #2
}
    1af4:	e8bd 4010 	ldmia.w	sp!, {r4, lr}
	ADCSequenceConfigure(ADC0_BASE, 2, ADC_TRIGGER_PROCESSOR, 0);
	ADCSequenceStepConfigure(ADC0_BASE, 2, 0, ADC_CTL_CH0);
	ADCSequenceStepConfigure(ADC0_BASE, 2, 1, ADC_CTL_CH1);
	ADCSequenceStepConfigure(ADC0_BASE, 2, 2, ADC_CTL_CH4);
	ADCSequenceStepConfigure(ADC0_BASE, 2, 3, ADC_CTL_TS | ADC_CTL_END);
	ADCSequenceEnable(ADC0_BASE, 2);
    1af8:	f004 bf01 	b.w	68fe <ADCSequenceEnable>
    1afc:	00100001 	.word	0x00100001
    1b00:	40038000 	.word	0x40038000

00001b04 <ADC_Init>:
//*****************************************************************************
// Inicjacja - wersja pierwsza
//*****************************************************************************

void ADC_Init(void)
{
    1b04:	b510      	push	{r4, lr}
	SysCtlPeripheralEnable(SYSCTL_PERIPH_ADC0);
    1b06:	481e      	ldr	r0, [pc, #120]	; (1b80 <ADC_Init+0x7c>)
    1b08:	f005 fd90 	bl	762c <SysCtlPeripheralEnable>

	// *******************************************************************
	// Konfiguracja pomiaru prdu i napicia
	// Sekwenser nr1, trigger softwarewy, priorytet 1
	// *******************************************************************
	ADCSequenceConfigure(ADC0_BASE, 1, ADC_TRIGGER_PROCESSOR, 1);
    1b0c:	2101      	movs	r1, #1
    1b0e:	2200      	movs	r2, #0
    1b10:	460b      	mov	r3, r1
    1b12:	481c      	ldr	r0, [pc, #112]	; (1b84 <ADC_Init+0x80>)
    1b14:	f004 ff01 	bl	691a <ADCSequenceConfigure>
	// Sekwencja nr1:
	// Krok 0: ADC0
	ADCSequenceStepConfigure(ADC0_BASE, 1, 0, ADC_CTL_CH0);
    1b18:	2200      	movs	r2, #0
    1b1a:	2101      	movs	r1, #1
    1b1c:	4613      	mov	r3, r2
    1b1e:	4819      	ldr	r0, [pc, #100]	; (1b84 <ADC_Init+0x80>)
    1b20:	f004 ff16 	bl	6950 <ADCSequenceStepConfigure>
	// Krok 1: ADC1 + END
	ADCSequenceStepConfigure(ADC0_BASE, 1, 1, ADC_CTL_CH1 | ADC_CTL_END);
    1b24:	2101      	movs	r1, #1
    1b26:	460a      	mov	r2, r1
    1b28:	2321      	movs	r3, #33	; 0x21
    1b2a:	4816      	ldr	r0, [pc, #88]	; (1b84 <ADC_Init+0x80>)
    1b2c:	f004 ff10 	bl	6950 <ADCSequenceStepConfigure>
	// Wczenie sekwencji nr 1
	ADCSequenceEnable(ADC0_BASE, 1);
    1b30:	2101      	movs	r1, #1
    1b32:	4814      	ldr	r0, [pc, #80]	; (1b84 <ADC_Init+0x80>)
    1b34:	f004 fee3 	bl	68fe <ADCSequenceEnable>

	// *******************************************************************
	// Konfiguracja pomiaru AIN i temperatury procka
	// Sekwenser nr2, trigger softwarewy, priorytet 0
	// *******************************************************************
	ADCSequenceConfigure(ADC0_BASE, 2, ADC_TRIGGER_PROCESSOR, 0);
    1b38:	2200      	movs	r2, #0
    1b3a:	2102      	movs	r1, #2
    1b3c:	4613      	mov	r3, r2
    1b3e:	4811      	ldr	r0, [pc, #68]	; (1b84 <ADC_Init+0x80>)
    1b40:	f004 feeb 	bl	691a <ADCSequenceConfigure>
	// Sekwencja nr2:
	// Krok 0: ADC2
	ADCSequenceStepConfigure(ADC0_BASE, 2, 0, ADC_CTL_CH2);
    1b44:	2102      	movs	r1, #2
    1b46:	2200      	movs	r2, #0
    1b48:	460b      	mov	r3, r1
    1b4a:	480e      	ldr	r0, [pc, #56]	; (1b84 <ADC_Init+0x80>)
    1b4c:	f004 ff00 	bl	6950 <ADCSequenceStepConfigure>
	// Krok 1: ADC3
	ADCSequenceStepConfigure(ADC0_BASE, 2, 1, ADC_CTL_CH3);
    1b50:	2102      	movs	r1, #2
    1b52:	2201      	movs	r2, #1
    1b54:	2303      	movs	r3, #3
    1b56:	480b      	ldr	r0, [pc, #44]	; (1b84 <ADC_Init+0x80>)
    1b58:	f004 fefa 	bl	6950 <ADCSequenceStepConfigure>
	// Krok 2: ADC4
	ADCSequenceStepConfigure(ADC0_BASE, 2, 2, ADC_CTL_CH4);
    1b5c:	2102      	movs	r1, #2
    1b5e:	460a      	mov	r2, r1
    1b60:	2304      	movs	r3, #4
    1b62:	4808      	ldr	r0, [pc, #32]	; (1b84 <ADC_Init+0x80>)
    1b64:	f004 fef4 	bl	6950 <ADCSequenceStepConfigure>
	// Krok 4: Temp
	ADCSequenceStepConfigure(ADC0_BASE, 2, 3, ADC_CTL_TS | ADC_CTL_END);
    1b68:	2102      	movs	r1, #2
    1b6a:	4806      	ldr	r0, [pc, #24]	; (1b84 <ADC_Init+0x80>)
    1b6c:	2203      	movs	r2, #3
    1b6e:	23a0      	movs	r3, #160	; 0xa0
    1b70:	f004 feee 	bl	6950 <ADCSequenceStepConfigure>
	// Wczenie sekwencji nr 2
	ADCSequenceEnable(ADC0_BASE, 2);
    1b74:	4803      	ldr	r0, [pc, #12]	; (1b84 <ADC_Init+0x80>)
    1b76:	2102      	movs	r1, #2
}
    1b78:	e8bd 4010 	ldmia.w	sp!, {r4, lr}
	// Krok 2: ADC4
	ADCSequenceStepConfigure(ADC0_BASE, 2, 2, ADC_CTL_CH4);
	// Krok 4: Temp
	ADCSequenceStepConfigure(ADC0_BASE, 2, 3, ADC_CTL_TS | ADC_CTL_END);
	// Wczenie sekwencji nr 2
	ADCSequenceEnable(ADC0_BASE, 2);
    1b7c:	f004 bebf 	b.w	68fe <ADCSequenceEnable>
    1b80:	00100001 	.word	0x00100001
    1b84:	40038000 	.word	0x40038000

00001b88 <ADC_Init2>:
//*****************************************************************************
// Inicjacja - wersja druga
//*****************************************************************************

void ADC_Init2(void)
{
    1b88:	b510      	push	{r4, lr}
	SysCtlPeripheralEnable(SYSCTL_PERIPH_ADC0);
    1b8a:	481b      	ldr	r0, [pc, #108]	; (1bf8 <ADC_Init2+0x70>)
    1b8c:	f005 fd4e 	bl	762c <SysCtlPeripheralEnable>
	SysCtlADCSpeedSet(SYSCTL_ADCSPEED_1MSPS);
    1b90:	f44f 7040 	mov.w	r0, #768	; 0x300
    1b94:	f005 ffce 	bl	7b34 <SysCtlADCSpeedSet>

	// *******************************************************************
	// Konfiguracja analogw - pomiar i reszta razem
	// Sekwenser nr0, trigger softwarewy, priorytet 0
	// *******************************************************************
	ADCSequenceConfigure(ADC0_BASE, 0, ADC_TRIGGER_PROCESSOR, 0);
    1b98:	2100      	movs	r1, #0
    1b9a:	460a      	mov	r2, r1
    1b9c:	460b      	mov	r3, r1
    1b9e:	4817      	ldr	r0, [pc, #92]	; (1bfc <ADC_Init2+0x74>)
    1ba0:	f004 febb 	bl	691a <ADCSequenceConfigure>
	// Sekwencja nr1:
	// Krok 0: ADC0
	ADCSequenceStepConfigure(ADC0_BASE, 0, 0, ADC_CTL_CH0);
    1ba4:	2100      	movs	r1, #0
    1ba6:	460a      	mov	r2, r1
    1ba8:	460b      	mov	r3, r1
    1baa:	4814      	ldr	r0, [pc, #80]	; (1bfc <ADC_Init2+0x74>)
    1bac:	f004 fed0 	bl	6950 <ADCSequenceStepConfigure>
	// Krok 1: ADC1
	ADCSequenceStepConfigure(ADC0_BASE, 0, 1, ADC_CTL_CH1);
    1bb0:	2201      	movs	r2, #1
    1bb2:	2100      	movs	r1, #0
    1bb4:	4613      	mov	r3, r2
    1bb6:	4811      	ldr	r0, [pc, #68]	; (1bfc <ADC_Init2+0x74>)
    1bb8:	f004 feca 	bl	6950 <ADCSequenceStepConfigure>
	// Krok 2: ADC2
	ADCSequenceStepConfigure(ADC0_BASE, 0, 2, ADC_CTL_CH2);
    1bbc:	2202      	movs	r2, #2
    1bbe:	2100      	movs	r1, #0
    1bc0:	4613      	mov	r3, r2
    1bc2:	480e      	ldr	r0, [pc, #56]	; (1bfc <ADC_Init2+0x74>)
    1bc4:	f004 fec4 	bl	6950 <ADCSequenceStepConfigure>
	// Krok 3: ADC3
	ADCSequenceStepConfigure(ADC0_BASE, 0, 3, ADC_CTL_CH3);
    1bc8:	2203      	movs	r2, #3
    1bca:	2100      	movs	r1, #0
    1bcc:	4613      	mov	r3, r2
    1bce:	480b      	ldr	r0, [pc, #44]	; (1bfc <ADC_Init2+0x74>)
    1bd0:	f004 febe 	bl	6950 <ADCSequenceStepConfigure>
	// Krok 4: ADC4
	ADCSequenceStepConfigure(ADC0_BASE, 0, 4, ADC_CTL_CH4);
    1bd4:	2204      	movs	r2, #4
    1bd6:	2100      	movs	r1, #0
    1bd8:	4613      	mov	r3, r2
    1bda:	4808      	ldr	r0, [pc, #32]	; (1bfc <ADC_Init2+0x74>)
    1bdc:	f004 feb8 	bl	6950 <ADCSequenceStepConfigure>
	// Krok 5: Temp
	ADCSequenceStepConfigure(ADC0_BASE, 0, 5, ADC_CTL_TS | ADC_CTL_END);
    1be0:	2100      	movs	r1, #0
    1be2:	4806      	ldr	r0, [pc, #24]	; (1bfc <ADC_Init2+0x74>)
    1be4:	2205      	movs	r2, #5
    1be6:	23a0      	movs	r3, #160	; 0xa0
    1be8:	f004 feb2 	bl	6950 <ADCSequenceStepConfigure>

	// Wczenie sekwencji nr 1
	ADCSequenceEnable(ADC0_BASE, 0);
    1bec:	4803      	ldr	r0, [pc, #12]	; (1bfc <ADC_Init2+0x74>)
    1bee:	2100      	movs	r1, #0

}
    1bf0:	e8bd 4010 	ldmia.w	sp!, {r4, lr}
	ADCSequenceStepConfigure(ADC0_BASE, 0, 4, ADC_CTL_CH4);
	// Krok 5: Temp
	ADCSequenceStepConfigure(ADC0_BASE, 0, 5, ADC_CTL_TS | ADC_CTL_END);

	// Wczenie sekwencji nr 1
	ADCSequenceEnable(ADC0_BASE, 0);
    1bf4:	f004 be83 	b.w	68fe <ADCSequenceEnable>
    1bf8:	00100001 	.word	0x00100001
    1bfc:	40038000 	.word	0x40038000

00001c00 <SPI_Wait>:
//*****************************************************************************
// Obsuga SPI
//*****************************************************************************

void SPI_Wait()
{
    1c00:	b508      	push	{r3, lr}
	while (SSIBusy(SSI1_BASE))
    1c02:	4803      	ldr	r0, [pc, #12]	; (1c10 <SPI_Wait+0x10>)
    1c04:	f005 fc8e 	bl	7524 <SSIBusy>
    1c08:	2800      	cmp	r0, #0
    1c0a:	d1fa      	bne.n	1c02 <SPI_Wait+0x2>
	{
	}
}
    1c0c:	bd08      	pop	{r3, pc}
    1c0e:	bf00      	nop
    1c10:	40009000 	.word	0x40009000

00001c14 <SPI_Inputs>:
	SPI_EmptyFIFO();
}

//*****************************************************************************
void SPI_Inputs(unsigned char* in2, unsigned char* in3, unsigned char* in4)
{
    1c14:	b5f0      	push	{r4, r5, r6, r7, lr}
    1c16:	2300      	movs	r3, #0
    1c18:	b089      	sub	sp, #36	; 0x24
    1c1a:	4607      	mov	r7, r0
    1c1c:	460e      	mov	r6, r1
    1c1e:	4615      	mov	r5, r2
	unsigned int x;
	unsigned int fifo[8];

	for (x = 0; x < 8; x++)
		fifo[x] = 0;
    1c20:	2400      	movs	r4, #0
    1c22:	f84d 4003 	str.w	r4, [sp, r3]
    1c26:	3304      	adds	r3, #4
void SPI_Inputs(unsigned char* in2, unsigned char* in3, unsigned char* in4)
{
	unsigned int x;
	unsigned int fifo[8];

	for (x = 0; x < 8; x++)
    1c28:	2b20      	cmp	r3, #32
    1c2a:	d1f9      	bne.n	1c20 <SPI_Inputs+0xc>
	// WEJSCIA Z MODUU IO2
	// --------------------------------------------------

	//Delay(10000);
	//SPI_EmptyFIFO();
	GPIOPinWrite(GPIO_PORTB_BASE, GPIO_PIN_2, 0);
    1c2c:	4622      	mov	r2, r4
    1c2e:	4820      	ldr	r0, [pc, #128]	; (1cb0 <SPI_Inputs+0x9c>)
    1c30:	2104      	movs	r1, #4
    1c32:	f005 f966 	bl	6f02 <GPIOPinWrite>
	SSIDataPut(SSI1_BASE, 0x4112);
    1c36:	481f      	ldr	r0, [pc, #124]	; (1cb4 <SPI_Inputs+0xa0>)
    1c38:	f244 1112 	movw	r1, #16658	; 0x4112
    1c3c:	f005 fc4a 	bl	74d4 <SSIDataPut>
	SSIDataPut(SSI1_BASE, 0x0000);
    1c40:	481c      	ldr	r0, [pc, #112]	; (1cb4 <SPI_Inputs+0xa0>)
    1c42:	4621      	mov	r1, r4
    1c44:	f005 fc46 	bl	74d4 <SSIDataPut>
	SPI_Wait();
    1c48:	f7ff ffda 	bl	1c00 <SPI_Wait>
	GPIOPinWrite(GPIO_PORTB_BASE, GPIO_PIN_2, GPIO_PIN_2);
    1c4c:	2104      	movs	r1, #4
    1c4e:	4818      	ldr	r0, [pc, #96]	; (1cb0 <SPI_Inputs+0x9c>)
    1c50:	460a      	mov	r2, r1
    1c52:	f005 f956 	bl	6f02 <GPIOPinWrite>

	for (x = 0; x < 8; x++)
		fifo[x] = HWREG(SSI1_BASE + SSI_O_DR);
    1c56:	4b18      	ldr	r3, [pc, #96]	; (1cb8 <SPI_Inputs+0xa4>)
    1c58:	681a      	ldr	r2, [r3, #0]
    1c5a:	f84d 2004 	str.w	r2, [sp, r4]
    1c5e:	3404      	adds	r4, #4
	SSIDataPut(SSI1_BASE, 0x4112);
	SSIDataPut(SSI1_BASE, 0x0000);
	SPI_Wait();
	GPIOPinWrite(GPIO_PORTB_BASE, GPIO_PIN_2, GPIO_PIN_2);

	for (x = 0; x < 8; x++)
    1c60:	2c20      	cmp	r4, #32
    1c62:	d1f8      	bne.n	1c56 <SPI_Inputs+0x42>
	 for (x = 0; x < 8; x++)
	 UARTprintf("%04x.", fifo[x]);
	 UARTprintf("\n");
	 */

	*in2 = (unsigned char) ((fifo[1] >> 8) & 0xff);
    1c64:	9b01      	ldr	r3, [sp, #4]
	// WEJSCIA Z MODUU IO1
	// --------------------------------------------------

	//Delay(10000);
	//SPI_EmptyFIFO();
	GPIOPinWrite(GPIO_PORTB_BASE, GPIO_PIN_3, 0);
    1c66:	2200      	movs	r2, #0
	 for (x = 0; x < 8; x++)
	 UARTprintf("%04x.", fifo[x]);
	 UARTprintf("\n");
	 */

	*in2 = (unsigned char) ((fifo[1] >> 8) & 0xff);
    1c68:	0a1b      	lsrs	r3, r3, #8
    1c6a:	703b      	strb	r3, [r7, #0]
	// WEJSCIA Z MODUU IO1
	// --------------------------------------------------

	//Delay(10000);
	//SPI_EmptyFIFO();
	GPIOPinWrite(GPIO_PORTB_BASE, GPIO_PIN_3, 0);
    1c6c:	4810      	ldr	r0, [pc, #64]	; (1cb0 <SPI_Inputs+0x9c>)
    1c6e:	2108      	movs	r1, #8
    1c70:	f005 f947 	bl	6f02 <GPIOPinWrite>
	SSIDataPut(SSI1_BASE, 0x4112);
    1c74:	480f      	ldr	r0, [pc, #60]	; (1cb4 <SPI_Inputs+0xa0>)
    1c76:	f244 1112 	movw	r1, #16658	; 0x4112
    1c7a:	f005 fc2b 	bl	74d4 <SSIDataPut>
	SSIDataPut(SSI1_BASE, 0x0000);
    1c7e:	480d      	ldr	r0, [pc, #52]	; (1cb4 <SPI_Inputs+0xa0>)
    1c80:	2100      	movs	r1, #0
    1c82:	f005 fc27 	bl	74d4 <SSIDataPut>
	SPI_Wait();
    1c86:	f7ff ffbb 	bl	1c00 <SPI_Wait>
	GPIOPinWrite(GPIO_PORTB_BASE, GPIO_PIN_3, GPIO_PIN_3);
    1c8a:	2108      	movs	r1, #8
    1c8c:	4808      	ldr	r0, [pc, #32]	; (1cb0 <SPI_Inputs+0x9c>)
    1c8e:	460a      	mov	r2, r1
    1c90:	f005 f937 	bl	6f02 <GPIOPinWrite>
    1c94:	2300      	movs	r3, #0

	for (x = 0; x < 8; x++)
		fifo[x] = HWREG(SSI1_BASE + SSI_O_DR);
    1c96:	4a08      	ldr	r2, [pc, #32]	; (1cb8 <SPI_Inputs+0xa4>)
    1c98:	6811      	ldr	r1, [r2, #0]
    1c9a:	f84d 1003 	str.w	r1, [sp, r3]
    1c9e:	3304      	adds	r3, #4
	SSIDataPut(SSI1_BASE, 0x4112);
	SSIDataPut(SSI1_BASE, 0x0000);
	SPI_Wait();
	GPIOPinWrite(GPIO_PORTB_BASE, GPIO_PIN_3, GPIO_PIN_3);

	for (x = 0; x < 8; x++)
    1ca0:	2b20      	cmp	r3, #32
    1ca2:	d1f8      	bne.n	1c96 <SPI_Inputs+0x82>
	 for (x = 0; x < 8; x++)
	 UARTprintf("%04x.", fifo[x]);
	 UARTprintf("\n\n");
	 */

	*in3 = (unsigned char) ((fifo[1] >> 8) & 0xff);
    1ca4:	9b01      	ldr	r3, [sp, #4]
    1ca6:	0a1a      	lsrs	r2, r3, #8
    1ca8:	7032      	strb	r2, [r6, #0]
	*in4 = (unsigned char) (fifo[1] & 0xff);
    1caa:	702b      	strb	r3, [r5, #0]

	//SPI_EmptyFIFO();
}
    1cac:	b009      	add	sp, #36	; 0x24
    1cae:	bdf0      	pop	{r4, r5, r6, r7, pc}
    1cb0:	40005000 	.word	0x40005000
    1cb4:	40009000 	.word	0x40009000
    1cb8:	40009008 	.word	0x40009008

00001cbc <SPI_Outputs>:
// 2 BAJT - ADRES REJESTRU NP. 0X00 IODIRA
// 3 BAJT - ZAPIS DANYCH LUB ODCZYT

//*****************************************************************************
void SPI_Outputs(byte out2)
{
    1cbc:	b510      	push	{r4, lr}
    1cbe:	4604      	mov	r4, r0
	// WYJSCIA NA MODU IO2
	Delay(10000);
    1cc0:	f242 7010 	movw	r0, #10000	; 0x2710
    1cc4:	f004 fdb8 	bl	6838 <Delay>
	SPI_EmptyFIFO();
    1cc8:	f7ff fad0 	bl	126c <SPI_EmptyFIFO>
	GPIOPinWrite(GPIO_PORTB_BASE, GPIO_PIN_2, 0);
    1ccc:	2200      	movs	r2, #0
    1cce:	2104      	movs	r1, #4
    1cd0:	480b      	ldr	r0, [pc, #44]	; (1d00 <SPI_Outputs+0x44>)
    1cd2:	f005 f916 	bl	6f02 <GPIOPinWrite>
	SSIDataPut(SSI1_BASE, 0x4013);
    1cd6:	480b      	ldr	r0, [pc, #44]	; (1d04 <SPI_Outputs+0x48>)
    1cd8:	f244 0113 	movw	r1, #16403	; 0x4013
    1cdc:	f005 fbfa 	bl	74d4 <SSIDataPut>
	SSIDataPut(SSI1_BASE, out2 << 8);
    1ce0:	0221      	lsls	r1, r4, #8
    1ce2:	4808      	ldr	r0, [pc, #32]	; (1d04 <SPI_Outputs+0x48>)
    1ce4:	f005 fbf6 	bl	74d4 <SSIDataPut>
	SPI_Wait();
    1ce8:	f7ff ff8a 	bl	1c00 <SPI_Wait>
	GPIOPinWrite(GPIO_PORTB_BASE, GPIO_PIN_2, GPIO_PIN_2);
    1cec:	2104      	movs	r1, #4
    1cee:	4804      	ldr	r0, [pc, #16]	; (1d00 <SPI_Outputs+0x44>)
    1cf0:	460a      	mov	r2, r1
    1cf2:	f005 f906 	bl	6f02 <GPIOPinWrite>
	SPI_EmptyFIFO();
}
    1cf6:	e8bd 4010 	ldmia.w	sp!, {r4, lr}
	GPIOPinWrite(GPIO_PORTB_BASE, GPIO_PIN_2, 0);
	SSIDataPut(SSI1_BASE, 0x4013);
	SSIDataPut(SSI1_BASE, out2 << 8);
	SPI_Wait();
	GPIOPinWrite(GPIO_PORTB_BASE, GPIO_PIN_2, GPIO_PIN_2);
	SPI_EmptyFIFO();
    1cfa:	f7ff bab7 	b.w	126c <SPI_EmptyFIFO>
    1cfe:	bf00      	nop
    1d00:	40005000 	.word	0x40005000
    1d04:	40009000 	.word	0x40009000

00001d08 <SPI_DAC>:
	}
}

//*****************************************************************************
void SPI_DAC(unsigned int dac_a, unsigned int dac_b)
{
    1d08:	b570      	push	{r4, r5, r6, lr}
    1d0a:	4605      	mov	r5, r0
    1d0c:	460c      	mov	r4, r1
	// DAC A
	//Delay(10000);
	SPI_EmptyFIFO();
    1d0e:	f7ff faad 	bl	126c <SPI_EmptyFIFO>
	GPIOPinWrite(GPIO_PORTE_BASE, GPIO_PIN_1, 0);
    1d12:	2200      	movs	r2, #0
    1d14:	2102      	movs	r1, #2
    1d16:	4813      	ldr	r0, [pc, #76]	; (1d64 <SPI_DAC+0x5c>)
    1d18:	f005 f8f3 	bl	6f02 <GPIOPinWrite>
	SSIDataPut(SSI1_BASE, 0x3000 + dac_a);
    1d1c:	f505 5140 	add.w	r1, r5, #12288	; 0x3000
    1d20:	4811      	ldr	r0, [pc, #68]	; (1d68 <SPI_DAC+0x60>)
    1d22:	f005 fbd7 	bl	74d4 <SSIDataPut>
	SPI_Wait();
    1d26:	f7ff ff6b 	bl	1c00 <SPI_Wait>
	GPIOPinWrite(GPIO_PORTE_BASE, GPIO_PIN_1, GPIO_PIN_1);
    1d2a:	2102      	movs	r1, #2
    1d2c:	460a      	mov	r2, r1
    1d2e:	480d      	ldr	r0, [pc, #52]	; (1d64 <SPI_DAC+0x5c>)
    1d30:	f005 f8e7 	bl	6f02 <GPIOPinWrite>

	// DAC B
	//Delay(10000);
	SPI_EmptyFIFO();
    1d34:	f7ff fa9a 	bl	126c <SPI_EmptyFIFO>
	GPIOPinWrite(GPIO_PORTE_BASE, GPIO_PIN_1, 0);
    1d38:	2200      	movs	r2, #0
    1d3a:	2102      	movs	r1, #2
    1d3c:	4809      	ldr	r0, [pc, #36]	; (1d64 <SPI_DAC+0x5c>)
    1d3e:	f005 f8e0 	bl	6f02 <GPIOPinWrite>
	SSIDataPut(SSI1_BASE, 0xb000 + dac_b);
    1d42:	f504 4130 	add.w	r1, r4, #45056	; 0xb000
    1d46:	4808      	ldr	r0, [pc, #32]	; (1d68 <SPI_DAC+0x60>)
    1d48:	f005 fbc4 	bl	74d4 <SSIDataPut>
	SPI_Wait();
    1d4c:	f7ff ff58 	bl	1c00 <SPI_Wait>
	GPIOPinWrite(GPIO_PORTE_BASE, GPIO_PIN_1, GPIO_PIN_1);
    1d50:	2102      	movs	r1, #2
    1d52:	4804      	ldr	r0, [pc, #16]	; (1d64 <SPI_DAC+0x5c>)
    1d54:	460a      	mov	r2, r1
    1d56:	f005 f8d4 	bl	6f02 <GPIOPinWrite>
	SPI_EmptyFIFO();
}
    1d5a:	e8bd 4070 	ldmia.w	sp!, {r4, r5, r6, lr}
	SPI_EmptyFIFO();
	GPIOPinWrite(GPIO_PORTE_BASE, GPIO_PIN_1, 0);
	SSIDataPut(SSI1_BASE, 0xb000 + dac_b);
	SPI_Wait();
	GPIOPinWrite(GPIO_PORTE_BASE, GPIO_PIN_1, GPIO_PIN_1);
	SPI_EmptyFIFO();
    1d5e:	f7ff ba85 	b.w	126c <SPI_EmptyFIFO>
    1d62:	bf00      	nop
    1d64:	40024000 	.word	0x40024000
    1d68:	40009000 	.word	0x40009000

00001d6c <IO_Test>:
	ADCSequenceDataGet(ADC0_BASE, 2, buf);
}

//*****************************************************************************
void IO_Test(void)
{
    1d6c:	b510      	push	{r4, lr}
	// Manipulacje
	// -----------------
	//image.aout[0] = 4095; // 0xfff daje 2,048V -> 9,23V
	image.aout[1] = 10000;
    1d6e:	4b23      	ldr	r3, [pc, #140]	; (1dfc <IO_Test+0x90>)
    1d70:	f242 7210 	movw	r2, #10000	; 0x2710
    1d74:	f8a3 2046 	strh.w	r2, [r3, #70]	; 0x46

	// Ustawienie wyj
	// -----------------
	if (GET_IOTEST)
    1d78:	8b1a      	ldrh	r2, [r3, #24]
    1d7a:	f012 0f04 	tst.w	r2, #4
    1d7e:	d005      	beq.n	1d8c <IO_Test+0x20>
	{
		image.q[2] = image.i[4] | 0x80;
    1d80:	f893 2050 	ldrb.w	r2, [r3, #80]	; 0x50
    1d84:	f042 0280 	orr.w	r2, r2, #128	; 0x80
    1d88:	f883 2042 	strb.w	r2, [r3, #66]	; 0x42
	}

	SPI_Outputs(image.q[2]);
    1d8c:	4c1b      	ldr	r4, [pc, #108]	; (1dfc <IO_Test+0x90>)
    1d8e:	f894 0042 	ldrb.w	r0, [r4, #66]	; 0x42
    1d92:	f7ff ff93 	bl	1cbc <SPI_Outputs>

	if (image.aout[0] > 10000)
    1d96:	f8b4 2044 	ldrh.w	r2, [r4, #68]	; 0x44
    1d9a:	f242 7310 	movw	r3, #10000	; 0x2710
    1d9e:	b292      	uxth	r2, r2
    1da0:	429a      	cmp	r2, r3
		image.aout[0] = 10000;
    1da2:	bf88      	it	hi
    1da4:	f8a4 3044 	strhhi.w	r3, [r4, #68]	; 0x44
	if (image.aout[1] > 10000)
    1da8:	4b14      	ldr	r3, [pc, #80]	; (1dfc <IO_Test+0x90>)
    1daa:	f242 7210 	movw	r2, #10000	; 0x2710
    1dae:	f8b3 1046 	ldrh.w	r1, [r3, #70]	; 0x46
    1db2:	b289      	uxth	r1, r1
    1db4:	4291      	cmp	r1, r2
		image.aout[1] = 10000;
    1db6:	bf88      	it	hi
    1db8:	f8a3 2046 	strhhi.w	r2, [r3, #70]	; 0x46

	if (GET_IOTEST)
    1dbc:	4b0f      	ldr	r3, [pc, #60]	; (1dfc <IO_Test+0x90>)
    1dbe:	8b1a      	ldrh	r2, [r3, #24]
    1dc0:	f012 0f04 	tst.w	r2, #4
    1dc4:	d003      	beq.n	1dce <IO_Test+0x62>
		SPI_DAC(3000, 3000);
    1dc6:	f640 30b8 	movw	r0, #3000	; 0xbb8
    1dca:	4601      	mov	r1, r0
    1dcc:	e00d      	b.n	1dea <IO_Test+0x7e>
	else
		SPI_DAC(ANALOG_DAC(image.aout[0]), ANALOG_DAC(image.aout[1]));
    1dce:	f8b3 0044 	ldrh.w	r0, [r3, #68]	; 0x44
    1dd2:	f8b3 1046 	ldrh.w	r1, [r3, #70]	; 0x46
    1dd6:	2264      	movs	r2, #100	; 0x64
    1dd8:	b280      	uxth	r0, r0
    1dda:	b289      	uxth	r1, r1
    1ddc:	4350      	muls	r0, r2
    1dde:	4351      	muls	r1, r2
    1de0:	23f8      	movs	r3, #248	; 0xf8
    1de2:	fb90 f0f3 	sdiv	r0, r0, r3
    1de6:	fb91 f1f3 	sdiv	r1, r1, r3
    1dea:	f7ff ff8d 	bl	1d08 <SPI_DAC>

	// Odczyt wej
	// -----------------
	SPI_Inputs(&image.i[2], &image.i[3], &image.i[4]);
    1dee:	4804      	ldr	r0, [pc, #16]	; (1e00 <IO_Test+0x94>)
    1df0:	1c41      	adds	r1, r0, #1
    1df2:	1c82      	adds	r2, r0, #2
}
    1df4:	e8bd 4010 	ldmia.w	sp!, {r4, lr}
	else
		SPI_DAC(ANALOG_DAC(image.aout[0]), ANALOG_DAC(image.aout[1]));

	// Odczyt wej
	// -----------------
	SPI_Inputs(&image.i[2], &image.i[3], &image.i[4]);
    1df8:	e70c      	b.n	1c14 <SPI_Inputs>
    1dfa:	bf00      	nop
    1dfc:	20000ee4 	.word	0x20000ee4
    1e00:	20000f32 	.word	0x20000f32

00001e04 <OutputsInit>:
//*****************************************************************************
// Funkcja konfigurujca wyjcia
//*****************************************************************************
void OutputsInit(void)
{
	image.q[0] = 0;
    1e04:	4b55      	ldr	r3, [pc, #340]	; (1f5c <OutputsInit+0x158>)
    1e06:	2200      	movs	r2, #0

//*****************************************************************************
// Funkcja konfigurujca wyjcia
//*****************************************************************************
void OutputsInit(void)
{
    1e08:	b510      	push	{r4, lr}
	// -------------------------------------------------------------
	// X8
	// -------------------------------------------------------------

	// OUT_00 X8.01 PWM0
	GPIOPinTypeGPIOOutput(GPIO_PORTG_BASE, GPIO_PIN_2);
    1e0a:	2104      	movs	r1, #4
//*****************************************************************************
// Funkcja konfigurujca wyjcia
//*****************************************************************************
void OutputsInit(void)
{
	image.q[0] = 0;
    1e0c:	f883 2040 	strb.w	r2, [r3, #64]	; 0x40
	// -------------------------------------------------------------
	// X8
	// -------------------------------------------------------------

	// OUT_00 X8.01 PWM0
	GPIOPinTypeGPIOOutput(GPIO_PORTG_BASE, GPIO_PIN_2);
    1e10:	4853      	ldr	r0, [pc, #332]	; (1f60 <OutputsInit+0x15c>)
// Funkcja konfigurujca wyjcia
//*****************************************************************************
void OutputsInit(void)
{
	image.q[0] = 0;
	image.q[1] = 0;
    1e12:	f883 2041 	strb.w	r2, [r3, #65]	; 0x41
	image.q[2] = 0;
    1e16:	f883 2042 	strb.w	r2, [r3, #66]	; 0x42
	// -------------------------------------------------------------
	// X8
	// -------------------------------------------------------------

	// OUT_00 X8.01 PWM0
	GPIOPinTypeGPIOOutput(GPIO_PORTG_BASE, GPIO_PIN_2);
    1e1a:	f005 f8a9 	bl	6f70 <GPIOPinTypeGPIOOutput>
	GPIOPadConfigSet(GPIO_PORTG_BASE, GPIO_PIN_2, GPIO_STRENGTH_2MA,
    1e1e:	2201      	movs	r2, #1
    1e20:	2308      	movs	r3, #8
    1e22:	2104      	movs	r1, #4
    1e24:	484e      	ldr	r0, [pc, #312]	; (1f60 <OutputsInit+0x15c>)
    1e26:	f004 ff97 	bl	6d58 <GPIOPadConfigSet>
			GPIO_PIN_TYPE_STD);

	// OUT_01 X8.02 PWM1
	GPIOPinTypeGPIOOutput(GPIO_PORTD_BASE, GPIO_PIN_1);
    1e2a:	2102      	movs	r1, #2
    1e2c:	484d      	ldr	r0, [pc, #308]	; (1f64 <OutputsInit+0x160>)
    1e2e:	f005 f89f 	bl	6f70 <GPIOPinTypeGPIOOutput>
	GPIOPadConfigSet(GPIO_PORTD_BASE, GPIO_PIN_1, GPIO_STRENGTH_2MA,
    1e32:	2201      	movs	r2, #1
    1e34:	2308      	movs	r3, #8
    1e36:	2102      	movs	r1, #2
    1e38:	484a      	ldr	r0, [pc, #296]	; (1f64 <OutputsInit+0x160>)
    1e3a:	f004 ff8d 	bl	6d58 <GPIOPadConfigSet>
			GPIO_PIN_TYPE_STD);

	// OUT_02 X8.03 PWM2
	GPIOPinTypeGPIOOutput(GPIO_PORTH_BASE, GPIO_PIN_0);
    1e3e:	2101      	movs	r1, #1
    1e40:	4849      	ldr	r0, [pc, #292]	; (1f68 <OutputsInit+0x164>)
    1e42:	f005 f895 	bl	6f70 <GPIOPinTypeGPIOOutput>
	GPIOPadConfigSet(GPIO_PORTH_BASE, GPIO_PIN_0, GPIO_STRENGTH_2MA,
    1e46:	2101      	movs	r1, #1
    1e48:	460a      	mov	r2, r1
    1e4a:	2308      	movs	r3, #8
    1e4c:	4846      	ldr	r0, [pc, #280]	; (1f68 <OutputsInit+0x164>)
    1e4e:	f004 ff83 	bl	6d58 <GPIOPadConfigSet>
			GPIO_PIN_TYPE_STD);

	// OUT_03 X8.04 PWM3
	GPIOPinTypeGPIOOutput(GPIO_PORTH_BASE, GPIO_PIN_1);
    1e52:	2102      	movs	r1, #2
    1e54:	4844      	ldr	r0, [pc, #272]	; (1f68 <OutputsInit+0x164>)
    1e56:	f005 f88b 	bl	6f70 <GPIOPinTypeGPIOOutput>
	GPIOPadConfigSet(GPIO_PORTH_BASE, GPIO_PIN_1, GPIO_STRENGTH_2MA,
    1e5a:	2201      	movs	r2, #1
    1e5c:	2308      	movs	r3, #8
    1e5e:	2102      	movs	r1, #2
    1e60:	4841      	ldr	r0, [pc, #260]	; (1f68 <OutputsInit+0x164>)
    1e62:	f004 ff79 	bl	6d58 <GPIOPadConfigSet>
			GPIO_PIN_TYPE_STD);

	// OUT_04 X8.05 PWM4
	GPIOPinTypeGPIOOutput(GPIO_PORTF_BASE, GPIO_PIN_2);
    1e66:	2104      	movs	r1, #4
    1e68:	4840      	ldr	r0, [pc, #256]	; (1f6c <OutputsInit+0x168>)
    1e6a:	f005 f881 	bl	6f70 <GPIOPinTypeGPIOOutput>
	GPIOPadConfigSet(GPIO_PORTF_BASE, GPIO_PIN_2, GPIO_STRENGTH_2MA,
    1e6e:	2308      	movs	r3, #8
    1e70:	2104      	movs	r1, #4
    1e72:	2201      	movs	r2, #1
    1e74:	483d      	ldr	r0, [pc, #244]	; (1f6c <OutputsInit+0x168>)
    1e76:	f004 ff6f 	bl	6d58 <GPIOPadConfigSet>
			GPIO_PIN_TYPE_STD);

	// OUT_05 X8.06 PWM5
	GPIOPinTypeGPIOOutput(GPIO_PORTF_BASE, GPIO_PIN_3);
    1e7a:	2108      	movs	r1, #8
    1e7c:	483b      	ldr	r0, [pc, #236]	; (1f6c <OutputsInit+0x168>)
    1e7e:	f005 f877 	bl	6f70 <GPIOPinTypeGPIOOutput>
	GPIOPadConfigSet(GPIO_PORTF_BASE, GPIO_PIN_3, GPIO_STRENGTH_2MA,
    1e82:	2108      	movs	r1, #8
    1e84:	460b      	mov	r3, r1
    1e86:	2201      	movs	r2, #1
    1e88:	4838      	ldr	r0, [pc, #224]	; (1f6c <OutputsInit+0x168>)
    1e8a:	f004 ff65 	bl	6d58 <GPIOPadConfigSet>
			GPIO_PIN_TYPE_STD);

	// OUT_06 X8.07 CCP0
	GPIOPinTypeGPIOOutput(GPIO_PORTB_BASE, GPIO_PIN_0);
    1e8e:	2101      	movs	r1, #1
    1e90:	4837      	ldr	r0, [pc, #220]	; (1f70 <OutputsInit+0x16c>)
    1e92:	f005 f86d 	bl	6f70 <GPIOPinTypeGPIOOutput>
	GPIOPadConfigSet(GPIO_PORTB_BASE, GPIO_PIN_0, GPIO_STRENGTH_2MA,
    1e96:	2101      	movs	r1, #1
    1e98:	460a      	mov	r2, r1
    1e9a:	2308      	movs	r3, #8
    1e9c:	4834      	ldr	r0, [pc, #208]	; (1f70 <OutputsInit+0x16c>)
    1e9e:	f004 ff5b 	bl	6d58 <GPIOPadConfigSet>
			GPIO_PIN_TYPE_STD);

	// OUT_07 X8.08 CCP1
	GPIOPinTypeGPIOOutput(GPIO_PORTF_BASE, GPIO_PIN_6);
    1ea2:	2140      	movs	r1, #64	; 0x40
    1ea4:	4831      	ldr	r0, [pc, #196]	; (1f6c <OutputsInit+0x168>)
    1ea6:	f005 f863 	bl	6f70 <GPIOPinTypeGPIOOutput>
	GPIOPadConfigSet(GPIO_PORTF_BASE, GPIO_PIN_6, GPIO_STRENGTH_2MA,
    1eaa:	2201      	movs	r2, #1
    1eac:	2308      	movs	r3, #8
    1eae:	2140      	movs	r1, #64	; 0x40
    1eb0:	482e      	ldr	r0, [pc, #184]	; (1f6c <OutputsInit+0x168>)
    1eb2:	f004 ff51 	bl	6d58 <GPIOPadConfigSet>
			GPIO_PIN_TYPE_STD);

	// OUT_10 X8.09 CCP2
	GPIOPinTypeGPIOOutput(GPIO_PORTB_BASE, GPIO_PIN_1);
    1eb6:	2102      	movs	r1, #2
    1eb8:	482d      	ldr	r0, [pc, #180]	; (1f70 <OutputsInit+0x16c>)
    1eba:	f005 f859 	bl	6f70 <GPIOPinTypeGPIOOutput>
	GPIOPadConfigSet(GPIO_PORTB_BASE, GPIO_PIN_1, GPIO_STRENGTH_2MA,
    1ebe:	2201      	movs	r2, #1
    1ec0:	2308      	movs	r3, #8
    1ec2:	2102      	movs	r1, #2
    1ec4:	482a      	ldr	r0, [pc, #168]	; (1f70 <OutputsInit+0x16c>)
    1ec6:	f004 ff47 	bl	6d58 <GPIOPadConfigSet>
			GPIO_PIN_TYPE_STD);

	// OUT_11 X8.10 CCP3
	GPIOPinTypeGPIOOutput(GPIO_PORTG_BASE, GPIO_PIN_4);
    1eca:	2110      	movs	r1, #16
    1ecc:	4824      	ldr	r0, [pc, #144]	; (1f60 <OutputsInit+0x15c>)
    1ece:	f005 f84f 	bl	6f70 <GPIOPinTypeGPIOOutput>
	GPIOPadConfigSet(GPIO_PORTG_BASE, GPIO_PIN_4, GPIO_STRENGTH_2MA,
    1ed2:	2201      	movs	r2, #1
    1ed4:	2308      	movs	r3, #8
    1ed6:	2110      	movs	r1, #16
    1ed8:	4821      	ldr	r0, [pc, #132]	; (1f60 <OutputsInit+0x15c>)
    1eda:	f004 ff3d 	bl	6d58 <GPIOPadConfigSet>
			GPIO_PIN_TYPE_STD);

	// OUT_12 X8.11
	GPIOPinTypeGPIOOutput(GPIO_PORTF_BASE, GPIO_PIN_5);
    1ede:	2120      	movs	r1, #32
    1ee0:	4822      	ldr	r0, [pc, #136]	; (1f6c <OutputsInit+0x168>)
    1ee2:	f005 f845 	bl	6f70 <GPIOPinTypeGPIOOutput>
	GPIOPadConfigSet(GPIO_PORTF_BASE, GPIO_PIN_5, GPIO_STRENGTH_2MA,
    1ee6:	2201      	movs	r2, #1
    1ee8:	2308      	movs	r3, #8
    1eea:	2120      	movs	r1, #32
    1eec:	481f      	ldr	r0, [pc, #124]	; (1f6c <OutputsInit+0x168>)
    1eee:	f004 ff33 	bl	6d58 <GPIOPadConfigSet>
			GPIO_PIN_TYPE_STD);

	// OUT_13 X8.12
	GPIOPinTypeGPIOOutput(GPIO_PORTH_BASE, GPIO_PIN_3);
    1ef2:	481d      	ldr	r0, [pc, #116]	; (1f68 <OutputsInit+0x164>)
    1ef4:	2108      	movs	r1, #8
    1ef6:	f005 f83b 	bl	6f70 <GPIOPinTypeGPIOOutput>
	GPIOPadConfigSet(GPIO_PORTH_BASE, GPIO_PIN_3, GPIO_STRENGTH_2MA,
    1efa:	2108      	movs	r1, #8
    1efc:	460b      	mov	r3, r1
    1efe:	2201      	movs	r2, #1
    1f00:	4819      	ldr	r0, [pc, #100]	; (1f68 <OutputsInit+0x164>)
    1f02:	f004 ff29 	bl	6d58 <GPIOPadConfigSet>
	// -------------------------------------------------------------
	// X9
	// -------------------------------------------------------------

	// OUT_14 X9.01
	GPIOPinTypeGPIOOutput(GPIO_PORTH_BASE, GPIO_PIN_2);
    1f06:	2104      	movs	r1, #4
    1f08:	4817      	ldr	r0, [pc, #92]	; (1f68 <OutputsInit+0x164>)
    1f0a:	f005 f831 	bl	6f70 <GPIOPinTypeGPIOOutput>
	GPIOPadConfigSet(GPIO_PORTH_BASE, GPIO_PIN_2, GPIO_STRENGTH_2MA,
    1f0e:	2201      	movs	r2, #1
    1f10:	2308      	movs	r3, #8
    1f12:	2104      	movs	r1, #4
    1f14:	4814      	ldr	r0, [pc, #80]	; (1f68 <OutputsInit+0x164>)
    1f16:	f004 ff1f 	bl	6d58 <GPIOPadConfigSet>
			GPIO_PIN_TYPE_STD);

	// OUT_15 X9.02
	GPIOPinTypeGPIOOutput(GPIO_PORTB_BASE, GPIO_PIN_6);
    1f1a:	2140      	movs	r1, #64	; 0x40
    1f1c:	4814      	ldr	r0, [pc, #80]	; (1f70 <OutputsInit+0x16c>)
    1f1e:	f005 f827 	bl	6f70 <GPIOPinTypeGPIOOutput>
	GPIOPadConfigSet(GPIO_PORTB_BASE, GPIO_PIN_6, GPIO_STRENGTH_2MA,
    1f22:	2201      	movs	r2, #1
    1f24:	2308      	movs	r3, #8
    1f26:	2140      	movs	r1, #64	; 0x40
    1f28:	4811      	ldr	r0, [pc, #68]	; (1f70 <OutputsInit+0x16c>)
    1f2a:	f004 ff15 	bl	6d58 <GPIOPadConfigSet>
			GPIO_PIN_TYPE_STD);

	// OUT_16 X9.03
	GPIOPinTypeGPIOOutput(GPIO_PORTB_BASE, GPIO_PIN_5);
    1f2e:	2120      	movs	r1, #32
    1f30:	480f      	ldr	r0, [pc, #60]	; (1f70 <OutputsInit+0x16c>)
    1f32:	f005 f81d 	bl	6f70 <GPIOPinTypeGPIOOutput>
	GPIOPadConfigSet(GPIO_PORTB_BASE, GPIO_PIN_5, GPIO_STRENGTH_2MA,
    1f36:	2201      	movs	r2, #1
    1f38:	2308      	movs	r3, #8
    1f3a:	2120      	movs	r1, #32
    1f3c:	480c      	ldr	r0, [pc, #48]	; (1f70 <OutputsInit+0x16c>)
    1f3e:	f004 ff0b 	bl	6d58 <GPIOPadConfigSet>
			GPIO_PIN_TYPE_STD);

	// OUT_17 X9.04
	GPIOPinTypeGPIOOutput(GPIO_PORTB_BASE, GPIO_PIN_4);
    1f42:	2110      	movs	r1, #16
    1f44:	480a      	ldr	r0, [pc, #40]	; (1f70 <OutputsInit+0x16c>)
    1f46:	f005 f813 	bl	6f70 <GPIOPinTypeGPIOOutput>
	GPIOPadConfigSet(GPIO_PORTB_BASE, GPIO_PIN_4, GPIO_STRENGTH_2MA,
    1f4a:	4809      	ldr	r0, [pc, #36]	; (1f70 <OutputsInit+0x16c>)
    1f4c:	2110      	movs	r1, #16
    1f4e:	2201      	movs	r2, #1
    1f50:	2308      	movs	r3, #8
			GPIO_PIN_TYPE_STD);
}
    1f52:	e8bd 4010 	ldmia.w	sp!, {r4, lr}
	GPIOPadConfigSet(GPIO_PORTB_BASE, GPIO_PIN_5, GPIO_STRENGTH_2MA,
			GPIO_PIN_TYPE_STD);

	// OUT_17 X9.04
	GPIOPinTypeGPIOOutput(GPIO_PORTB_BASE, GPIO_PIN_4);
	GPIOPadConfigSet(GPIO_PORTB_BASE, GPIO_PIN_4, GPIO_STRENGTH_2MA,
    1f56:	f004 beff 	b.w	6d58 <GPIOPadConfigSet>
    1f5a:	bf00      	nop
    1f5c:	20000ee4 	.word	0x20000ee4
    1f60:	40026000 	.word	0x40026000
    1f64:	40007000 	.word	0x40007000
    1f68:	40027000 	.word	0x40027000
    1f6c:	40025000 	.word	0x40025000
    1f70:	40005000 	.word	0x40005000

00001f74 <SPI_Init>:
//*****************************************************************************
// Obsuga SPI
//*****************************************************************************

void SPI_Init(void)
{
    1f74:	b507      	push	{r0, r1, r2, lr}
	// CS IO1
	GPIOPinTypeGPIOOutput(GPIO_PORTB_BASE, GPIO_PIN_3);
    1f76:	2108      	movs	r1, #8
    1f78:	4859      	ldr	r0, [pc, #356]	; (20e0 <SPI_Init+0x16c>)
    1f7a:	f004 fff9 	bl	6f70 <GPIOPinTypeGPIOOutput>
	GPIOPadConfigSet(GPIO_PORTB_BASE, GPIO_PIN_3, GPIO_STRENGTH_2MA,
    1f7e:	2108      	movs	r1, #8
    1f80:	460b      	mov	r3, r1
    1f82:	2201      	movs	r2, #1
    1f84:	4856      	ldr	r0, [pc, #344]	; (20e0 <SPI_Init+0x16c>)
    1f86:	f004 fee7 	bl	6d58 <GPIOPadConfigSet>
			GPIO_PIN_TYPE_STD);
	GPIOPinWrite(GPIO_PORTB_BASE, GPIO_PIN_3, GPIO_PIN_3);
    1f8a:	2108      	movs	r1, #8
    1f8c:	460a      	mov	r2, r1
    1f8e:	4854      	ldr	r0, [pc, #336]	; (20e0 <SPI_Init+0x16c>)
    1f90:	f004 ffb7 	bl	6f02 <GPIOPinWrite>

	// CS IO2
	GPIOPinTypeGPIOOutput(GPIO_PORTB_BASE, GPIO_PIN_2);
    1f94:	2104      	movs	r1, #4
    1f96:	4852      	ldr	r0, [pc, #328]	; (20e0 <SPI_Init+0x16c>)
    1f98:	f004 ffea 	bl	6f70 <GPIOPinTypeGPIOOutput>
	GPIOPadConfigSet(GPIO_PORTB_BASE, GPIO_PIN_2, GPIO_STRENGTH_2MA,
    1f9c:	2308      	movs	r3, #8
    1f9e:	2104      	movs	r1, #4
    1fa0:	2201      	movs	r2, #1
    1fa2:	484f      	ldr	r0, [pc, #316]	; (20e0 <SPI_Init+0x16c>)
    1fa4:	f004 fed8 	bl	6d58 <GPIOPadConfigSet>
			GPIO_PIN_TYPE_STD);
	GPIOPinWrite(GPIO_PORTB_BASE, GPIO_PIN_2, GPIO_PIN_2);
    1fa8:	2104      	movs	r1, #4
    1faa:	460a      	mov	r2, r1
    1fac:	484c      	ldr	r0, [pc, #304]	; (20e0 <SPI_Init+0x16c>)
    1fae:	f004 ffa8 	bl	6f02 <GPIOPinWrite>

	// CS DAC
	GPIOPinTypeGPIOOutput(GPIO_PORTE_BASE, GPIO_PIN_1);
    1fb2:	2102      	movs	r1, #2
    1fb4:	484b      	ldr	r0, [pc, #300]	; (20e4 <SPI_Init+0x170>)
    1fb6:	f004 ffdb 	bl	6f70 <GPIOPinTypeGPIOOutput>
	GPIOPadConfigSet(GPIO_PORTE_BASE, GPIO_PIN_1, GPIO_STRENGTH_2MA,
    1fba:	2308      	movs	r3, #8
    1fbc:	2102      	movs	r1, #2
    1fbe:	2201      	movs	r2, #1
    1fc0:	4848      	ldr	r0, [pc, #288]	; (20e4 <SPI_Init+0x170>)
    1fc2:	f004 fec9 	bl	6d58 <GPIOPadConfigSet>
			GPIO_PIN_TYPE_STD);
	GPIOPinWrite(GPIO_PORTE_BASE, GPIO_PIN_1, GPIO_PIN_1);
    1fc6:	2102      	movs	r1, #2
    1fc8:	460a      	mov	r2, r1
    1fca:	4846      	ldr	r0, [pc, #280]	; (20e4 <SPI_Init+0x170>)
    1fcc:	f004 ff99 	bl	6f02 <GPIOPinWrite>

	// CONFIG SPI
	SysCtlPeripheralEnable(SYSCTL_PERIPH_SSI1);
    1fd0:	4845      	ldr	r0, [pc, #276]	; (20e8 <SPI_Init+0x174>)
    1fd2:	f005 fb2b 	bl	762c <SysCtlPeripheralEnable>
	GPIOPinTypeSSI(GPIO_PORTE_BASE, GPIO_PIN_0 + GPIO_PIN_2 + GPIO_PIN_3);
    1fd6:	210d      	movs	r1, #13
    1fd8:	4842      	ldr	r0, [pc, #264]	; (20e4 <SPI_Init+0x170>)
    1fda:	f004 ffff 	bl	6fdc <GPIOPinTypeSSI>
	SSIConfigSetExpClk(SSI1_BASE, SysCtlClockGet(), SSI_FRF_MOTO_MODE_0,
    1fde:	f005 fca3 	bl	7928 <SysCtlClockGet>
    1fe2:	4b42      	ldr	r3, [pc, #264]	; (20ec <SPI_Init+0x178>)
    1fe4:	2200      	movs	r2, #0
    1fe6:	9300      	str	r3, [sp, #0]
    1fe8:	2310      	movs	r3, #16
    1fea:	4601      	mov	r1, r0
    1fec:	9301      	str	r3, [sp, #4]
    1fee:	4840      	ldr	r0, [pc, #256]	; (20f0 <SPI_Init+0x17c>)
    1ff0:	4613      	mov	r3, r2
    1ff2:	f005 fa2d 	bl	7450 <SSIConfigSetExpClk>
			SSI_MODE_MASTER, 200000, 16);
	SSIEnable(SSI1_BASE);
    1ff6:	483e      	ldr	r0, [pc, #248]	; (20f0 <SPI_Init+0x17c>)
    1ff8:	f005 fa52 	bl	74a0 <SSIEnable>

	// KONFIGURACJA IO
	// PORTA JAKO WEJSCIA
	Delay(10000);
    1ffc:	f242 7010 	movw	r0, #10000	; 0x2710
    2000:	f004 fc1a 	bl	6838 <Delay>
	SPI_EmptyFIFO();
    2004:	f7ff f932 	bl	126c <SPI_EmptyFIFO>
	GPIOPinWrite(GPIO_PORTB_BASE, GPIO_PIN_2, 0);
    2008:	2104      	movs	r1, #4
    200a:	4835      	ldr	r0, [pc, #212]	; (20e0 <SPI_Init+0x16c>)
    200c:	2200      	movs	r2, #0
    200e:	f004 ff78 	bl	6f02 <GPIOPinWrite>
	SSIDataPut(SSI1_BASE, 0x4000);
    2012:	4837      	ldr	r0, [pc, #220]	; (20f0 <SPI_Init+0x17c>)
    2014:	f44f 4180 	mov.w	r1, #16384	; 0x4000
    2018:	f005 fa5c 	bl	74d4 <SSIDataPut>
	SSIDataPut(SSI1_BASE, 0xff00);
    201c:	4834      	ldr	r0, [pc, #208]	; (20f0 <SPI_Init+0x17c>)
    201e:	f44f 417f 	mov.w	r1, #65280	; 0xff00
    2022:	f005 fa57 	bl	74d4 <SSIDataPut>
	SPI_Wait();
    2026:	f7ff fdeb 	bl	1c00 <SPI_Wait>
	GPIOPinWrite(GPIO_PORTB_BASE, GPIO_PIN_2, GPIO_PIN_2);
    202a:	2104      	movs	r1, #4
    202c:	460a      	mov	r2, r1
    202e:	482c      	ldr	r0, [pc, #176]	; (20e0 <SPI_Init+0x16c>)
    2030:	f004 ff67 	bl	6f02 <GPIOPinWrite>

	// PORTB JAKO WYJSCIA
	Delay(10000);
    2034:	f242 7010 	movw	r0, #10000	; 0x2710
    2038:	f004 fbfe 	bl	6838 <Delay>
	SPI_EmptyFIFO();
    203c:	f7ff f916 	bl	126c <SPI_EmptyFIFO>
	GPIOPinWrite(GPIO_PORTB_BASE, GPIO_PIN_2, 0);
    2040:	2200      	movs	r2, #0
    2042:	2104      	movs	r1, #4
    2044:	4826      	ldr	r0, [pc, #152]	; (20e0 <SPI_Init+0x16c>)
    2046:	f004 ff5c 	bl	6f02 <GPIOPinWrite>
	SSIDataPut(SSI1_BASE, 0x4001);
    204a:	4829      	ldr	r0, [pc, #164]	; (20f0 <SPI_Init+0x17c>)
    204c:	f244 0101 	movw	r1, #16385	; 0x4001
    2050:	f005 fa40 	bl	74d4 <SSIDataPut>
	SSIDataPut(SSI1_BASE, 0x0000);
    2054:	2100      	movs	r1, #0
    2056:	4826      	ldr	r0, [pc, #152]	; (20f0 <SPI_Init+0x17c>)
    2058:	f005 fa3c 	bl	74d4 <SSIDataPut>
	SPI_Wait();
    205c:	f7ff fdd0 	bl	1c00 <SPI_Wait>
	GPIOPinWrite(GPIO_PORTB_BASE, GPIO_PIN_2, GPIO_PIN_2);
    2060:	2104      	movs	r1, #4
    2062:	460a      	mov	r2, r1
    2064:	481e      	ldr	r0, [pc, #120]	; (20e0 <SPI_Init+0x16c>)
    2066:	f004 ff4c 	bl	6f02 <GPIOPinWrite>

	// PORTA JAKO WEJSCIA
	Delay(10000);
    206a:	f242 7010 	movw	r0, #10000	; 0x2710
    206e:	f004 fbe3 	bl	6838 <Delay>
	SPI_EmptyFIFO();
    2072:	f7ff f8fb 	bl	126c <SPI_EmptyFIFO>
	GPIOPinWrite(GPIO_PORTB_BASE, GPIO_PIN_3, 0);
    2076:	2200      	movs	r2, #0
    2078:	2108      	movs	r1, #8
    207a:	4819      	ldr	r0, [pc, #100]	; (20e0 <SPI_Init+0x16c>)
    207c:	f004 ff41 	bl	6f02 <GPIOPinWrite>
	SSIDataPut(SSI1_BASE, 0x4000);
    2080:	481b      	ldr	r0, [pc, #108]	; (20f0 <SPI_Init+0x17c>)
    2082:	f44f 4180 	mov.w	r1, #16384	; 0x4000
    2086:	f005 fa25 	bl	74d4 <SSIDataPut>
	SSIDataPut(SSI1_BASE, 0xff00);
    208a:	4819      	ldr	r0, [pc, #100]	; (20f0 <SPI_Init+0x17c>)
    208c:	f44f 417f 	mov.w	r1, #65280	; 0xff00
    2090:	f005 fa20 	bl	74d4 <SSIDataPut>
	SPI_Wait();
    2094:	f7ff fdb4 	bl	1c00 <SPI_Wait>
	GPIOPinWrite(GPIO_PORTB_BASE, GPIO_PIN_3, GPIO_PIN_3);
    2098:	2108      	movs	r1, #8
    209a:	460a      	mov	r2, r1
    209c:	4810      	ldr	r0, [pc, #64]	; (20e0 <SPI_Init+0x16c>)
    209e:	f004 ff30 	bl	6f02 <GPIOPinWrite>

	// PORTB JAKO WEJSCIA
	Delay(10000);
    20a2:	f242 7010 	movw	r0, #10000	; 0x2710
    20a6:	f004 fbc7 	bl	6838 <Delay>
	SPI_EmptyFIFO();
    20aa:	f7ff f8df 	bl	126c <SPI_EmptyFIFO>
	GPIOPinWrite(GPIO_PORTB_BASE, GPIO_PIN_3, 0);
    20ae:	2200      	movs	r2, #0
    20b0:	480b      	ldr	r0, [pc, #44]	; (20e0 <SPI_Init+0x16c>)
    20b2:	2108      	movs	r1, #8
    20b4:	f004 ff25 	bl	6f02 <GPIOPinWrite>
	SSIDataPut(SSI1_BASE, 0x4001);
    20b8:	480d      	ldr	r0, [pc, #52]	; (20f0 <SPI_Init+0x17c>)
    20ba:	f244 0101 	movw	r1, #16385	; 0x4001
    20be:	f005 fa09 	bl	74d4 <SSIDataPut>
	SSIDataPut(SSI1_BASE, 0xff00);
    20c2:	480b      	ldr	r0, [pc, #44]	; (20f0 <SPI_Init+0x17c>)
    20c4:	f44f 417f 	mov.w	r1, #65280	; 0xff00
    20c8:	f005 fa04 	bl	74d4 <SSIDataPut>
	SPI_Wait();
    20cc:	f7ff fd98 	bl	1c00 <SPI_Wait>
	GPIOPinWrite(GPIO_PORTB_BASE, GPIO_PIN_3, GPIO_PIN_3);
    20d0:	2108      	movs	r1, #8
    20d2:	4803      	ldr	r0, [pc, #12]	; (20e0 <SPI_Init+0x16c>)
    20d4:	460a      	mov	r2, r1
}
    20d6:	b003      	add	sp, #12
    20d8:	f85d eb04 	ldr.w	lr, [sp], #4
	SPI_EmptyFIFO();
	GPIOPinWrite(GPIO_PORTB_BASE, GPIO_PIN_3, 0);
	SSIDataPut(SSI1_BASE, 0x4001);
	SSIDataPut(SSI1_BASE, 0xff00);
	SPI_Wait();
	GPIOPinWrite(GPIO_PORTB_BASE, GPIO_PIN_3, GPIO_PIN_3);
    20dc:	f004 bf11 	b.w	6f02 <GPIOPinWrite>
    20e0:	40005000 	.word	0x40005000
    20e4:	40024000 	.word	0x40024000
    20e8:	10000020 	.word	0x10000020
    20ec:	00030d40 	.word	0x00030d40
    20f0:	40009000 	.word	0x40009000

000020f4 <InputsInit>:

//*****************************************************************************
// Funkcja konfigurujca wejcia
//*****************************************************************************
void InputsInit(void)
{
    20f4:	b510      	push	{r4, lr}
	// IN_00 X4.01 IDX0

	GPIOPinTypeGPIOInput(GPIO_PORTD_BASE, GPIO_PIN_0);
    20f6:	2101      	movs	r1, #1
    20f8:	4850      	ldr	r0, [pc, #320]	; (223c <InputsInit+0x148>)
    20fa:	f004 ff2c 	bl	6f56 <GPIOPinTypeGPIOInput>
	GPIOPadConfigSet(GPIO_PORTD_BASE, GPIO_PIN_0, GPIO_STRENGTH_2MA,
    20fe:	2101      	movs	r1, #1
    2100:	460a      	mov	r2, r1
    2102:	2308      	movs	r3, #8
    2104:	484d      	ldr	r0, [pc, #308]	; (223c <InputsInit+0x148>)
    2106:	f004 fe27 	bl	6d58 <GPIOPadConfigSet>
			GPIO_PIN_TYPE_STD);

	// IN_01 X4.02 PHA0

	GPIOPinTypeGPIOInput(GPIO_PORTC_BASE, GPIO_PIN_4);
    210a:	2110      	movs	r1, #16
    210c:	484c      	ldr	r0, [pc, #304]	; (2240 <InputsInit+0x14c>)
    210e:	f004 ff22 	bl	6f56 <GPIOPinTypeGPIOInput>
	GPIOPadConfigSet(GPIO_PORTC_BASE, GPIO_PIN_4, GPIO_STRENGTH_2MA,
    2112:	2201      	movs	r2, #1
    2114:	2308      	movs	r3, #8
    2116:	2110      	movs	r1, #16
    2118:	4849      	ldr	r0, [pc, #292]	; (2240 <InputsInit+0x14c>)
    211a:	f004 fe1d 	bl	6d58 <GPIOPadConfigSet>
			GPIO_PIN_TYPE_STD);

	// IN_02 X4.03 PHB0

	GPIOPinTypeGPIOInput(GPIO_PORTF_BASE, GPIO_PIN_0);
    211e:	2101      	movs	r1, #1
    2120:	4848      	ldr	r0, [pc, #288]	; (2244 <InputsInit+0x150>)
    2122:	f004 ff18 	bl	6f56 <GPIOPinTypeGPIOInput>
	GPIOPadConfigSet(GPIO_PORTF_BASE, GPIO_PIN_0, GPIO_STRENGTH_2MA,
    2126:	2101      	movs	r1, #1
    2128:	460a      	mov	r2, r1
    212a:	2308      	movs	r3, #8
    212c:	4845      	ldr	r0, [pc, #276]	; (2244 <InputsInit+0x150>)
    212e:	f004 fe13 	bl	6d58 <GPIOPadConfigSet>
			GPIO_PIN_TYPE_STD);

	// IN_03 X4.04 IDX1

	GPIOPinTypeGPIOInput(GPIO_PORTF_BASE, GPIO_PIN_1);
    2132:	2102      	movs	r1, #2
    2134:	4843      	ldr	r0, [pc, #268]	; (2244 <InputsInit+0x150>)
    2136:	f004 ff0e 	bl	6f56 <GPIOPinTypeGPIOInput>
	GPIOPadConfigSet(GPIO_PORTF_BASE, GPIO_PIN_1, GPIO_STRENGTH_2MA,
    213a:	2201      	movs	r2, #1
    213c:	2308      	movs	r3, #8
    213e:	2102      	movs	r1, #2
    2140:	4840      	ldr	r0, [pc, #256]	; (2244 <InputsInit+0x150>)
    2142:	f004 fe09 	bl	6d58 <GPIOPadConfigSet>
			GPIO_PIN_TYPE_STD);

	// IN_04 X4.05 PHA1

	GPIOPinTypeGPIOInput(GPIO_PORTG_BASE, GPIO_PIN_6);
    2146:	2140      	movs	r1, #64	; 0x40
    2148:	483f      	ldr	r0, [pc, #252]	; (2248 <InputsInit+0x154>)
    214a:	f004 ff04 	bl	6f56 <GPIOPinTypeGPIOInput>
	GPIOPadConfigSet(GPIO_PORTG_BASE, GPIO_PIN_6, GPIO_STRENGTH_2MA,
    214e:	2201      	movs	r2, #1
    2150:	2308      	movs	r3, #8
    2152:	2140      	movs	r1, #64	; 0x40
    2154:	483c      	ldr	r0, [pc, #240]	; (2248 <InputsInit+0x154>)
    2156:	f004 fdff 	bl	6d58 <GPIOPadConfigSet>
			GPIO_PIN_TYPE_STD);

	// IN_05 X4.06 PHB1

	GPIOPinTypeGPIOInput(GPIO_PORTG_BASE, GPIO_PIN_7);
    215a:	2180      	movs	r1, #128	; 0x80
    215c:	483a      	ldr	r0, [pc, #232]	; (2248 <InputsInit+0x154>)
    215e:	f004 fefa 	bl	6f56 <GPIOPinTypeGPIOInput>
	GPIOPadConfigSet(GPIO_PORTG_BASE, GPIO_PIN_7, GPIO_STRENGTH_2MA,
    2162:	2201      	movs	r2, #1
    2164:	2308      	movs	r3, #8
    2166:	4838      	ldr	r0, [pc, #224]	; (2248 <InputsInit+0x154>)
    2168:	2180      	movs	r1, #128	; 0x80
    216a:	f004 fdf5 	bl	6d58 <GPIOPadConfigSet>
			GPIO_PIN_TYPE_STD);

	// IN_06 X4.07

	GPIOPinTypeGPIOInput(GPIO_PORTC_BASE, GPIO_PIN_7);
    216e:	2180      	movs	r1, #128	; 0x80
    2170:	4833      	ldr	r0, [pc, #204]	; (2240 <InputsInit+0x14c>)
    2172:	f004 fef0 	bl	6f56 <GPIOPinTypeGPIOInput>
	GPIOPadConfigSet(GPIO_PORTC_BASE, GPIO_PIN_7, GPIO_STRENGTH_2MA,
    2176:	2201      	movs	r2, #1
    2178:	2308      	movs	r3, #8
    217a:	2180      	movs	r1, #128	; 0x80
    217c:	4830      	ldr	r0, [pc, #192]	; (2240 <InputsInit+0x14c>)
    217e:	f004 fdeb 	bl	6d58 <GPIOPadConfigSet>
			GPIO_PIN_TYPE_STD);

	// IN_07 X4.08

	GPIOPinTypeGPIOInput(GPIO_PORTC_BASE, GPIO_PIN_6);
    2182:	2140      	movs	r1, #64	; 0x40
    2184:	482e      	ldr	r0, [pc, #184]	; (2240 <InputsInit+0x14c>)
    2186:	f004 fee6 	bl	6f56 <GPIOPinTypeGPIOInput>
	GPIOPadConfigSet(GPIO_PORTC_BASE, GPIO_PIN_6, GPIO_STRENGTH_2MA,
    218a:	2201      	movs	r2, #1
    218c:	2308      	movs	r3, #8
    218e:	2140      	movs	r1, #64	; 0x40
    2190:	482b      	ldr	r0, [pc, #172]	; (2240 <InputsInit+0x14c>)
    2192:	f004 fde1 	bl	6d58 <GPIOPadConfigSet>
			GPIO_PIN_TYPE_STD);

	// IN_10 X4.09

	GPIOPinTypeGPIOInput(GPIO_PORTC_BASE, GPIO_PIN_5);
    2196:	2120      	movs	r1, #32
    2198:	4829      	ldr	r0, [pc, #164]	; (2240 <InputsInit+0x14c>)
    219a:	f004 fedc 	bl	6f56 <GPIOPinTypeGPIOInput>
	GPIOPadConfigSet(GPIO_PORTC_BASE, GPIO_PIN_5, GPIO_STRENGTH_2MA,
    219e:	2201      	movs	r2, #1
    21a0:	2308      	movs	r3, #8
    21a2:	2120      	movs	r1, #32
    21a4:	4826      	ldr	r0, [pc, #152]	; (2240 <InputsInit+0x14c>)
    21a6:	f004 fdd7 	bl	6d58 <GPIOPadConfigSet>
			GPIO_PIN_TYPE_STD);

	// IN_11 X4.10

	GPIOPinTypeGPIOInput(GPIO_PORTA_BASE, GPIO_PIN_2);
    21aa:	2104      	movs	r1, #4
    21ac:	4827      	ldr	r0, [pc, #156]	; (224c <InputsInit+0x158>)
    21ae:	f004 fed2 	bl	6f56 <GPIOPinTypeGPIOInput>
	GPIOPadConfigSet(GPIO_PORTA_BASE, GPIO_PIN_2, GPIO_STRENGTH_2MA,
    21b2:	2201      	movs	r2, #1
    21b4:	2308      	movs	r3, #8
    21b6:	2104      	movs	r1, #4
    21b8:	4824      	ldr	r0, [pc, #144]	; (224c <InputsInit+0x158>)
    21ba:	f004 fdcd 	bl	6d58 <GPIOPadConfigSet>
			GPIO_PIN_TYPE_STD);

	// IN_12 X4.11

	GPIOPinTypeGPIOInput(GPIO_PORTA_BASE, GPIO_PIN_3);
    21be:	2108      	movs	r1, #8
    21c0:	4822      	ldr	r0, [pc, #136]	; (224c <InputsInit+0x158>)
    21c2:	f004 fec8 	bl	6f56 <GPIOPinTypeGPIOInput>
	GPIOPadConfigSet(GPIO_PORTA_BASE, GPIO_PIN_3, GPIO_STRENGTH_2MA,
    21c6:	2108      	movs	r1, #8
    21c8:	460b      	mov	r3, r1
    21ca:	2201      	movs	r2, #1
    21cc:	481f      	ldr	r0, [pc, #124]	; (224c <InputsInit+0x158>)
    21ce:	f004 fdc3 	bl	6d58 <GPIOPadConfigSet>
			GPIO_PIN_TYPE_STD);

	// IN_13 X4.12

	GPIOPinTypeGPIOInput(GPIO_PORTA_BASE, GPIO_PIN_4);
    21d2:	2110      	movs	r1, #16
    21d4:	481d      	ldr	r0, [pc, #116]	; (224c <InputsInit+0x158>)
    21d6:	f004 febe 	bl	6f56 <GPIOPinTypeGPIOInput>
	GPIOPadConfigSet(GPIO_PORTA_BASE, GPIO_PIN_4, GPIO_STRENGTH_2MA,
    21da:	2110      	movs	r1, #16
    21dc:	481b      	ldr	r0, [pc, #108]	; (224c <InputsInit+0x158>)
    21de:	2201      	movs	r2, #1
    21e0:	2308      	movs	r3, #8
    21e2:	f004 fdb9 	bl	6d58 <GPIOPadConfigSet>
			GPIO_PIN_TYPE_STD);

	// IN_14 X4.13

	GPIOPinTypeGPIOInput(GPIO_PORTA_BASE, GPIO_PIN_5);
    21e6:	2120      	movs	r1, #32
    21e8:	4818      	ldr	r0, [pc, #96]	; (224c <InputsInit+0x158>)
    21ea:	f004 feb4 	bl	6f56 <GPIOPinTypeGPIOInput>
	GPIOPadConfigSet(GPIO_PORTA_BASE, GPIO_PIN_5, GPIO_STRENGTH_2MA,
    21ee:	2201      	movs	r2, #1
    21f0:	2308      	movs	r3, #8
    21f2:	2120      	movs	r1, #32
    21f4:	4815      	ldr	r0, [pc, #84]	; (224c <InputsInit+0x158>)
    21f6:	f004 fdaf 	bl	6d58 <GPIOPadConfigSet>
			GPIO_PIN_TYPE_STD);

	// IN_15 X4.14

	GPIOPinTypeGPIOInput(GPIO_PORTA_BASE, GPIO_PIN_6);
    21fa:	2140      	movs	r1, #64	; 0x40
    21fc:	4813      	ldr	r0, [pc, #76]	; (224c <InputsInit+0x158>)
    21fe:	f004 feaa 	bl	6f56 <GPIOPinTypeGPIOInput>
	GPIOPadConfigSet(GPIO_PORTA_BASE, GPIO_PIN_6, GPIO_STRENGTH_2MA,
    2202:	2201      	movs	r2, #1
    2204:	2308      	movs	r3, #8
    2206:	2140      	movs	r1, #64	; 0x40
    2208:	4810      	ldr	r0, [pc, #64]	; (224c <InputsInit+0x158>)
    220a:	f004 fda5 	bl	6d58 <GPIOPadConfigSet>
			GPIO_PIN_TYPE_STD);

	// IN_16 X4.15

	GPIOPinTypeGPIOInput(GPIO_PORTA_BASE, GPIO_PIN_7);
    220e:	2180      	movs	r1, #128	; 0x80
    2210:	480e      	ldr	r0, [pc, #56]	; (224c <InputsInit+0x158>)
    2212:	f004 fea0 	bl	6f56 <GPIOPinTypeGPIOInput>
	GPIOPadConfigSet(GPIO_PORTA_BASE, GPIO_PIN_7, GPIO_STRENGTH_2MA,
    2216:	2201      	movs	r2, #1
    2218:	2308      	movs	r3, #8
    221a:	2180      	movs	r1, #128	; 0x80
    221c:	480b      	ldr	r0, [pc, #44]	; (224c <InputsInit+0x158>)
    221e:	f004 fd9b 	bl	6d58 <GPIOPadConfigSet>
			GPIO_PIN_TYPE_STD);

	// IN_17 X4.16

	GPIOPinTypeGPIOInput(GPIO_PORTG_BASE, GPIO_PIN_5);
    2222:	2120      	movs	r1, #32
    2224:	4808      	ldr	r0, [pc, #32]	; (2248 <InputsInit+0x154>)
    2226:	f004 fe96 	bl	6f56 <GPIOPinTypeGPIOInput>
	GPIOPadConfigSet(GPIO_PORTG_BASE, GPIO_PIN_5, GPIO_STRENGTH_2MA,
    222a:	4807      	ldr	r0, [pc, #28]	; (2248 <InputsInit+0x154>)
    222c:	2120      	movs	r1, #32
    222e:	2201      	movs	r2, #1
    2230:	2308      	movs	r3, #8
			GPIO_PIN_TYPE_STD);
}
    2232:	e8bd 4010 	ldmia.w	sp!, {r4, lr}
			GPIO_PIN_TYPE_STD);

	// IN_17 X4.16

	GPIOPinTypeGPIOInput(GPIO_PORTG_BASE, GPIO_PIN_5);
	GPIOPadConfigSet(GPIO_PORTG_BASE, GPIO_PIN_5, GPIO_STRENGTH_2MA,
    2236:	f004 bd8f 	b.w	6d58 <GPIOPadConfigSet>
    223a:	bf00      	nop
    223c:	40007000 	.word	0x40007000
    2240:	40006000 	.word	0x40006000
    2244:	40025000 	.word	0x40025000
    2248:	40026000 	.word	0x40026000
    224c:	40004000 	.word	0x40004000

00002250 <DrukujParametry>:

//*****************************************************************************
// Drukowanie parametrow na RS-a
//*****************************************************************************
void DrukujParametry(int nr)
{
    2250:	b570      	push	{r4, r5, r6, lr}
    2252:	4604      	mov	r4, r0
	Print("Parametry programu nr %d: \n", nr);
    2254:	4621      	mov	r1, r4
    2256:	4812      	ldr	r0, [pc, #72]	; (22a0 <DrukujParametry+0x50>)
    2258:	f7fe f9ea 	bl	630 <Print>
	Print("-CzasDociskuWstepnego       = %d \n", par[nr].CzasDociskuWstepnego);
    225c:	223c      	movs	r2, #60	; 0x3c
    225e:	4362      	muls	r2, r4
    2260:	4b10      	ldr	r3, [pc, #64]	; (22a4 <DrukujParametry+0x54>)
    2262:	4811      	ldr	r0, [pc, #68]	; (22a8 <DrukujParametry+0x58>)
    2264:	18d4      	adds	r4, r2, r3
    2266:	5cd1      	ldrb	r1, [r2, r3]
    2268:	f7fe f9e2 	bl	630 <Print>
	Print("-PradZgrzewania             = %d \n", par[nr].PradZgrzewania);
    226c:	7963      	ldrb	r3, [r4, #5]
    226e:	79a1      	ldrb	r1, [r4, #6]
    2270:	480e      	ldr	r0, [pc, #56]	; (22ac <DrukujParametry+0x5c>)
    2272:	ea43 2101 	orr.w	r1, r3, r1, lsl #8
    2276:	f7fe f9db 	bl	630 <Print>
	Print("-CzasZgrzewania             = %d \n", par[nr].CzasZgrzewania);
    227a:	79e1      	ldrb	r1, [r4, #7]
    227c:	480c      	ldr	r0, [pc, #48]	; (22b0 <DrukujParametry+0x60>)
    227e:	f7fe f9d7 	bl	630 <Print>
	Print("-PauzaPodgrzewaniaKoncowego = %d \n",
    2282:	7a21      	ldrb	r1, [r4, #8]
    2284:	480b      	ldr	r0, [pc, #44]	; (22b4 <DrukujParametry+0x64>)
    2286:	f7fe f9d3 	bl	630 <Print>
    228a:	f104 0508 	add.w	r5, r4, #8
			par[nr].PauzaPodgrzewaniaKoncowego);
	Print("-PradPodgrzewaniaKoncowego  = %d \n",
    228e:	786b      	ldrb	r3, [r5, #1]
    2290:	78a9      	ldrb	r1, [r5, #2]
    2292:	4809      	ldr	r0, [pc, #36]	; (22b8 <DrukujParametry+0x68>)
    2294:	ea43 2101 	orr.w	r1, r3, r1, lsl #8
			par[nr].PradPodgrzewaniaKoncowego);
}
    2298:	e8bd 4070 	ldmia.w	sp!, {r4, r5, r6, lr}
	Print("-CzasDociskuWstepnego       = %d \n", par[nr].CzasDociskuWstepnego);
	Print("-PradZgrzewania             = %d \n", par[nr].PradZgrzewania);
	Print("-CzasZgrzewania             = %d \n", par[nr].CzasZgrzewania);
	Print("-PauzaPodgrzewaniaKoncowego = %d \n",
			par[nr].PauzaPodgrzewaniaKoncowego);
	Print("-PradPodgrzewaniaKoncowego  = %d \n",
    229c:	f7fe b9c8 	b.w	630 <Print>
    22a0:	000091b4 	.word	0x000091b4
    22a4:	20001b40 	.word	0x20001b40
    22a8:	000091d0 	.word	0x000091d0
    22ac:	000091f3 	.word	0x000091f3
    22b0:	00009216 	.word	0x00009216
    22b4:	00009239 	.word	0x00009239
    22b8:	0000925c 	.word	0x0000925c

000022bc <DrukujInformacje>:
//*****************************************************************************
// Wycignicie informacji o systemie i wypisanie ich przez RS-a
//*****************************************************************************

void DrukujInformacje(void)
{
    22bc:	b530      	push	{r4, r5, lr}
	char sync[] =
	{ 0xaa, 0xaa, 0xaa, 0xaa, 0xaa, 0xaa, 0xaa, 0xaa, 0xaa, 0xaa, 0xaa, 0xaa,
			0xaa, 0xaa, 0xaa, 0xaa, 0x00 };
    22be:	4d1f      	ldr	r5, [pc, #124]	; (233c <DrukujInformacje+0x80>)
//*****************************************************************************
// Wycignicie informacji o systemie i wypisanie ich przez RS-a
//*****************************************************************************

void DrukujInformacje(void)
{
    22c0:	b087      	sub	sp, #28
	char sync[] =
	{ 0xaa, 0xaa, 0xaa, 0xaa, 0xaa, 0xaa, 0xaa, 0xaa, 0xaa, 0xaa, 0xaa, 0xaa,
			0xaa, 0xaa, 0xaa, 0xaa, 0x00 };
    22c2:	ac01      	add	r4, sp, #4
    22c4:	cd0f      	ldmia	r5!, {r0, r1, r2, r3}
    22c6:	c40f      	stmia	r4!, {r0, r1, r2, r3}
    22c8:	682b      	ldr	r3, [r5, #0]

	Print(sync);
    22ca:	a801      	add	r0, sp, #4

void DrukujInformacje(void)
{
	char sync[] =
	{ 0xaa, 0xaa, 0xaa, 0xaa, 0xaa, 0xaa, 0xaa, 0xaa, 0xaa, 0xaa, 0xaa, 0xaa,
			0xaa, 0xaa, 0xaa, 0xaa, 0x00 };
    22cc:	7023      	strb	r3, [r4, #0]

	Print(sync);
    22ce:	f7fe f9af 	bl	630 <Print>
	Print("\n*** START PROGRAMU *** \n");
    22d2:	481b      	ldr	r0, [pc, #108]	; (2340 <DrukujInformacje+0x84>)
    22d4:	f7fe f9ac 	bl	630 <Print>
	Print("Clock      = %10d [Hz]\n", SysCtlClockGet());
    22d8:	f005 fb26 	bl	7928 <SysCtlClockGet>
    22dc:	4601      	mov	r1, r0
    22de:	4819      	ldr	r0, [pc, #100]	; (2344 <DrukujInformacje+0x88>)
    22e0:	f7fe f9a6 	bl	630 <Print>
	Print("FlashSize  = %10d [bytes]\n", SysCtlFlashSizeGet());
    22e4:	f005 f94e 	bl	7584 <SysCtlFlashSizeGet>
    22e8:	4601      	mov	r1, r0
    22ea:	4817      	ldr	r0, [pc, #92]	; (2348 <DrukujInformacje+0x8c>)
    22ec:	f7fe f9a0 	bl	630 <Print>
	Print("SRAMSize   = %10d [bytes]\n", SysCtlSRAMSizeGet());
    22f0:	f005 f93e 	bl	7570 <SysCtlSRAMSizeGet>
    22f4:	4601      	mov	r1, r0
    22f6:	4815      	ldr	r0, [pc, #84]	; (234c <DrukujInformacje+0x90>)
    22f8:	f7fe f99a 	bl	630 <Print>
	Print("ResetCause = %10d \n", SysCtlResetCauseGet());
    22fc:	f005 fa4c 	bl	7798 <SysCtlResetCauseGet>
    2300:	4601      	mov	r1, r0
    2302:	4813      	ldr	r0, [pc, #76]	; (2350 <DrukujInformacje+0x94>)
    2304:	f7fe f994 	bl	630 <Print>

	Print("Device Id0 =   %08x \n", HWREG(SYSCTL_DID0));
    2308:	4b12      	ldr	r3, [pc, #72]	; (2354 <DrukujInformacje+0x98>)
    230a:	4813      	ldr	r0, [pc, #76]	; (2358 <DrukujInformacje+0x9c>)
    230c:	6819      	ldr	r1, [r3, #0]
    230e:	f7fe f98f 	bl	630 <Print>
	Print("Device Id1 =   %08x \n", HWREG(SYSCTL_DID1));
    2312:	4b12      	ldr	r3, [pc, #72]	; (235c <DrukujInformacje+0xa0>)
    2314:	4812      	ldr	r0, [pc, #72]	; (2360 <DrukujInformacje+0xa4>)
    2316:	6819      	ldr	r1, [r3, #0]
    2318:	f7fe f98a 	bl	630 <Print>
	Print("BOR Contr. =   %08x \n", HWREG(SYSCTL_PBORCTL));
    231c:	4b11      	ldr	r3, [pc, #68]	; (2364 <DrukujInformacje+0xa8>)
    231e:	4812      	ldr	r0, [pc, #72]	; (2368 <DrukujInformacje+0xac>)
    2320:	6819      	ldr	r1, [r3, #0]
    2322:	f7fe f985 	bl	630 <Print>

	Print("Sizeof image  = %d \n", sizeof(Image));
    2326:	215e      	movs	r1, #94	; 0x5e
    2328:	4810      	ldr	r0, [pc, #64]	; (236c <DrukujInformacje+0xb0>)
    232a:	f7fe f981 	bl	630 <Print>
	Print("Sizeof par    = %d \n", sizeof(WeldParam));
    232e:	4810      	ldr	r0, [pc, #64]	; (2370 <DrukujInformacje+0xb4>)
    2330:	213c      	movs	r1, #60	; 0x3c
    2332:	f7fe f97d 	bl	630 <Print>
}
    2336:	b007      	add	sp, #28
    2338:	bd30      	pop	{r4, r5, pc}
    233a:	bf00      	nop
    233c:	000091a0 	.word	0x000091a0
    2340:	0000927f 	.word	0x0000927f
    2344:	00009299 	.word	0x00009299
    2348:	000092b1 	.word	0x000092b1
    234c:	000092cc 	.word	0x000092cc
    2350:	000092e7 	.word	0x000092e7
    2354:	400fe000 	.word	0x400fe000
    2358:	000092fb 	.word	0x000092fb
    235c:	400fe004 	.word	0x400fe004
    2360:	00009311 	.word	0x00009311
    2364:	400fe030 	.word	0x400fe030
    2368:	00009327 	.word	0x00009327
    236c:	0000933d 	.word	0x0000933d
    2370:	00009352 	.word	0x00009352

00002374 <main>:

//*****************************************************************************
// PROGRAM GWNY
//*****************************************************************************
int main(void)
{
    2374:	b510      	push	{r4, lr}
	int i, j;

	// Ustawienie zegara na 50 MHz
	SysCtlClockSet(SYSCTL_SYSDIV_4 | SYSCTL_USE_PLL | SYSCTL_OSC_MAIN
    2376:	4850      	ldr	r0, [pc, #320]	; (24b8 <main+0x144>)
    2378:	f005 fa27 	bl	77ca <SysCtlClockSet>
			| SYSCTL_XTAL_8MHZ);

	// Wczenie wszystkich GPIO
	SysCtlPeripheralEnable(SYSCTL_PERIPH_GPIOA);
    237c:	484f      	ldr	r0, [pc, #316]	; (24bc <main+0x148>)
    237e:	f005 f955 	bl	762c <SysCtlPeripheralEnable>
	SysCtlPeripheralEnable(SYSCTL_PERIPH_GPIOB);
    2382:	484f      	ldr	r0, [pc, #316]	; (24c0 <main+0x14c>)
    2384:	f005 f952 	bl	762c <SysCtlPeripheralEnable>
	SysCtlPeripheralEnable(SYSCTL_PERIPH_GPIOC);
    2388:	484e      	ldr	r0, [pc, #312]	; (24c4 <main+0x150>)
    238a:	f005 f94f 	bl	762c <SysCtlPeripheralEnable>
	SysCtlPeripheralEnable(SYSCTL_PERIPH_GPIOD);
    238e:	484e      	ldr	r0, [pc, #312]	; (24c8 <main+0x154>)
    2390:	f005 f94c 	bl	762c <SysCtlPeripheralEnable>
	SysCtlPeripheralEnable(SYSCTL_PERIPH_GPIOE);
    2394:	484d      	ldr	r0, [pc, #308]	; (24cc <main+0x158>)
    2396:	f005 f949 	bl	762c <SysCtlPeripheralEnable>
	SysCtlPeripheralEnable(SYSCTL_PERIPH_GPIOF);
    239a:	484d      	ldr	r0, [pc, #308]	; (24d0 <main+0x15c>)

	//
	// Stale
	//

	p_version = VERSION;
    239c:	4c4d      	ldr	r4, [pc, #308]	; (24d4 <main+0x160>)
	SysCtlPeripheralEnable(SYSCTL_PERIPH_GPIOA);
	SysCtlPeripheralEnable(SYSCTL_PERIPH_GPIOB);
	SysCtlPeripheralEnable(SYSCTL_PERIPH_GPIOC);
	SysCtlPeripheralEnable(SYSCTL_PERIPH_GPIOD);
	SysCtlPeripheralEnable(SYSCTL_PERIPH_GPIOE);
	SysCtlPeripheralEnable(SYSCTL_PERIPH_GPIOF);
    239e:	f005 f945 	bl	762c <SysCtlPeripheralEnable>
	SysCtlPeripheralEnable(SYSCTL_PERIPH_GPIOG);
    23a2:	484d      	ldr	r0, [pc, #308]	; (24d8 <main+0x164>)
    23a4:	f005 f942 	bl	762c <SysCtlPeripheralEnable>
	SysCtlPeripheralEnable(SYSCTL_PERIPH_GPIOH);
    23a8:	484c      	ldr	r0, [pc, #304]	; (24dc <main+0x168>)
    23aa:	f005 f93f 	bl	762c <SysCtlPeripheralEnable>

	OutputsInit();
    23ae:	f7ff fd29 	bl	1e04 <OutputsInit>
	InputsInit();
    23b2:	f7ff fe9f 	bl	20f4 <InputsInit>

	//
	// Stale
	//

	p_version = VERSION;
    23b6:	f894 303a 	ldrb.w	r3, [r4, #58]	; 0x3a
    23ba:	2330      	movs	r3, #48	; 0x30
    23bc:	f884 303a 	strb.w	r3, [r4, #58]	; 0x3a
    23c0:	f894 303b 	ldrb.w	r3, [r4, #59]	; 0x3b
    23c4:	2319      	movs	r3, #25
    23c6:	f884 303b 	strb.w	r3, [r4, #59]	; 0x3b
	p_cylinder_tol = POZYCJA_GORNA_CYLINDRA_TOL;	// 200 mV
    23ca:	7fa3      	ldrb	r3, [r4, #30]
    23cc:	f06f 0337 	mvn.w	r3, #55	; 0x37
    23d0:	77a3      	strb	r3, [r4, #30]
    23d2:	7fe3      	ldrb	r3, [r4, #31]
    23d4:	2300      	movs	r3, #0
    23d6:	77e3      	strb	r3, [r4, #31]

	// Inicjacja UARTw
	Uarts_Init();
    23d8:	f7fe feb2 	bl	1140 <Uarts_Init>

	// Inicjacja portu diody STATUS
	GPIOPinTypeGPIOOutput(GPIO_PORTF_BASE, GPIO_PIN_7);
    23dc:	2180      	movs	r1, #128	; 0x80
    23de:	4840      	ldr	r0, [pc, #256]	; (24e0 <main+0x16c>)
    23e0:	f004 fdc6 	bl	6f70 <GPIOPinTypeGPIOOutput>
	GPIOPadConfigSet(GPIO_PORTG_BASE, GPIO_PIN_7, GPIO_STRENGTH_8MA,
    23e4:	2204      	movs	r2, #4
    23e6:	2308      	movs	r3, #8
    23e8:	2180      	movs	r1, #128	; 0x80
    23ea:	483e      	ldr	r0, [pc, #248]	; (24e4 <main+0x170>)
    23ec:	f004 fcb4 	bl	6d58 <GPIOPadConfigSet>
			GPIO_PIN_TYPE_STD);

	LedOff();
    23f0:	f7ff f964 	bl	16bc <LedOff>

	// Inicjacja wejcia dla przycisku SELECT
	GPIOPinTypeGPIOInput(GPIO_PORTF_BASE, GPIO_PIN_4);
    23f4:	2110      	movs	r1, #16
    23f6:	483a      	ldr	r0, [pc, #232]	; (24e0 <main+0x16c>)
    23f8:	f004 fdad 	bl	6f56 <GPIOPinTypeGPIOInput>
	GPIOPadConfigSet(GPIO_PORTF_BASE, GPIO_PIN_4, GPIO_STRENGTH_2MA,
    23fc:	2110      	movs	r1, #16
    23fe:	2201      	movs	r2, #1
    2400:	2308      	movs	r3, #8
    2402:	4837      	ldr	r0, [pc, #220]	; (24e0 <main+0x16c>)
    2404:	f004 fca8 	bl	6d58 <GPIOPadConfigSet>
			GPIO_PIN_TYPE_STD);

	// Pare informacji na RS-a
	DrukujInformacje();
    2408:	f7ff ff58 	bl	22bc <DrukujInformacje>

	// Kasuj info o przyczynie ostatniego resetu
	SysCtlResetCauseClear(SYSCTL_CAUSE_LDO | SYSCTL_CAUSE_SW
    240c:	203f      	movs	r0, #63	; 0x3f
    240e:	f005 f9c9 	bl	77a4 <SysCtlResetCauseClear>
			| SYSCTL_CAUSE_WDOG | SYSCTL_CAUSE_BOR | SYSCTL_CAUSE_POR
			| SYSCTL_CAUSE_EXT);

	// Inicjacja packietw Modbus'a
	ModbusInitPack(&uart0_modpack);
    2412:	4835      	ldr	r0, [pc, #212]	; (24e8 <main+0x174>)
    2414:	f000 f88c 	bl	2530 <ModbusInitPack>
	ModbusInitPack(&uart1_modpack);
    2418:	4834      	ldr	r0, [pc, #208]	; (24ec <main+0x178>)
    241a:	f000 f889 	bl	2530 <ModbusInitPack>
	ModbusInitPack(&uart2_modpack);
    241e:	4834      	ldr	r0, [pc, #208]	; (24f0 <main+0x17c>)
    2420:	f000 f886 	bl	2530 <ModbusInitPack>

	SPI_Init();
    2424:	f7ff fda6 	bl	1f74 <SPI_Init>
	ADC_Init3();
    2428:	f7ff fb1e 	bl	1a68 <ADC_Init3>

	// Pierwsze odczytanie obrazu
	IO_Test();
    242c:	f7ff fc9e 	bl	1d6c <IO_Test>
	ProcesIO();
    2430:	f003 ff10 	bl	6254 <ProcesIO>

	ProcesInit();
    2434:	f004 f8fa 	bl	662c <ProcesInit>

	// Inicjacje tickw
	TickInit();
    2438:	f004 fa2b 	bl	6892 <TickInit>
	tickUpdate = tickComm = tickTest = tickAlive = tickDisplay = TICK_ALIVE;
    243c:	4b2d      	ldr	r3, [pc, #180]	; (24f4 <main+0x180>)
    243e:	f64e 2260 	movw	r2, #60000	; 0xea60
    2442:	601a      	str	r2, [r3, #0]
    2444:	681a      	ldr	r2, [r3, #0]
    2446:	4b2c      	ldr	r3, [pc, #176]	; (24f8 <main+0x184>)
    2448:	601a      	str	r2, [r3, #0]
    244a:	681a      	ldr	r2, [r3, #0]
    244c:	4b2b      	ldr	r3, [pc, #172]	; (24fc <main+0x188>)
    244e:	601a      	str	r2, [r3, #0]
    2450:	681a      	ldr	r2, [r3, #0]
    2452:	4b2b      	ldr	r3, [pc, #172]	; (2500 <main+0x18c>)
    2454:	601a      	str	r2, [r3, #0]
    2456:	681a      	ldr	r2, [r3, #0]
    2458:	4b2a      	ldr	r3, [pc, #168]	; (2504 <main+0x190>)
    245a:	601a      	str	r2, [r3, #0]

	// Wczenie przerwa
	IntMasterEnable();
    245c:	f004 ff8d 	bl	737a <IntMasterEnable>

	//*****************************************************************************
	// PTLA GWNA WHILE(1)
	//*****************************************************************************

	Print("Main Loop started...\n");
    2460:	4829      	ldr	r0, [pc, #164]	; (2508 <main+0x194>)
    2462:	f7fe f8e5 	bl	630 <Print>


	// Zaczenie wyj po uruchomieniu
	image.q[2] |= 0x80;
    2466:	f894 3042 	ldrb.w	r3, [r4, #66]	; 0x42
    246a:	f043 0380 	orr.w	r3, r3, #128	; 0x80
    246e:	f884 3042 	strb.w	r3, [r4, #66]	; 0x42

	while (true)
	{
		IO_Test();
    2472:	f7ff fc7b 	bl	1d6c <IO_Test>

		ModbusService_Uart0(&uart0_modpack);
    2476:	481c      	ldr	r0, [pc, #112]	; (24e8 <main+0x174>)
    2478:	f000 fb80 	bl	2b7c <ModbusService_Uart0>
		ModbusService_Uart1(&uart1_modpack);
    247c:	481b      	ldr	r0, [pc, #108]	; (24ec <main+0x178>)
    247e:	f000 fb11 	bl	2aa4 <ModbusService_Uart1>
		ModbusService_Uart2(&uart2_modpack);
    2482:	481b      	ldr	r0, [pc, #108]	; (24f0 <main+0x17c>)
    2484:	f000 faa2 	bl	29cc <ModbusService_Uart2>

		if (TickElapsed(tickAlive) > TICK_ALIVE)
    2488:	4b1b      	ldr	r3, [pc, #108]	; (24f8 <main+0x184>)
    248a:	6818      	ldr	r0, [r3, #0]
    248c:	f004 f9e4 	bl	6858 <TickElapsed>
    2490:	f64e 2360 	movw	r3, #60000	; 0xea60
    2494:	4298      	cmp	r0, r3
    2496:	d9ec      	bls.n	2472 <main+0xfe>
		{
			if (frames > 1)
    2498:	4b1c      	ldr	r3, [pc, #112]	; (250c <main+0x198>)
    249a:	781a      	ldrb	r2, [r3, #0]
    249c:	2a01      	cmp	r2, #1
    249e:	d901      	bls.n	24a4 <main+0x130>
				connection = true;
    24a0:	2201      	movs	r2, #1
    24a2:	e000      	b.n	24a6 <main+0x132>
			else
				connection = false;
    24a4:	2200      	movs	r2, #0
    24a6:	705a      	strb	r2, [r3, #1]

			frames = 0;
    24a8:	4b18      	ldr	r3, [pc, #96]	; (250c <main+0x198>)
    24aa:	2200      	movs	r2, #0
    24ac:	701a      	strb	r2, [r3, #0]

			tickAlive = TickRead();
    24ae:	f004 f9ce 	bl	684e <TickRead>
    24b2:	4b11      	ldr	r3, [pc, #68]	; (24f8 <main+0x184>)
    24b4:	6018      	str	r0, [r3, #0]
    24b6:	e7dc      	b.n	2472 <main+0xfe>
    24b8:	01c00380 	.word	0x01c00380
    24bc:	20000001 	.word	0x20000001
    24c0:	20000002 	.word	0x20000002
    24c4:	20000004 	.word	0x20000004
    24c8:	20000008 	.word	0x20000008
    24cc:	20000010 	.word	0x20000010
    24d0:	20000020 	.word	0x20000020
    24d4:	20000ee4 	.word	0x20000ee4
    24d8:	20000040 	.word	0x20000040
    24dc:	20000080 	.word	0x20000080
    24e0:	40025000 	.word	0x40025000
    24e4:	40026000 	.word	0x40026000
    24e8:	20001070 	.word	0x20001070
    24ec:	2000127c 	.word	0x2000127c
    24f0:	20001488 	.word	0x20001488
    24f4:	20001004 	.word	0x20001004
    24f8:	20001000 	.word	0x20001000
    24fc:	20000ffc 	.word	0x20000ffc
    2500:	20000ff0 	.word	0x20000ff0
    2504:	20000ff8 	.word	0x20000ff8
    2508:	00009367 	.word	0x00009367
    250c:	20000124 	.word	0x20000124

00002510 <Komendy>:
//*****************************************************************************
// Rozpoznawanie komend przez RS-a
//*****************************************************************************

void Komendy(char *buf)
{
    2510:	b510      	push	{r4, lr}
	// Komenda: Gada do mnie panel - odpowiadam mu
	// ------------------------------------------------------------------------
	if (ustrstr(buf, "Tu PC") != NULL)
    2512:	4905      	ldr	r1, [pc, #20]	; (2528 <Komendy+0x18>)
    2514:	f7fe fc85 	bl	e22 <ustrstr>
    2518:	b120      	cbz	r0, 2524 <Komendy+0x14>
	{
		Print("Tu sterowniczek\n");
    251a:	4804      	ldr	r0, [pc, #16]	; (252c <Komendy+0x1c>)
	}
}
    251c:	e8bd 4010 	ldmia.w	sp!, {r4, lr}
{
	// Komenda: Gada do mnie panel - odpowiadam mu
	// ------------------------------------------------------------------------
	if (ustrstr(buf, "Tu PC") != NULL)
	{
		Print("Tu sterowniczek\n");
    2520:	f7fe b886 	b.w	630 <Print>
    2524:	bd10      	pop	{r4, pc}
    2526:	bf00      	nop
    2528:	0000937d 	.word	0x0000937d
    252c:	00009383 	.word	0x00009383

00002530 <ModbusInitPack>:
// Synchroznizacja przepisania obrazu funkcji main i irq
volatile bool semaphore = false;

void ModbusInitPack(MODPACK *pack)
{
	pack->address_lo = false;
    2530:	2300      	movs	r3, #0
    2532:	f880 3104 	strb.w	r3, [r0, #260]	; 0x104
	pack->byte_count = 0;
    2536:	7203      	strb	r3, [r0, #8]
	pack->crc_computed = 0;
    2538:	f880 3102 	strb.w	r3, [r0, #258]	; 0x102
    253c:	f880 3103 	strb.w	r3, [r0, #259]	; 0x103
	//pack->crc_err_counter = 0;
	pack->crc_lo = false;
    2540:	f880 3106 	strb.w	r3, [r0, #262]	; 0x106
	//pack->crc_ok_counter = 0;
	pack->crc_received = 0;
    2544:	f880 3100 	strb.w	r3, [r0, #256]	; 0x100
    2548:	f880 3101 	strb.w	r3, [r0, #257]	; 0x101
	pack->func = 0;
    254c:	70c3      	strb	r3, [r0, #3]
	pack->id = 0;
    254e:	7083      	strb	r3, [r0, #2]
	pack->len = 0;
    2550:	7043      	strb	r3, [r0, #1]
	pack->lenm = 0;
    2552:	f880 3207 	strb.w	r3, [r0, #519]	; 0x207
	pack->quantity = 0;
    2556:	7183      	strb	r3, [r0, #6]
    2558:	71c3      	strb	r3, [r0, #7]
	pack->quantity_lo = false;
    255a:	f880 3105 	strb.w	r3, [r0, #261]	; 0x105
	pack->start_address = 0;
    255e:	7103      	strb	r3, [r0, #4]
    2560:	7143      	strb	r3, [r0, #5]
	pack->status = PARSED_EMPTY;
    2562:	7003      	strb	r3, [r0, #0]
}
    2564:	4770      	bx	lr

00002566 <ModbusOK>:
	Print("pack->start_address   = %d \n", pack->start_address);
	Print("pack->status          = %d \n", pack->status);
}

bool ModbusOK(MODPACK *pack)
{
    2566:	f890 3102 	ldrb.w	r3, [r0, #258]	; 0x102
    256a:	f890 2103 	ldrb.w	r2, [r0, #259]	; 0x103
    256e:	f890 1100 	ldrb.w	r1, [r0, #256]	; 0x100
    2572:	f890 c101 	ldrb.w	ip, [r0, #257]	; 0x101
    2576:	ea43 2302 	orr.w	r3, r3, r2, lsl #8
    257a:	ea41 200c 	orr.w	r0, r1, ip, lsl #8
	if (pack->crc_received == pack->crc_computed)
		return true;
	else
		return false; // false
}
    257e:	4298      	cmp	r0, r3
    2580:	bf14      	ite	ne
    2582:	2000      	movne	r0, #0
    2584:	2001      	moveq	r0, #1
    2586:	4770      	bx	lr

00002588 <ModbusCRC>:

void ModbusCRC(MODPACK *pack)
{
    2588:	b510      	push	{r4, lr}
	char CRCLSB;
	int i, j;

	//mess1 = us;

	for (i = 0; i < pack->lenm; i++)
    258a:	f890 c207 	ldrb.w	ip, [r0, #519]	; 0x207
    258e:	2200      	movs	r2, #0
    2590:	f64f 73ff 	movw	r3, #65535	; 0xffff
    2594:	e00f      	b.n	25b6 <ModbusCRC+0x2e>
	{
		CRCFull = (word) (CRCFull ^ pack->message[i]);
    2596:	1881      	adds	r1, r0, r2
    2598:	f891 1107 	ldrb.w	r1, [r1, #263]	; 0x107
    259c:	404b      	eors	r3, r1
    259e:	2100      	movs	r1, #0

		for (j = 0; j < 8; j++)
		{
			CRCLSB = (char) (CRCFull & 0x0001);
    25a0:	f003 0401 	and.w	r4, r3, #1
			CRCFull = (word) ((CRCFull >> 1) & 0x7FFF);
    25a4:	085b      	lsrs	r3, r3, #1

			if (CRCLSB == 1)
    25a6:	b114      	cbz	r4, 25ae <ModbusCRC+0x26>
				CRCFull = (word) (CRCFull ^ 0xA001);
    25a8:	4c07      	ldr	r4, [pc, #28]	; (25c8 <ModbusCRC+0x40>)
    25aa:	4063      	eors	r3, r4
    25ac:	b29b      	uxth	r3, r3

	for (i = 0; i < pack->lenm; i++)
	{
		CRCFull = (word) (CRCFull ^ pack->message[i]);

		for (j = 0; j < 8; j++)
    25ae:	3101      	adds	r1, #1
    25b0:	2908      	cmp	r1, #8
    25b2:	d1f5      	bne.n	25a0 <ModbusCRC+0x18>
	char CRCLSB;
	int i, j;

	//mess1 = us;

	for (i = 0; i < pack->lenm; i++)
    25b4:	3201      	adds	r2, #1
    25b6:	4562      	cmp	r2, ip
    25b8:	dbed      	blt.n	2596 <ModbusCRC+0xe>
			if (CRCLSB == 1)
				CRCFull = (word) (CRCFull ^ 0xA001);
		}
	}

	pack->crc_computed = CRCFull;
    25ba:	f880 3102 	strb.w	r3, [r0, #258]	; 0x102
    25be:	0a1b      	lsrs	r3, r3, #8
    25c0:	f880 3103 	strb.w	r3, [r0, #259]	; 0x103

	//p_test1 = us - mess1;
}
    25c4:	bd10      	pop	{r4, pc}
    25c6:	bf00      	nop
    25c8:	ffffa001 	.word	0xffffa001

000025cc <WartosciStaleWObrazie>:
// d crc lo		c9


WartosciStaleWObrazie()
{
	p_cylinder_tol = POZYCJA_GORNA_CYLINDRA_TOL;
    25cc:	4b04      	ldr	r3, [pc, #16]	; (25e0 <WartosciStaleWObrazie+0x14>)
    25ce:	7f9a      	ldrb	r2, [r3, #30]
    25d0:	f06f 0237 	mvn.w	r2, #55	; 0x37
    25d4:	779a      	strb	r2, [r3, #30]
    25d6:	7fda      	ldrb	r2, [r3, #31]
    25d8:	2200      	movs	r2, #0
    25da:	77da      	strb	r2, [r3, #31]
}
    25dc:	4770      	bx	lr
    25de:	bf00      	nop
    25e0:	20000ee4 	.word	0x20000ee4

000025e4 <ModbusResponse>:

//*****************************************************************************
// Przygotowanie odpowiedzi
//*****************************************************************************
bool ModbusResponse(MODPACK *pack)
{
    25e4:	b538      	push	{r3, r4, r5, lr}
	ptr = null;

	//Print("glowa = %d, ogon = %d \n", uart0_glowa, uart0_ogon);


	switch (pack->func)
    25e6:	78c3      	ldrb	r3, [r0, #3]

//*****************************************************************************
// Przygotowanie odpowiedzi
//*****************************************************************************
bool ModbusResponse(MODPACK *pack)
{
    25e8:	4604      	mov	r4, r0
	ptr = null;

	//Print("glowa = %d, ogon = %d \n", uart0_glowa, uart0_ogon);


	switch (pack->func)
    25ea:	2b03      	cmp	r3, #3
    25ec:	d054      	beq.n	2698 <ModbusResponse+0xb4>
    25ee:	2b10      	cmp	r3, #16
    25f0:	d001      	beq.n	25f6 <ModbusResponse+0x12>
    25f2:	2500      	movs	r5, #0
    25f4:	e0de      	b.n	27b4 <ModbusResponse+0x1d0>
		//Print("Tworze odpowidz na funkcje 0x10");
		// ZAPIS BAJTW Z RAMKI MODBUS NA OBRAZ LUB PARAMETRY


		// adres 0 to Image
		if ((pack->start_address == 0x0) && (pack->len <= sizeof(Image)))
    25f6:	7903      	ldrb	r3, [r0, #4]
    25f8:	7942      	ldrb	r2, [r0, #5]
    25fa:	ea53 2302 	orrs.w	r3, r3, r2, lsl #8
    25fe:	d104      	bne.n	260a <ModbusResponse+0x26>
    2600:	7842      	ldrb	r2, [r0, #1]
    2602:	2a5e      	cmp	r2, #94	; 0x5e
    2604:	d801      	bhi.n	260a <ModbusResponse+0x26>
		{
			//Print("Ustawienie w IO \n");
			ptr = (byte*) &image;
    2606:	4d6d      	ldr	r5, [pc, #436]	; (27bc <ModbusResponse+0x1d8>)
    2608:	e000      	b.n	260c <ModbusResponse+0x28>
    260a:	2500      	movs	r5, #0
		}

		// adres 1000 to Parametry
		if ((pack->start_address >= 0x1000) && (pack->start_address <= 0x1f00)
    260c:	f5a3 5380 	sub.w	r3, r3, #4096	; 0x1000
    2610:	b29a      	uxth	r2, r3
    2612:	f5b2 6f70 	cmp.w	r2, #3840	; 0xf00
    2616:	d80d      	bhi.n	2634 <ModbusResponse+0x50>
				&& (pack->len <= sizeof(WeldParam)))
    2618:	7862      	ldrb	r2, [r4, #1]
    261a:	2a3c      	cmp	r2, #60	; 0x3c
    261c:	d80a      	bhi.n	2634 <ModbusResponse+0x50>
		{
			prog = (pack->start_address - 0x1000) / 0x100;
    261e:	121b      	asrs	r3, r3, #8
    2620:	b29b      	uxth	r3, r3
			//Print("Ustawienie parametrow programu nr %d, pack->len = %d, pack->start_address = %d \n", prog, pack->len, pack->start_address);
			ptr = (byte*) &par[prog];
    2622:	4a67      	ldr	r2, [pc, #412]	; (27c0 <ModbusResponse+0x1dc>)
    2624:	253c      	movs	r5, #60	; 0x3c

			if (prog == 15)
    2626:	2b0f      	cmp	r3, #15
		if ((pack->start_address >= 0x1000) && (pack->start_address <= 0x1f00)
				&& (pack->len <= sizeof(WeldParam)))
		{
			prog = (pack->start_address - 0x1000) / 0x100;
			//Print("Ustawienie parametrow programu nr %d, pack->len = %d, pack->start_address = %d \n", prog, pack->len, pack->start_address);
			ptr = (byte*) &par[prog];
    2628:	fb05 2503 	mla	r5, r5, r3, r2

			if (prog == 15)
    262c:	d102      	bne.n	2634 <ModbusResponse+0x50>
				aktywacja_programyzaladowane = true;
    262e:	4b65      	ldr	r3, [pc, #404]	; (27c4 <ModbusResponse+0x1e0>)
    2630:	2201      	movs	r2, #1
    2632:	701a      	strb	r2, [r3, #0]
		}

		if (ptr != null)
    2634:	2d00      	cmp	r5, #0
    2636:	f000 80bd 	beq.w	27b4 <ModbusResponse+0x1d0>

			//
			// !!!!!!!!!!!!!!!!!!!!!!!!!!!!!!!!!!!!!!!!!!!!
			// Synchronizacja wpisania obrazu z przerwaniem
			//
			semaphore = true;
    263a:	4b63      	ldr	r3, [pc, #396]	; (27c8 <ModbusResponse+0x1e4>)
    263c:	2201      	movs	r2, #1
    263e:	701a      	strb	r2, [r3, #0]
			while (semaphore == true)
    2640:	4b61      	ldr	r3, [pc, #388]	; (27c8 <ModbusResponse+0x1e4>)
    2642:	781b      	ldrb	r3, [r3, #0]
    2644:	2b01      	cmp	r3, #1
    2646:	d0fb      	beq.n	2640 <ModbusResponse+0x5c>
			}
			//
			// !!!!!!!!!!!!!!!!!!!!!!!!!!!!!!!!!!!!!!!!!!!!
			//

			for (i = 0; i < pack->len; i++)
    2648:	7862      	ldrb	r2, [r4, #1]
    264a:	2300      	movs	r3, #0
    264c:	e003      	b.n	2656 <ModbusResponse+0x72>
			{
				*ptr++ = pack->buf[i];
    264e:	18e1      	adds	r1, r4, r3
    2650:	7a49      	ldrb	r1, [r1, #9]
    2652:	54e9      	strb	r1, [r5, r3]
    2654:	3301      	adds	r3, #1
			}
			//
			// !!!!!!!!!!!!!!!!!!!!!!!!!!!!!!!!!!!!!!!!!!!!
			//

			for (i = 0; i < pack->len; i++)
    2656:	b299      	uxth	r1, r3
    2658:	4291      	cmp	r1, r2
    265a:	d3f8      	bcc.n	264e <ModbusResponse+0x6a>
    265c:	18ad      	adds	r5, r5, r2
			{
				*ptr++ = pack->buf[i];
			}

			WartosciStaleWObrazie();
    265e:	f7ff ffb5 	bl	25cc <WartosciStaleWObrazie>

			if (pack->start_address == 0x0)
    2662:	7923      	ldrb	r3, [r4, #4]
    2664:	7962      	ldrb	r2, [r4, #5]
    2666:	ea53 2202 	orrs.w	r2, r3, r2, lsl #8
    266a:	d111      	bne.n	2690 <ModbusResponse+0xac>
			{
				if (image.sm[0] != 0)
    266c:	4b53      	ldr	r3, [pc, #332]	; (27bc <ModbusResponse+0x1d8>)
    266e:	781a      	ldrb	r2, [r3, #0]
    2670:	7859      	ldrb	r1, [r3, #1]
    2672:	ea52 2101 	orrs.w	r1, r2, r1, lsl #8
    2676:	d00b      	beq.n	2690 <ModbusResponse+0xac>
				{
					rozkaz = image.sm[0];
    2678:	781a      	ldrb	r2, [r3, #0]
    267a:	7859      	ldrb	r1, [r3, #1]
    267c:	ea42 2101 	orr.w	r1, r2, r1, lsl #8
    2680:	4a52      	ldr	r2, [pc, #328]	; (27cc <ModbusResponse+0x1e8>)
    2682:	8011      	strh	r1, [r2, #0]
					rozkaz_arg = image.sm[1];
    2684:	789a      	ldrb	r2, [r3, #2]
    2686:	78db      	ldrb	r3, [r3, #3]
    2688:	ea42 2203 	orr.w	r2, r2, r3, lsl #8
    268c:	4b50      	ldr	r3, [pc, #320]	; (27d0 <ModbusResponse+0x1ec>)
    268e:	801a      	strh	r2, [r3, #0]
					//Print("Rozkaz = %d, arg = %d \n", rozkaz, rozkaz_arg);
				}
			}

			// TWORZENIE RAMKI Z ODPOWIEDZI
			pack->lenm = 6;
    2690:	2306      	movs	r3, #6
    2692:	f884 3207 	strb.w	r3, [r4, #519]	; 0x207
    2696:	e079      	b.n	278c <ModbusResponse+0x1a8>
	case 0x03:

		//Print("Tworze odpowidz na funkcje 0x03");
		// TWORZENIE RAMKI Z ODPOWIEDZI
		// adres 0 to Image
		if ((pack->start_address == 0x0) && (pack->byte_count <= sizeof(Image)))
    2698:	7903      	ldrb	r3, [r0, #4]
    269a:	7942      	ldrb	r2, [r0, #5]
    269c:	ea53 2302 	orrs.w	r3, r3, r2, lsl #8
    26a0:	d104      	bne.n	26ac <ModbusResponse+0xc8>
    26a2:	7a02      	ldrb	r2, [r0, #8]
    26a4:	2a5e      	cmp	r2, #94	; 0x5e
    26a6:	d801      	bhi.n	26ac <ModbusResponse+0xc8>
		{
			//Print("Odczyt IO \n");
			ptr = (byte*) &image;
    26a8:	4d44      	ldr	r5, [pc, #272]	; (27bc <ModbusResponse+0x1d8>)
    26aa:	e000      	b.n	26ae <ModbusResponse+0xca>
    26ac:	2500      	movs	r5, #0
		}

		// adres 1000 to Parametry
		if ((pack->start_address >= 0x1000) && (pack->start_address <= 0x1f00)
    26ae:	f5a3 5280 	sub.w	r2, r3, #4096	; 0x1000
    26b2:	b291      	uxth	r1, r2
    26b4:	f5b1 6f70 	cmp.w	r1, #3840	; 0xf00
    26b8:	d80b      	bhi.n	26d2 <ModbusResponse+0xee>
				&& (pack->byte_count <= sizeof(WeldParam)))
    26ba:	7a23      	ldrb	r3, [r4, #8]
    26bc:	2b3c      	cmp	r3, #60	; 0x3c
    26be:	d816      	bhi.n	26ee <ModbusResponse+0x10a>
		{
			ptr = (byte*) &par[(pack->start_address - 0x1000) / 0x100];
    26c0:	4b3f      	ldr	r3, [pc, #252]	; (27c0 <ModbusResponse+0x1dc>)
    26c2:	1212      	asrs	r2, r2, #8
    26c4:	253c      	movs	r5, #60	; 0x3c
    26c6:	fb05 3502 	mla	r5, r5, r2, r3
			wyslano_wyniki = true;
    26ca:	4b42      	ldr	r3, [pc, #264]	; (27d4 <ModbusResponse+0x1f0>)
    26cc:	2201      	movs	r2, #1
    26ce:	701a      	strb	r2, [r3, #0]
    26d0:	e00d      	b.n	26ee <ModbusResponse+0x10a>
			//Print("Byl odczyt programu startaddress = %d \n", pack->start_address);
			//Print("Odczyt parametrow programu nr %d, pack->byte_count = %d, pack->start_address = %d, prog = %d \n", (pack->start_address - 0x1000) / 0x100, pack->byte_count, pack->start_address, (pack->start_address - 0x1000) / 0x100);
		}

		// adres 5000 Wykres wzorcowy
		if ((pack->start_address == 0x5000) && (pack->byte_count
    26d2:	f5b3 4fa0 	cmp.w	r3, #20480	; 0x5000
    26d6:	d10a      	bne.n	26ee <ModbusResponse+0x10a>
    26d8:	7a23      	ldrb	r3, [r4, #8]
    26da:	2bc8      	cmp	r3, #200	; 0xc8
    26dc:	d807      	bhi.n	26ee <ModbusResponse+0x10a>
				<= WYKRES_TAB_SIZE * 2))
		{
			ptr = (byte*) &wykres_wzor[0];
			if ((wykres_index * 2) > WYKRES_TAB_SIZE)
    26de:	4b3e      	ldr	r3, [pc, #248]	; (27d8 <ModbusResponse+0x1f4>)

		// adres 5000 Wykres wzorcowy
		if ((pack->start_address == 0x5000) && (pack->byte_count
				<= WYKRES_TAB_SIZE * 2))
		{
			ptr = (byte*) &wykres_wzor[0];
    26e0:	4d3e      	ldr	r5, [pc, #248]	; (27dc <ModbusResponse+0x1f8>)
			if ((wykres_index * 2) > WYKRES_TAB_SIZE)
    26e2:	781b      	ldrb	r3, [r3, #0]
    26e4:	005b      	lsls	r3, r3, #1
    26e6:	2b64      	cmp	r3, #100	; 0x64
				pack->byte_count = WYKRES_TAB_SIZE;
    26e8:	bfc8      	it	gt
    26ea:	2364      	movgt	r3, #100	; 0x64
			else
				pack->byte_count = wykres_index * 2;
    26ec:	7223      	strb	r3, [r4, #8]
		}

		// adres 5100 Wykres prdu
		if ((pack->start_address == 0x5100) && (pack->byte_count
    26ee:	7923      	ldrb	r3, [r4, #4]
    26f0:	7962      	ldrb	r2, [r4, #5]
    26f2:	ea43 2302 	orr.w	r3, r3, r2, lsl #8
    26f6:	f5b3 4fa2 	cmp.w	r3, #20736	; 0x5100
    26fa:	d10a      	bne.n	2712 <ModbusResponse+0x12e>
    26fc:	7a23      	ldrb	r3, [r4, #8]
    26fe:	2bc8      	cmp	r3, #200	; 0xc8
    2700:	d807      	bhi.n	2712 <ModbusResponse+0x12e>
				<= WYKRES_TAB_SIZE * 2))
		{
			ptr = (byte*) &wykres_prad[0];
			if ((wykres_index * 2) > WYKRES_TAB_SIZE)
    2702:	4b35      	ldr	r3, [pc, #212]	; (27d8 <ModbusResponse+0x1f4>)

		// adres 5100 Wykres prdu
		if ((pack->start_address == 0x5100) && (pack->byte_count
				<= WYKRES_TAB_SIZE * 2))
		{
			ptr = (byte*) &wykres_prad[0];
    2704:	4d36      	ldr	r5, [pc, #216]	; (27e0 <ModbusResponse+0x1fc>)
			if ((wykres_index * 2) > WYKRES_TAB_SIZE)
    2706:	781b      	ldrb	r3, [r3, #0]
    2708:	005b      	lsls	r3, r3, #1
    270a:	2b64      	cmp	r3, #100	; 0x64
				pack->byte_count = WYKRES_TAB_SIZE;
    270c:	bfc8      	it	gt
    270e:	2364      	movgt	r3, #100	; 0x64
			else
				pack->byte_count = wykres_index * 2;
    2710:	7223      	strb	r3, [r4, #8]
		}

		// adres 5200 Wykres napicia
		if ((pack->start_address == 0x5200) && (pack->byte_count
    2712:	7923      	ldrb	r3, [r4, #4]
    2714:	7962      	ldrb	r2, [r4, #5]
    2716:	ea43 2302 	orr.w	r3, r3, r2, lsl #8
    271a:	f5b3 4fa4 	cmp.w	r3, #20992	; 0x5200
    271e:	d10a      	bne.n	2736 <ModbusResponse+0x152>
    2720:	7a23      	ldrb	r3, [r4, #8]
    2722:	2bc8      	cmp	r3, #200	; 0xc8
    2724:	d807      	bhi.n	2736 <ModbusResponse+0x152>
				<= WYKRES_TAB_SIZE * 2))
		{
			ptr = (byte*) &wykres_nap[0];
			if ((wykres_index * 2) > WYKRES_TAB_SIZE)
    2726:	4b2c      	ldr	r3, [pc, #176]	; (27d8 <ModbusResponse+0x1f4>)

		// adres 5200 Wykres napicia
		if ((pack->start_address == 0x5200) && (pack->byte_count
				<= WYKRES_TAB_SIZE * 2))
		{
			ptr = (byte*) &wykres_nap[0];
    2728:	4d2e      	ldr	r5, [pc, #184]	; (27e4 <ModbusResponse+0x200>)
			if ((wykres_index * 2) > WYKRES_TAB_SIZE)
    272a:	781b      	ldrb	r3, [r3, #0]
    272c:	005b      	lsls	r3, r3, #1
    272e:	2b64      	cmp	r3, #100	; 0x64
				pack->byte_count = WYKRES_TAB_SIZE;
    2730:	bfc8      	it	gt
    2732:	2364      	movgt	r3, #100	; 0x64
			else
				pack->byte_count = wykres_index * 2;
    2734:	7223      	strb	r3, [r4, #8]
		}

		// adres 5200 Wykres wtopienia
		if ((pack->start_address == 0x5300) && (pack->byte_count
    2736:	7923      	ldrb	r3, [r4, #4]
    2738:	7962      	ldrb	r2, [r4, #5]
    273a:	ea43 2302 	orr.w	r3, r3, r2, lsl #8
    273e:	f5b3 4fa6 	cmp.w	r3, #21248	; 0x5300
    2742:	d10b      	bne.n	275c <ModbusResponse+0x178>
    2744:	7a23      	ldrb	r3, [r4, #8]
    2746:	2bc8      	cmp	r3, #200	; 0xc8
    2748:	d808      	bhi.n	275c <ModbusResponse+0x178>
				<= WYKRES_TAB_SIZE * 2))
		{
			ptr = (byte*) &wykres_wtopienia[0];
			if ((wykres_index * 2) > WYKRES_TAB_SIZE)
    274a:	4b23      	ldr	r3, [pc, #140]	; (27d8 <ModbusResponse+0x1f4>)

		// adres 5200 Wykres wtopienia
		if ((pack->start_address == 0x5300) && (pack->byte_count
				<= WYKRES_TAB_SIZE * 2))
		{
			ptr = (byte*) &wykres_wtopienia[0];
    274c:	4d26      	ldr	r5, [pc, #152]	; (27e8 <ModbusResponse+0x204>)
			if ((wykres_index * 2) > WYKRES_TAB_SIZE)
    274e:	781b      	ldrb	r3, [r3, #0]
    2750:	005b      	lsls	r3, r3, #1
    2752:	2b64      	cmp	r3, #100	; 0x64
				pack->byte_count = WYKRES_TAB_SIZE;
    2754:	bfc8      	it	gt
    2756:	2364      	movgt	r3, #100	; 0x64
			else
				pack->byte_count = wykres_index * 2;
    2758:	7223      	strb	r3, [r4, #8]
    275a:	e000      	b.n	275e <ModbusResponse+0x17a>
		}

		if (ptr != null)
    275c:	b355      	cbz	r5, 27b4 <ModbusResponse+0x1d0>
		{
			pack->lenm = 2;
			pack->message[pack->lenm++] = pack->byte_count;
    275e:	7a22      	ldrb	r2, [r4, #8]
    2760:	2303      	movs	r3, #3
    2762:	f884 3207 	strb.w	r3, [r4, #519]	; 0x207
    2766:	f884 2109 	strb.w	r2, [r4, #265]	; 0x109

			for (i = 0; i < pack->byte_count; i++)
    276a:	3b03      	subs	r3, #3
    276c:	e00a      	b.n	2784 <ModbusResponse+0x1a0>
			{
				pack->message[pack->lenm++] = *ptr;
    276e:	f894 1207 	ldrb.w	r1, [r4, #519]	; 0x207
    2772:	f815 c003 	ldrb.w	ip, [r5, r3]
    2776:	1908      	adds	r0, r1, r4
    2778:	3101      	adds	r1, #1
    277a:	f880 c107 	strb.w	ip, [r0, #263]	; 0x107
    277e:	f884 1207 	strb.w	r1, [r4, #519]	; 0x207
    2782:	3301      	adds	r3, #1
		if (ptr != null)
		{
			pack->lenm = 2;
			pack->message[pack->lenm++] = pack->byte_count;

			for (i = 0; i < pack->byte_count; i++)
    2784:	b299      	uxth	r1, r3
    2786:	4291      	cmp	r1, r2
    2788:	d3f1      	bcc.n	276e <ModbusResponse+0x18a>
    278a:	18ad      	adds	r5, r5, r2
			{
				pack->message[pack->lenm++] = *ptr;
				ptr++;
			}

			ModbusCRC(pack);
    278c:	4620      	mov	r0, r4
    278e:	f7ff fefb 	bl	2588 <ModbusCRC>

			pack->message[pack->lenm++] = (byte) (pack->crc_computed);
    2792:	f894 3207 	ldrb.w	r3, [r4, #519]	; 0x207
    2796:	f894 1102 	ldrb.w	r1, [r4, #258]	; 0x102
    279a:	191a      	adds	r2, r3, r4
    279c:	f882 1107 	strb.w	r1, [r2, #263]	; 0x107
    27a0:	3301      	adds	r3, #1
    27a2:	b2db      	uxtb	r3, r3
			pack->message[pack->lenm++] = (byte) (pack->crc_computed >> 8);
    27a4:	f894 1103 	ldrb.w	r1, [r4, #259]	; 0x103
    27a8:	191a      	adds	r2, r3, r4
    27aa:	3301      	adds	r3, #1
    27ac:	f882 1107 	strb.w	r1, [r2, #263]	; 0x107
    27b0:	f884 3207 	strb.w	r3, [r4, #519]	; 0x207

	if (ptr != null)
		return true;
	else
		return false;
}
    27b4:	1e28      	subs	r0, r5, #0
    27b6:	bf18      	it	ne
    27b8:	2001      	movne	r0, #1
    27ba:	bd38      	pop	{r3, r4, r5, pc}
    27bc:	20000ee4 	.word	0x20000ee4
    27c0:	20001b40 	.word	0x20001b40
    27c4:	20000126 	.word	0x20000126
    27c8:	20000128 	.word	0x20000128
    27cc:	20002172 	.word	0x20002172
    27d0:	20001f08 	.word	0x20001f08
    27d4:	2000017a 	.word	0x2000017a
    27d8:	20001f2e 	.word	0x20001f2e
    27dc:	200022e8 	.word	0x200022e8
    27e0:	200018d4 	.word	0x200018d4
    27e4:	200016a4 	.word	0x200016a4
    27e8:	20001f3c 	.word	0x20001f3c

000027ec <ModbusInput>:
//*****************************************************************************
// Odbir dannych Modbus
//*****************************************************************************
void ModbusInput(MODPACK *pack, byte newbyte)
{
	switch (pack->status)
    27ec:	7803      	ldrb	r3, [r0, #0]

//*****************************************************************************
// Odbir dannych Modbus
//*****************************************************************************
void ModbusInput(MODPACK *pack, byte newbyte)
{
    27ee:	b510      	push	{r4, lr}
	switch (pack->status)
    27f0:	2b06      	cmp	r3, #6
    27f2:	f200 80e2 	bhi.w	29ba <ModbusInput+0x1ce>
    27f6:	e8df f013 	tbh	[pc, r3, lsl #1]
    27fa:	00d2      	.short	0x00d2
    27fc:	009c00c1 	.word	0x009c00c1
    2800:	003f0053 	.word	0x003f0053
    2804:	00070021 	.word	0x00070021
	{

	case PARSED_DATA:
		if (pack->crc_lo == false)
    2808:	f890 3106 	ldrb.w	r3, [r0, #262]	; 0x106
    280c:	b93b      	cbnz	r3, 281e <ModbusInput+0x32>
		{
			pack->crc_received = (word) (newbyte);
    280e:	f880 3101 	strb.w	r3, [r0, #257]	; 0x101
			pack->crc_lo = true;
    2812:	3301      	adds	r3, #1
	{

	case PARSED_DATA:
		if (pack->crc_lo == false)
		{
			pack->crc_received = (word) (newbyte);
    2814:	f880 1100 	strb.w	r1, [r0, #256]	; 0x100
			pack->crc_lo = true;
    2818:	f880 3106 	strb.w	r3, [r0, #262]	; 0x106
    281c:	e0cd      	b.n	29ba <ModbusInput+0x1ce>
		}
		else
		{
			pack->crc_received |= (word) (newbyte << 8);
    281e:	f890 3100 	ldrb.w	r3, [r0, #256]	; 0x100
    2822:	f890 2101 	ldrb.w	r2, [r0, #257]	; 0x101
    2826:	ea43 2302 	orr.w	r3, r3, r2, lsl #8
    282a:	ea43 2101 	orr.w	r1, r3, r1, lsl #8
    282e:	f880 1100 	strb.w	r1, [r0, #256]	; 0x100
    2832:	0a09      	lsrs	r1, r1, #8
    2834:	f880 1101 	strb.w	r1, [r0, #257]	; 0x101
			pack->status = PARSED_FULL;
    2838:	230a      	movs	r3, #10
    283a:	e0bd      	b.n	29b8 <ModbusInput+0x1cc>
		}
		break;
		//*****************************************************************************

	case PARSED_BYTECOUNT:
		switch (pack->func)
    283c:	78c3      	ldrb	r3, [r0, #3]
    283e:	2b10      	cmp	r3, #16
    2840:	f040 80bb 	bne.w	29ba <ModbusInput+0x1ce>
		{
		case 0x10:
			if ((pack->len < pack->byte_count) && (pack->len < MAX_MODBUSPACK))
    2844:	7843      	ldrb	r3, [r0, #1]
    2846:	7a02      	ldrb	r2, [r0, #8]
    2848:	429a      	cmp	r2, r3
    284a:	d90d      	bls.n	2868 <ModbusInput+0x7c>
    284c:	2bf6      	cmp	r3, #246	; 0xf6
    284e:	d80b      	bhi.n	2868 <ModbusInput+0x7c>
			{
				pack->message[pack->lenm++] = newbyte;
    2850:	f890 2207 	ldrb.w	r2, [r0, #519]	; 0x207
    2854:	1814      	adds	r4, r2, r0
    2856:	3201      	adds	r2, #1
    2858:	f880 2207 	strb.w	r2, [r0, #519]	; 0x207
				pack->buf[pack->len++] = newbyte;
    285c:	181a      	adds	r2, r3, r0
    285e:	3301      	adds	r3, #1
		switch (pack->func)
		{
		case 0x10:
			if ((pack->len < pack->byte_count) && (pack->len < MAX_MODBUSPACK))
			{
				pack->message[pack->lenm++] = newbyte;
    2860:	f884 1107 	strb.w	r1, [r4, #263]	; 0x107
				pack->buf[pack->len++] = newbyte;
    2864:	7251      	strb	r1, [r2, #9]
    2866:	7043      	strb	r3, [r0, #1]
			}
			if ((pack->len >= pack->byte_count)
    2868:	7843      	ldrb	r3, [r0, #1]
    286a:	7a02      	ldrb	r2, [r0, #8]
    286c:	429a      	cmp	r2, r3
    286e:	d95e      	bls.n	292e <ModbusInput+0x142>
    2870:	2bf6      	cmp	r3, #246	; 0xf6
    2872:	f240 80a2 	bls.w	29ba <ModbusInput+0x1ce>
    2876:	e05a      	b.n	292e <ModbusInput+0x142>
		}
		break;
		//*****************************************************************************

	case PARSED_QUANTITY:
		switch (pack->func)
    2878:	78c3      	ldrb	r3, [r0, #3]
    287a:	2b10      	cmp	r3, #16
    287c:	f040 809d 	bne.w	29ba <ModbusInput+0x1ce>
		{
		case 0x10:
			pack->message[pack->lenm++] = newbyte;
    2880:	f890 3207 	ldrb.w	r3, [r0, #519]	; 0x207
			pack->byte_count = newbyte;
    2884:	7201      	strb	r1, [r0, #8]

	case PARSED_QUANTITY:
		switch (pack->func)
		{
		case 0x10:
			pack->message[pack->lenm++] = newbyte;
    2886:	181a      	adds	r2, r3, r0
    2888:	3301      	adds	r3, #1
			pack->byte_count = newbyte;
			if (pack->byte_count > MAX_MODBUSPACK)
    288a:	29f7      	cmp	r1, #247	; 0xf7

	case PARSED_QUANTITY:
		switch (pack->func)
		{
		case 0x10:
			pack->message[pack->lenm++] = newbyte;
    288c:	f880 3207 	strb.w	r3, [r0, #519]	; 0x207
			pack->byte_count = newbyte;
			if (pack->byte_count > MAX_MODBUSPACK)
				pack->byte_count = MAX_MODBUSPACK;
    2890:	bf84      	itt	hi
    2892:	f06f 0308 	mvnhi.w	r3, #8
    2896:	7203      	strbhi	r3, [r0, #8]

	case PARSED_QUANTITY:
		switch (pack->func)
		{
		case 0x10:
			pack->message[pack->lenm++] = newbyte;
    2898:	f882 1107 	strb.w	r1, [r2, #263]	; 0x107
			if (pack->byte_count > MAX_MODBUSPACK)
				pack->byte_count = MAX_MODBUSPACK;

			//ModbusPrintPack(pack);

			pack->status = PARSED_BYTECOUNT;
    289c:	2305      	movs	r3, #5
    289e:	e08b      	b.n	29b8 <ModbusInput+0x1cc>
		}
		break;
		//*****************************************************************************

	case PARSED_ADDRESS:
		switch (pack->func)
    28a0:	78c3      	ldrb	r3, [r0, #3]
    28a2:	2b03      	cmp	r3, #3
    28a4:	d017      	beq.n	28d6 <ModbusInput+0xea>
    28a6:	2b10      	cmp	r3, #16
    28a8:	f040 8087 	bne.w	29ba <ModbusInput+0x1ce>
		{
		case 0x10:
			if (pack->quantity_lo == false)
    28ac:	f890 2105 	ldrb.w	r2, [r0, #261]	; 0x105
    28b0:	f890 3207 	ldrb.w	r3, [r0, #519]	; 0x207
    28b4:	b1a2      	cbz	r2, 28e0 <ModbusInput+0xf4>
				pack->quantity = (word) (newbyte << 8);
				pack->quantity_lo = true;
			}
			else
			{
				pack->message[pack->lenm++] = newbyte;
    28b6:	181a      	adds	r2, r3, r0
    28b8:	f882 1107 	strb.w	r1, [r2, #263]	; 0x107
    28bc:	3301      	adds	r3, #1
				pack->quantity |= (word) (newbyte);
    28be:	79c2      	ldrb	r2, [r0, #7]
				pack->quantity = (word) (newbyte << 8);
				pack->quantity_lo = true;
			}
			else
			{
				pack->message[pack->lenm++] = newbyte;
    28c0:	f880 3207 	strb.w	r3, [r0, #519]	; 0x207
				pack->quantity |= (word) (newbyte);
    28c4:	7983      	ldrb	r3, [r0, #6]
    28c6:	ea43 2302 	orr.w	r3, r3, r2, lsl #8
    28ca:	4319      	orrs	r1, r3
    28cc:	7181      	strb	r1, [r0, #6]
    28ce:	0a09      	lsrs	r1, r1, #8
    28d0:	71c1      	strb	r1, [r0, #7]
				pack->status = PARSED_QUANTITY;
    28d2:	2304      	movs	r3, #4
    28d4:	e070      	b.n	29b8 <ModbusInput+0x1cc>
				//pack->byte_count = (byte) ((pack->quantity) * 2);

			}
			break;
		case 0x03:
			if (pack->quantity_lo == false)
    28d6:	f890 2105 	ldrb.w	r2, [r0, #261]	; 0x105
    28da:	f890 3207 	ldrb.w	r3, [r0, #519]	; 0x207
    28de:	b97a      	cbnz	r2, 2900 <ModbusInput+0x114>
			{
				pack->message[pack->lenm++] = newbyte;
    28e0:	181a      	adds	r2, r3, r0
    28e2:	f882 1107 	strb.w	r1, [r2, #263]	; 0x107
    28e6:	3301      	adds	r3, #1
				pack->quantity = (word) (newbyte << 8);
    28e8:	0209      	lsls	r1, r1, #8
			}
			break;
		case 0x03:
			if (pack->quantity_lo == false)
			{
				pack->message[pack->lenm++] = newbyte;
    28ea:	f880 3207 	strb.w	r3, [r0, #519]	; 0x207
				pack->quantity = (word) (newbyte << 8);
    28ee:	f001 03ff 	and.w	r3, r1, #255	; 0xff
    28f2:	7183      	strb	r3, [r0, #6]
    28f4:	0a09      	lsrs	r1, r1, #8
				pack->quantity_lo = true;
    28f6:	2301      	movs	r3, #1
			break;
		case 0x03:
			if (pack->quantity_lo == false)
			{
				pack->message[pack->lenm++] = newbyte;
				pack->quantity = (word) (newbyte << 8);
    28f8:	71c1      	strb	r1, [r0, #7]
				pack->quantity_lo = true;
    28fa:	f880 3105 	strb.w	r3, [r0, #261]	; 0x105
    28fe:	e05c      	b.n	29ba <ModbusInput+0x1ce>
			}
			else
			{
				pack->message[pack->lenm++] = newbyte;
    2900:	181a      	adds	r2, r3, r0
    2902:	f882 1107 	strb.w	r1, [r2, #263]	; 0x107
    2906:	3301      	adds	r3, #1
				pack->quantity |= (word) (newbyte);
    2908:	79c2      	ldrb	r2, [r0, #7]
				pack->quantity = (word) (newbyte << 8);
				pack->quantity_lo = true;
			}
			else
			{
				pack->message[pack->lenm++] = newbyte;
    290a:	f880 3207 	strb.w	r3, [r0, #519]	; 0x207
				pack->quantity |= (word) (newbyte);
    290e:	7983      	ldrb	r3, [r0, #6]
    2910:	ea43 2302 	orr.w	r3, r3, r2, lsl #8
    2914:	4319      	orrs	r1, r3
    2916:	0a0b      	lsrs	r3, r1, #8
    2918:	7181      	strb	r1, [r0, #6]
				pack->byte_count = (byte) ((pack->quantity) * 2);
    291a:	0049      	lsls	r1, r1, #1
    291c:	b2c9      	uxtb	r1, r1

				if (pack->byte_count > MAX_MODBUSPACK)
    291e:	29f7      	cmp	r1, #247	; 0xf7
				pack->quantity_lo = true;
			}
			else
			{
				pack->message[pack->lenm++] = newbyte;
				pack->quantity |= (word) (newbyte);
    2920:	71c3      	strb	r3, [r0, #7]
				pack->byte_count = (byte) ((pack->quantity) * 2);

				if (pack->byte_count > MAX_MODBUSPACK)
					pack->byte_count = MAX_MODBUSPACK;
    2922:	bf88      	it	hi
    2924:	f06f 0308 	mvnhi.w	r3, #8
			}
			else
			{
				pack->message[pack->lenm++] = newbyte;
				pack->quantity |= (word) (newbyte);
				pack->byte_count = (byte) ((pack->quantity) * 2);
    2928:	7201      	strb	r1, [r0, #8]

				if (pack->byte_count > MAX_MODBUSPACK)
					pack->byte_count = MAX_MODBUSPACK;
    292a:	bf88      	it	hi
    292c:	7203      	strbhi	r3, [r0, #8]

				pack->status = PARSED_DATA;
    292e:	2306      	movs	r3, #6
    2930:	e042      	b.n	29b8 <ModbusInput+0x1cc>
		}
		break;
		//*****************************************************************************

	case PARSED_FUNC:
		if (pack->address_lo == false)
    2932:	f890 2104 	ldrb.w	r2, [r0, #260]	; 0x104
    2936:	f890 3207 	ldrb.w	r3, [r0, #519]	; 0x207
    293a:	b97a      	cbnz	r2, 295c <ModbusInput+0x170>
		{
			pack->message[pack->lenm++] = newbyte;
    293c:	181a      	adds	r2, r3, r0
    293e:	f882 1107 	strb.w	r1, [r2, #263]	; 0x107
    2942:	3301      	adds	r3, #1
			pack->start_address = (word) (newbyte << 8);
    2944:	0209      	lsls	r1, r1, #8
		//*****************************************************************************

	case PARSED_FUNC:
		if (pack->address_lo == false)
		{
			pack->message[pack->lenm++] = newbyte;
    2946:	f880 3207 	strb.w	r3, [r0, #519]	; 0x207
			pack->start_address = (word) (newbyte << 8);
    294a:	f001 03ff 	and.w	r3, r1, #255	; 0xff
    294e:	7103      	strb	r3, [r0, #4]
    2950:	0a09      	lsrs	r1, r1, #8
			pack->address_lo = true;
    2952:	2301      	movs	r3, #1

	case PARSED_FUNC:
		if (pack->address_lo == false)
		{
			pack->message[pack->lenm++] = newbyte;
			pack->start_address = (word) (newbyte << 8);
    2954:	7141      	strb	r1, [r0, #5]
			pack->address_lo = true;
    2956:	f880 3104 	strb.w	r3, [r0, #260]	; 0x104
    295a:	e02e      	b.n	29ba <ModbusInput+0x1ce>
		}
		else
		{
			pack->message[pack->lenm++] = newbyte;
    295c:	181a      	adds	r2, r3, r0
    295e:	f882 1107 	strb.w	r1, [r2, #263]	; 0x107
    2962:	3301      	adds	r3, #1
			pack->start_address |= (word) (newbyte);
    2964:	7942      	ldrb	r2, [r0, #5]
			pack->start_address = (word) (newbyte << 8);
			pack->address_lo = true;
		}
		else
		{
			pack->message[pack->lenm++] = newbyte;
    2966:	f880 3207 	strb.w	r3, [r0, #519]	; 0x207
			pack->start_address |= (word) (newbyte);
    296a:	7903      	ldrb	r3, [r0, #4]
    296c:	ea43 2302 	orr.w	r3, r3, r2, lsl #8
    2970:	4319      	orrs	r1, r3
    2972:	7101      	strb	r1, [r0, #4]
    2974:	0a09      	lsrs	r1, r1, #8
    2976:	7141      	strb	r1, [r0, #5]
			pack->status = PARSED_ADDRESS;
    2978:	2303      	movs	r3, #3
    297a:	e01d      	b.n	29b8 <ModbusInput+0x1cc>
		}
		break;
		//*****************************************************************************

	case PARSED_ID:
		if (newbyte == 0x10 || newbyte == 0x03)
    297c:	2910      	cmp	r1, #16
    297e:	d001      	beq.n	2984 <ModbusInput+0x198>
    2980:	2903      	cmp	r1, #3
    2982:	d10a      	bne.n	299a <ModbusInput+0x1ae>
		{
			pack->message[pack->lenm++] = newbyte;
    2984:	f890 3207 	ldrb.w	r3, [r0, #519]	; 0x207
			pack->func = newbyte;
    2988:	70c1      	strb	r1, [r0, #3]
		//*****************************************************************************

	case PARSED_ID:
		if (newbyte == 0x10 || newbyte == 0x03)
		{
			pack->message[pack->lenm++] = newbyte;
    298a:	181a      	adds	r2, r3, r0
    298c:	3301      	adds	r3, #1
    298e:	f880 3207 	strb.w	r3, [r0, #519]	; 0x207
    2992:	f882 1107 	strb.w	r1, [r2, #263]	; 0x107
			pack->func = newbyte;
			pack->status = PARSED_FUNC;
    2996:	2302      	movs	r3, #2
    2998:	e00e      	b.n	29b8 <ModbusInput+0x1cc>
			//pack->quantity_lo = false;
			//pack->crc_lo = false;
		}
		else
		{
			pack->status = PARSED_EMPTY;
    299a:	2300      	movs	r3, #0
    299c:	e00c      	b.n	29b8 <ModbusInput+0x1cc>
		}
		break;
		//*****************************************************************************

	case PARSED_EMPTY:
		if (newbyte == slave_id)
    299e:	4b0a      	ldr	r3, [pc, #40]	; (29c8 <ModbusInput+0x1dc>)
    29a0:	781b      	ldrb	r3, [r3, #0]
    29a2:	428b      	cmp	r3, r1
    29a4:	d109      	bne.n	29ba <ModbusInput+0x1ce>
		{
			pack->message[pack->lenm++] = newbyte;
    29a6:	f890 3207 	ldrb.w	r3, [r0, #519]	; 0x207
    29aa:	181a      	adds	r2, r3, r0
    29ac:	3301      	adds	r3, #1
    29ae:	f880 3207 	strb.w	r3, [r0, #519]	; 0x207
    29b2:	f882 1107 	strb.w	r1, [r2, #263]	; 0x107
			pack->status = PARSED_ID;
    29b6:	2301      	movs	r3, #1
    29b8:	7003      	strb	r3, [r0, #0]
		//pack->len = 0;
		//pack->lenm = 0;
		//pack->status = PARSED_EMPTY;
	}

	if (pack->len > MAX_MODBUSPACK || pack->lenm > MAX_MODBUSMESSAGE)
    29ba:	7843      	ldrb	r3, [r0, #1]
    29bc:	2bf7      	cmp	r3, #247	; 0xf7
    29be:	d901      	bls.n	29c4 <ModbusInput+0x1d8>
	{
		//pack->len = 0;
		//pack->lenm = 0;
		pack->status = PARSED_EMPTY;
    29c0:	2300      	movs	r3, #0
    29c2:	7003      	strb	r3, [r0, #0]
    29c4:	bd10      	pop	{r4, pc}
    29c6:	bf00      	nop
    29c8:	2000011c 	.word	0x2000011c

000029cc <ModbusService_Uart2>:
void ModbusService_Uart2(MODPACK *pack)
{
	byte data, counter = 0;

	// Sprawdzamy czy jest cos w buforze
	if (uart2_glowa != uart2_ogon)
    29cc:	4b31      	ldr	r3, [pc, #196]	; (2a94 <ModbusService_Uart2+0xc8>)
    29ce:	4a32      	ldr	r2, [pc, #200]	; (2a98 <ModbusService_Uart2+0xcc>)
    29d0:	881b      	ldrh	r3, [r3, #0]
    29d2:	8812      	ldrh	r2, [r2, #0]
		}
	}
}

void ModbusService_Uart2(MODPACK *pack)
{
    29d4:	b570      	push	{r4, r5, r6, lr}
	byte data, counter = 0;

	// Sprawdzamy czy jest cos w buforze
	if (uart2_glowa != uart2_ogon)
    29d6:	429a      	cmp	r2, r3
		}
	}
}

void ModbusService_Uart2(MODPACK *pack)
{
    29d8:	4604      	mov	r4, r0
	byte data, counter = 0;

	// Sprawdzamy czy jest cos w buforze
	if (uart2_glowa != uart2_ogon)
    29da:	d05a      	beq.n	2a92 <ModbusService_Uart2+0xc6>
					pack->crc_ok_counter++;

					// Analizujemy dane i tworzymy odpowied
					if (ModbusResponse(pack) == true)
					{
						Uart2_SendBytes(pack->message, pack->lenm);
    29dc:	f500 7682 	add.w	r6, r0, #260	; 0x104
    29e0:	3603      	adds	r6, #3
    29e2:	2500      	movs	r5, #0
    29e4:	e04d      	b.n	2a82 <ModbusService_Uart2+0xb6>
	{

		while (uart2_glowa != uart2_ogon && (counter++ < MODBUS_COUNT_READ))
		{
			// Odczytaujemy bajt do zmiennej
			data = uart2_bufor[uart2_ogon++];
    29e6:	881a      	ldrh	r2, [r3, #0]
    29e8:	492c      	ldr	r1, [pc, #176]	; (2a9c <ModbusService_Uart2+0xd0>)
    29ea:	b292      	uxth	r2, r2
    29ec:	5c89      	ldrb	r1, [r1, r2]
    29ee:	3201      	adds	r2, #1
    29f0:	b292      	uxth	r2, r2
    29f2:	801a      	strh	r2, [r3, #0]

			if (uart2_ogon >= UART_BUFOR_SIZE)
    29f4:	881a      	ldrh	r2, [r3, #0]
				uart2_ogon = 0;

			// Obsluga wejscia danych modbus
			ModbusInput(pack, data);
    29f6:	4620      	mov	r0, r4
		while (uart2_glowa != uart2_ogon && (counter++ < MODBUS_COUNT_READ))
		{
			// Odczytaujemy bajt do zmiennej
			data = uart2_bufor[uart2_ogon++];

			if (uart2_ogon >= UART_BUFOR_SIZE)
    29f8:	f5b2 6f80 	cmp.w	r2, #1024	; 0x400
				uart2_ogon = 0;
    29fc:	bf24      	itt	cs
    29fe:	2200      	movcs	r2, #0
    2a00:	801a      	strhcs	r2, [r3, #0]

			// Obsluga wejscia danych modbus
			ModbusInput(pack, data);
    2a02:	f7ff fef3 	bl	27ec <ModbusInput>

			// Jezeli odebrano wszystko obsluga rozkazu modbus
			if (pack->status == PARSED_FULL)
    2a06:	7823      	ldrb	r3, [r4, #0]
    2a08:	2b0a      	cmp	r3, #10
    2a0a:	d133      	bne.n	2a74 <ModbusService_Uart2+0xa8>
			{
				frames++;
    2a0c:	4b24      	ldr	r3, [pc, #144]	; (2aa0 <ModbusService_Uart2+0xd4>)

				// Sprawdzenie CRC
				ModbusCRC(pack);
    2a0e:	4620      	mov	r0, r4
			ModbusInput(pack, data);

			// Jezeli odebrano wszystko obsluga rozkazu modbus
			if (pack->status == PARSED_FULL)
			{
				frames++;
    2a10:	781a      	ldrb	r2, [r3, #0]
    2a12:	3201      	adds	r2, #1
    2a14:	b2d2      	uxtb	r2, r2
    2a16:	701a      	strb	r2, [r3, #0]

				// Sprawdzenie CRC
				ModbusCRC(pack);
    2a18:	f7ff fdb6 	bl	2588 <ModbusCRC>

				// Jezeli CRC sie zgadza to mozemy przygotowac odpowied
				if (ModbusOK(pack) == true)
    2a1c:	4620      	mov	r0, r4
    2a1e:	f7ff fda2 	bl	2566 <ModbusOK>
    2a22:	2801      	cmp	r0, #1
    2a24:	d117      	bne.n	2a56 <ModbusService_Uart2+0x8a>
				{
					// Zwiekszenie licznika poprawnych odbiorow danych
					pack->crc_ok_counter++;
    2a26:	f894 320a 	ldrb.w	r3, [r4, #522]	; 0x20a
    2a2a:	f894 220b 	ldrb.w	r2, [r4, #523]	; 0x20b

					// Analizujemy dane i tworzymy odpowied
					if (ModbusResponse(pack) == true)
    2a2e:	4620      	mov	r0, r4

				// Jezeli CRC sie zgadza to mozemy przygotowac odpowied
				if (ModbusOK(pack) == true)
				{
					// Zwiekszenie licznika poprawnych odbiorow danych
					pack->crc_ok_counter++;
    2a30:	ea43 2302 	orr.w	r3, r3, r2, lsl #8
    2a34:	3301      	adds	r3, #1
    2a36:	b29b      	uxth	r3, r3
    2a38:	f884 320a 	strb.w	r3, [r4, #522]	; 0x20a
    2a3c:	0a1b      	lsrs	r3, r3, #8
    2a3e:	f884 320b 	strb.w	r3, [r4, #523]	; 0x20b

					// Analizujemy dane i tworzymy odpowied
					if (ModbusResponse(pack) == true)
    2a42:	f7ff fdcf 	bl	25e4 <ModbusResponse>
    2a46:	2801      	cmp	r0, #1
    2a48:	d112      	bne.n	2a70 <ModbusService_Uart2+0xa4>
					{
						Uart2_SendBytes(pack->message, pack->lenm);
    2a4a:	4630      	mov	r0, r6
    2a4c:	f894 1207 	ldrb.w	r1, [r4, #519]	; 0x207
    2a50:	f7fe fadc 	bl	100c <Uart2_SendBytes>
    2a54:	e00c      	b.n	2a70 <ModbusService_Uart2+0xa4>
					}
				}
				else
				{
					// Jezeli suma kontrolna sie NIE zgadza to zwikszamy licznik bledych odbiorow
					pack->crc_err_counter++;
    2a56:	f894 3208 	ldrb.w	r3, [r4, #520]	; 0x208
    2a5a:	f894 2209 	ldrb.w	r2, [r4, #521]	; 0x209
    2a5e:	ea43 2302 	orr.w	r3, r3, r2, lsl #8
    2a62:	3301      	adds	r3, #1
    2a64:	b29b      	uxth	r3, r3
    2a66:	f884 3208 	strb.w	r3, [r4, #520]	; 0x208
    2a6a:	0a1b      	lsrs	r3, r3, #8
    2a6c:	f884 3209 	strb.w	r3, [r4, #521]	; 0x209
				}

				// Inicjacja packietu poprzez usatwienie ststus EMPTY - po kadym odbiorze penego pakietu
				pack->status = PARSED_EMPTY;
    2a70:	2300      	movs	r3, #0
    2a72:	7023      	strb	r3, [r4, #0]
			}

			if (pack->status == PARSED_EMPTY)
    2a74:	7823      	ldrb	r3, [r4, #0]
    2a76:	b913      	cbnz	r3, 2a7e <ModbusService_Uart2+0xb2>
			{
				ModbusInitPack(pack);
    2a78:	4620      	mov	r0, r4
    2a7a:	f7ff fd59 	bl	2530 <ModbusInitPack>

	// Sprawdzamy czy jest cos w buforze
	if (uart2_glowa != uart2_ogon)
	{

		while (uart2_glowa != uart2_ogon && (counter++ < MODBUS_COUNT_READ))
    2a7e:	3501      	adds	r5, #1
    2a80:	b2ed      	uxtb	r5, r5
    2a82:	4b04      	ldr	r3, [pc, #16]	; (2a94 <ModbusService_Uart2+0xc8>)
    2a84:	881a      	ldrh	r2, [r3, #0]
    2a86:	4b04      	ldr	r3, [pc, #16]	; (2a98 <ModbusService_Uart2+0xcc>)
    2a88:	8819      	ldrh	r1, [r3, #0]
    2a8a:	4291      	cmp	r1, r2
    2a8c:	d001      	beq.n	2a92 <ModbusService_Uart2+0xc6>
    2a8e:	2d20      	cmp	r5, #32
    2a90:	d1a9      	bne.n	29e6 <ModbusService_Uart2+0x1a>
    2a92:	bd70      	pop	{r4, r5, r6, pc}
    2a94:	20000abc 	.word	0x20000abc
    2a98:	20000ec2 	.word	0x20000ec2
    2a9c:	20000ac0 	.word	0x20000ac0
    2aa0:	20000124 	.word	0x20000124

00002aa4 <ModbusService_Uart1>:
void ModbusService_Uart1(MODPACK *pack)
{
	byte data, counter = 0;

	// Sprawdzamy czy jest cos w buforze
	if (uart1_glowa != uart1_ogon)
    2aa4:	4b31      	ldr	r3, [pc, #196]	; (2b6c <ModbusService_Uart1+0xc8>)
    2aa6:	4a32      	ldr	r2, [pc, #200]	; (2b70 <ModbusService_Uart1+0xcc>)
    2aa8:	881b      	ldrh	r3, [r3, #0]
    2aaa:	8812      	ldrh	r2, [r2, #0]
		}
	}
}

void ModbusService_Uart1(MODPACK *pack)
{
    2aac:	b570      	push	{r4, r5, r6, lr}
	byte data, counter = 0;

	// Sprawdzamy czy jest cos w buforze
	if (uart1_glowa != uart1_ogon)
    2aae:	429a      	cmp	r2, r3
		}
	}
}

void ModbusService_Uart1(MODPACK *pack)
{
    2ab0:	4604      	mov	r4, r0
	byte data, counter = 0;

	// Sprawdzamy czy jest cos w buforze
	if (uart1_glowa != uart1_ogon)
    2ab2:	d05a      	beq.n	2b6a <ModbusService_Uart1+0xc6>
					pack->crc_ok_counter++;

					// Analizujemy dane i tworzymy odpowied
					if (ModbusResponse(pack) == true)
					{
						Uart1_SendBytes(pack->message, pack->lenm);
    2ab4:	f500 7682 	add.w	r6, r0, #260	; 0x104
    2ab8:	3603      	adds	r6, #3
    2aba:	2500      	movs	r5, #0
    2abc:	e04d      	b.n	2b5a <ModbusService_Uart1+0xb6>
	{
		while (uart1_glowa != uart1_ogon && (counter++ < MODBUS_COUNT_READ))
		{

			// Odczytaujemy bajt do zmiennej
			data = uart1_bufor[uart1_ogon++];
    2abe:	881a      	ldrh	r2, [r3, #0]
    2ac0:	492c      	ldr	r1, [pc, #176]	; (2b74 <ModbusService_Uart1+0xd0>)
    2ac2:	b292      	uxth	r2, r2
    2ac4:	5c89      	ldrb	r1, [r1, r2]
    2ac6:	3201      	adds	r2, #1
    2ac8:	b292      	uxth	r2, r2
    2aca:	801a      	strh	r2, [r3, #0]

			if (uart1_ogon >= UART_BUFOR_SIZE)
    2acc:	881a      	ldrh	r2, [r3, #0]
				uart1_ogon = 0;

			// Obsluga wejscia danych modbus
			ModbusInput(pack, data);
    2ace:	4620      	mov	r0, r4
		{

			// Odczytaujemy bajt do zmiennej
			data = uart1_bufor[uart1_ogon++];

			if (uart1_ogon >= UART_BUFOR_SIZE)
    2ad0:	f5b2 6f80 	cmp.w	r2, #1024	; 0x400
				uart1_ogon = 0;
    2ad4:	bf24      	itt	cs
    2ad6:	2200      	movcs	r2, #0
    2ad8:	801a      	strhcs	r2, [r3, #0]

			// Obsluga wejscia danych modbus
			ModbusInput(pack, data);
    2ada:	f7ff fe87 	bl	27ec <ModbusInput>

			// Jezeli odebrano wszystko obsluga rozkazu modbus
			if (pack->status == PARSED_FULL)
    2ade:	7823      	ldrb	r3, [r4, #0]
    2ae0:	2b0a      	cmp	r3, #10
    2ae2:	d133      	bne.n	2b4c <ModbusService_Uart1+0xa8>
			{
				frames++;
    2ae4:	4b24      	ldr	r3, [pc, #144]	; (2b78 <ModbusService_Uart1+0xd4>)

				// Sprawdzenie CRC
				ModbusCRC(pack);
    2ae6:	4620      	mov	r0, r4
			ModbusInput(pack, data);

			// Jezeli odebrano wszystko obsluga rozkazu modbus
			if (pack->status == PARSED_FULL)
			{
				frames++;
    2ae8:	781a      	ldrb	r2, [r3, #0]
    2aea:	3201      	adds	r2, #1
    2aec:	b2d2      	uxtb	r2, r2
    2aee:	701a      	strb	r2, [r3, #0]

				// Sprawdzenie CRC
				ModbusCRC(pack);
    2af0:	f7ff fd4a 	bl	2588 <ModbusCRC>

				// Jezeli CRC sie zgadza to mozemy przygotowac odpowied
				if (ModbusOK(pack) == true)
    2af4:	4620      	mov	r0, r4
    2af6:	f7ff fd36 	bl	2566 <ModbusOK>
    2afa:	2801      	cmp	r0, #1
    2afc:	d117      	bne.n	2b2e <ModbusService_Uart1+0x8a>
				{
					// Zwiekszenie licznika poprawnych odbiorow danych
					pack->crc_ok_counter++;
    2afe:	f894 320a 	ldrb.w	r3, [r4, #522]	; 0x20a
    2b02:	f894 220b 	ldrb.w	r2, [r4, #523]	; 0x20b

					// Analizujemy dane i tworzymy odpowied
					if (ModbusResponse(pack) == true)
    2b06:	4620      	mov	r0, r4

				// Jezeli CRC sie zgadza to mozemy przygotowac odpowied
				if (ModbusOK(pack) == true)
				{
					// Zwiekszenie licznika poprawnych odbiorow danych
					pack->crc_ok_counter++;
    2b08:	ea43 2302 	orr.w	r3, r3, r2, lsl #8
    2b0c:	3301      	adds	r3, #1
    2b0e:	b29b      	uxth	r3, r3
    2b10:	f884 320a 	strb.w	r3, [r4, #522]	; 0x20a
    2b14:	0a1b      	lsrs	r3, r3, #8
    2b16:	f884 320b 	strb.w	r3, [r4, #523]	; 0x20b

					// Analizujemy dane i tworzymy odpowied
					if (ModbusResponse(pack) == true)
    2b1a:	f7ff fd63 	bl	25e4 <ModbusResponse>
    2b1e:	2801      	cmp	r0, #1
    2b20:	d112      	bne.n	2b48 <ModbusService_Uart1+0xa4>
					{
						Uart1_SendBytes(pack->message, pack->lenm);
    2b22:	4630      	mov	r0, r6
    2b24:	f894 1207 	ldrb.w	r1, [r4, #519]	; 0x207
    2b28:	f7fe facc 	bl	10c4 <Uart1_SendBytes>
    2b2c:	e00c      	b.n	2b48 <ModbusService_Uart1+0xa4>
					}
				}
				else
				{
					// Jezeli suma kontrolna sie NIE zgadza to zwikszamy licznik bledych odbiorow
					pack->crc_err_counter++;
    2b2e:	f894 3208 	ldrb.w	r3, [r4, #520]	; 0x208
    2b32:	f894 2209 	ldrb.w	r2, [r4, #521]	; 0x209
    2b36:	ea43 2302 	orr.w	r3, r3, r2, lsl #8
    2b3a:	3301      	adds	r3, #1
    2b3c:	b29b      	uxth	r3, r3
    2b3e:	f884 3208 	strb.w	r3, [r4, #520]	; 0x208
    2b42:	0a1b      	lsrs	r3, r3, #8
    2b44:	f884 3209 	strb.w	r3, [r4, #521]	; 0x209
				}

				// Inicjacja packietu poprzez usatwienie ststus EMPTY - po kadym odbiorze penego pakietu
				pack->status = PARSED_EMPTY;
    2b48:	2300      	movs	r3, #0
    2b4a:	7023      	strb	r3, [r4, #0]
			}

			if (pack->status == PARSED_EMPTY)
    2b4c:	7823      	ldrb	r3, [r4, #0]
    2b4e:	b913      	cbnz	r3, 2b56 <ModbusService_Uart1+0xb2>
			{
				ModbusInitPack(pack);
    2b50:	4620      	mov	r0, r4
    2b52:	f7ff fced 	bl	2530 <ModbusInitPack>
	byte data, counter = 0;

	// Sprawdzamy czy jest cos w buforze
	if (uart1_glowa != uart1_ogon)
	{
		while (uart1_glowa != uart1_ogon && (counter++ < MODBUS_COUNT_READ))
    2b56:	3501      	adds	r5, #1
    2b58:	b2ed      	uxtb	r5, r5
    2b5a:	4b04      	ldr	r3, [pc, #16]	; (2b6c <ModbusService_Uart1+0xc8>)
    2b5c:	881a      	ldrh	r2, [r3, #0]
    2b5e:	4b04      	ldr	r3, [pc, #16]	; (2b70 <ModbusService_Uart1+0xcc>)
    2b60:	8819      	ldrh	r1, [r3, #0]
    2b62:	4291      	cmp	r1, r2
    2b64:	d001      	beq.n	2b6a <ModbusService_Uart1+0xc6>
    2b66:	2d20      	cmp	r5, #32
    2b68:	d1a9      	bne.n	2abe <ModbusService_Uart1+0x1a>
    2b6a:	bd70      	pop	{r4, r5, r6, pc}
    2b6c:	20000ab6 	.word	0x20000ab6
    2b70:	200002ac 	.word	0x200002ac
    2b74:	200006b4 	.word	0x200006b4
    2b78:	20000124 	.word	0x20000124

00002b7c <ModbusService_Uart0>:
void ModbusService_Uart0(MODPACK *pack)
{
	byte data, counter = 0;

	// Sprawdzamy czy jest cos w buforze
	if (uart0_glowa != uart0_ogon)
    2b7c:	4b31      	ldr	r3, [pc, #196]	; (2c44 <ModbusService_Uart0+0xc8>)
    2b7e:	4a32      	ldr	r2, [pc, #200]	; (2c48 <ModbusService_Uart0+0xcc>)
    2b80:	881b      	ldrh	r3, [r3, #0]
    2b82:	8812      	ldrh	r2, [r2, #0]
		pack->status = PARSED_EMPTY;
	}
}

void ModbusService_Uart0(MODPACK *pack)
{
    2b84:	b570      	push	{r4, r5, r6, lr}
	byte data, counter = 0;

	// Sprawdzamy czy jest cos w buforze
	if (uart0_glowa != uart0_ogon)
    2b86:	429a      	cmp	r2, r3
		pack->status = PARSED_EMPTY;
	}
}

void ModbusService_Uart0(MODPACK *pack)
{
    2b88:	4604      	mov	r4, r0
	byte data, counter = 0;

	// Sprawdzamy czy jest cos w buforze
	if (uart0_glowa != uart0_ogon)
    2b8a:	d05a      	beq.n	2c42 <ModbusService_Uart0+0xc6>
					pack->crc_ok_counter++;

					// Analizujemy dane i tworzymy odpowied
					if (ModbusResponse(pack) == true)
					{
						Uart0_SendBytes(pack->message, pack->lenm);
    2b8c:	f500 7682 	add.w	r6, r0, #260	; 0x104
    2b90:	3603      	adds	r6, #3
    2b92:	2500      	movs	r5, #0
    2b94:	e04d      	b.n	2c32 <ModbusService_Uart0+0xb6>
		while (uart0_glowa != uart0_ogon && (counter++ < MODBUS_COUNT_READ))
		{
			//LedSwitch();

			// Odczytaujemy bajt do zmiennej
			data = uart0_bufor[uart0_ogon++];
    2b96:	881a      	ldrh	r2, [r3, #0]
    2b98:	492c      	ldr	r1, [pc, #176]	; (2c4c <ModbusService_Uart0+0xd0>)
    2b9a:	b292      	uxth	r2, r2
    2b9c:	5c89      	ldrb	r1, [r1, r2]
    2b9e:	3201      	adds	r2, #1
    2ba0:	b292      	uxth	r2, r2
    2ba2:	801a      	strh	r2, [r3, #0]

			if (uart0_ogon >= UART_BUFOR_SIZE)
    2ba4:	881a      	ldrh	r2, [r3, #0]
				uart0_ogon = 0;

			// Obsluga wejscia danych modbus
			ModbusInput(pack, data);
    2ba6:	4620      	mov	r0, r4
			//LedSwitch();

			// Odczytaujemy bajt do zmiennej
			data = uart0_bufor[uart0_ogon++];

			if (uart0_ogon >= UART_BUFOR_SIZE)
    2ba8:	f5b2 6f80 	cmp.w	r2, #1024	; 0x400
				uart0_ogon = 0;
    2bac:	bf24      	itt	cs
    2bae:	2200      	movcs	r2, #0
    2bb0:	801a      	strhcs	r2, [r3, #0]

			// Obsluga wejscia danych modbus
			ModbusInput(pack, data);
    2bb2:	f7ff fe1b 	bl	27ec <ModbusInput>

			//ModbusPrintPack(pack);
			//Uart1_SendChar('x');

			// Jezeli odebrano wszystko obsluga rozkazu modbus
			if (pack->status == PARSED_FULL)
    2bb6:	7823      	ldrb	r3, [r4, #0]
    2bb8:	2b0a      	cmp	r3, #10
    2bba:	d133      	bne.n	2c24 <ModbusService_Uart0+0xa8>
			{
				frames++;
    2bbc:	4b24      	ldr	r3, [pc, #144]	; (2c50 <ModbusService_Uart0+0xd4>)

				// Sprawdzenie CRC
				ModbusCRC(pack);
    2bbe:	4620      	mov	r0, r4
			//Uart1_SendChar('x');

			// Jezeli odebrano wszystko obsluga rozkazu modbus
			if (pack->status == PARSED_FULL)
			{
				frames++;
    2bc0:	781a      	ldrb	r2, [r3, #0]
    2bc2:	3201      	adds	r2, #1
    2bc4:	b2d2      	uxtb	r2, r2
    2bc6:	701a      	strb	r2, [r3, #0]

				// Sprawdzenie CRC
				ModbusCRC(pack);
    2bc8:	f7ff fcde 	bl	2588 <ModbusCRC>
				 ModbusPrintPack(pack);
				 }
				 */

				// Jezeli CRC sie zgadza to mozemy przygotowac odpowied
				if (ModbusOK(pack) == true)
    2bcc:	4620      	mov	r0, r4
    2bce:	f7ff fcca 	bl	2566 <ModbusOK>
    2bd2:	2801      	cmp	r0, #1
    2bd4:	d117      	bne.n	2c06 <ModbusService_Uart0+0x8a>
					 Print("CRC OK rozkaz 0x10 \n");
					 }
					 */

					// Zwiekszenie licznika poprawnych odbiorow danych
					pack->crc_ok_counter++;
    2bd6:	f894 320a 	ldrb.w	r3, [r4, #522]	; 0x20a
    2bda:	f894 220b 	ldrb.w	r2, [r4, #523]	; 0x20b

					// Analizujemy dane i tworzymy odpowied
					if (ModbusResponse(pack) == true)
    2bde:	4620      	mov	r0, r4
					 Print("CRC OK rozkaz 0x10 \n");
					 }
					 */

					// Zwiekszenie licznika poprawnych odbiorow danych
					pack->crc_ok_counter++;
    2be0:	ea43 2302 	orr.w	r3, r3, r2, lsl #8
    2be4:	3301      	adds	r3, #1
    2be6:	b29b      	uxth	r3, r3
    2be8:	f884 320a 	strb.w	r3, [r4, #522]	; 0x20a
    2bec:	0a1b      	lsrs	r3, r3, #8
    2bee:	f884 320b 	strb.w	r3, [r4, #523]	; 0x20b

					// Analizujemy dane i tworzymy odpowied
					if (ModbusResponse(pack) == true)
    2bf2:	f7ff fcf7 	bl	25e4 <ModbusResponse>
    2bf6:	2801      	cmp	r0, #1
    2bf8:	d112      	bne.n	2c20 <ModbusService_Uart0+0xa4>
					{
						Uart0_SendBytes(pack->message, pack->lenm);
    2bfa:	4630      	mov	r0, r6
    2bfc:	f894 1207 	ldrb.w	r1, [r4, #519]	; 0x207
    2c00:	f7fe fa14 	bl	102c <Uart0_SendBytes>
    2c04:	e00c      	b.n	2c20 <ModbusService_Uart0+0xa4>
					}
				}
				else
				{
					// Jezeli suma kontrolna sie NIE zgadza to zwikszamy licznik bledych odbiorow
					pack->crc_err_counter++;
    2c06:	f894 3208 	ldrb.w	r3, [r4, #520]	; 0x208
    2c0a:	f894 2209 	ldrb.w	r2, [r4, #521]	; 0x209
    2c0e:	ea43 2302 	orr.w	r3, r3, r2, lsl #8
    2c12:	3301      	adds	r3, #1
    2c14:	b29b      	uxth	r3, r3
    2c16:	f884 3208 	strb.w	r3, [r4, #520]	; 0x208
    2c1a:	0a1b      	lsrs	r3, r3, #8
    2c1c:	f884 3209 	strb.w	r3, [r4, #521]	; 0x209
				}

				// Inicjacja packietu poprzez usatwienie ststus EMPTY - po kadym odbiorze penego pakietu
				pack->status = PARSED_EMPTY;
    2c20:	2300      	movs	r3, #0
    2c22:	7023      	strb	r3, [r4, #0]
			}

			if (pack->status == PARSED_EMPTY)
    2c24:	7823      	ldrb	r3, [r4, #0]
    2c26:	b913      	cbnz	r3, 2c2e <ModbusService_Uart0+0xb2>
			{
				ModbusInitPack(pack);
    2c28:	4620      	mov	r0, r4
    2c2a:	f7ff fc81 	bl	2530 <ModbusInitPack>

	// Sprawdzamy czy jest cos w buforze
	if (uart0_glowa != uart0_ogon)
	{

		while (uart0_glowa != uart0_ogon && (counter++ < MODBUS_COUNT_READ))
    2c2e:	3501      	adds	r5, #1
    2c30:	b2ed      	uxtb	r5, r5
    2c32:	4b04      	ldr	r3, [pc, #16]	; (2c44 <ModbusService_Uart0+0xc8>)
    2c34:	881a      	ldrh	r2, [r3, #0]
    2c36:	4b04      	ldr	r3, [pc, #16]	; (2c48 <ModbusService_Uart0+0xcc>)
    2c38:	8819      	ldrh	r1, [r3, #0]
    2c3a:	4291      	cmp	r1, r2
    2c3c:	d001      	beq.n	2c42 <ModbusService_Uart0+0xc6>
    2c3e:	2d20      	cmp	r5, #32
    2c40:	d1a9      	bne.n	2b96 <ModbusService_Uart0+0x1a>
    2c42:	bd70      	pop	{r4, r5, r6, pc}
    2c44:	20000ec0 	.word	0x20000ec0
    2c48:	20000ab8 	.word	0x20000ab8
    2c4c:	200002b0 	.word	0x200002b0
    2c50:	20000124 	.word	0x20000124

00002c54 <ModbusPrintPack>:
	pack->start_address = 0;
	pack->status = PARSED_EMPTY;
}

void ModbusPrintPack(MODPACK *pack)
{
    2c54:	b510      	push	{r4, lr}
    2c56:	4604      	mov	r4, r0
	Print("pack->address_lo      = %d \n", pack->address_lo);
    2c58:	f894 1104 	ldrb.w	r1, [r4, #260]	; 0x104
    2c5c:	482c      	ldr	r0, [pc, #176]	; (2d10 <ModbusPrintPack+0xbc>)
    2c5e:	f7fd fce7 	bl	630 <Print>
	Print("pack->byte_count      = %d \n", pack->byte_count);
    2c62:	7a21      	ldrb	r1, [r4, #8]
    2c64:	482b      	ldr	r0, [pc, #172]	; (2d14 <ModbusPrintPack+0xc0>)
    2c66:	f7fd fce3 	bl	630 <Print>
	Print("pack->crc_computed    = %d \n", pack->crc_computed);
    2c6a:	f894 3102 	ldrb.w	r3, [r4, #258]	; 0x102
    2c6e:	f894 1103 	ldrb.w	r1, [r4, #259]	; 0x103
    2c72:	4829      	ldr	r0, [pc, #164]	; (2d18 <ModbusPrintPack+0xc4>)
    2c74:	ea43 2101 	orr.w	r1, r3, r1, lsl #8
    2c78:	f7fd fcda 	bl	630 <Print>
	Print("pack->crc_err_counter = %d \n", pack->crc_err_counter);
    2c7c:	f894 3208 	ldrb.w	r3, [r4, #520]	; 0x208
    2c80:	f894 1209 	ldrb.w	r1, [r4, #521]	; 0x209
    2c84:	4825      	ldr	r0, [pc, #148]	; (2d1c <ModbusPrintPack+0xc8>)
    2c86:	ea43 2101 	orr.w	r1, r3, r1, lsl #8
    2c8a:	f7fd fcd1 	bl	630 <Print>
	Print("pack->crc_lo          = %d \n", pack->crc_lo);
    2c8e:	f894 1106 	ldrb.w	r1, [r4, #262]	; 0x106
    2c92:	4823      	ldr	r0, [pc, #140]	; (2d20 <ModbusPrintPack+0xcc>)
    2c94:	f7fd fccc 	bl	630 <Print>
	Print("pack->crc_ok_counter  = %d \n", pack->crc_ok_counter);
    2c98:	f894 320a 	ldrb.w	r3, [r4, #522]	; 0x20a
    2c9c:	f894 120b 	ldrb.w	r1, [r4, #523]	; 0x20b
    2ca0:	4820      	ldr	r0, [pc, #128]	; (2d24 <ModbusPrintPack+0xd0>)
    2ca2:	ea43 2101 	orr.w	r1, r3, r1, lsl #8
    2ca6:	f7fd fcc3 	bl	630 <Print>
	Print("pack->crc_received    = %d \n", pack->crc_received);
    2caa:	f894 3100 	ldrb.w	r3, [r4, #256]	; 0x100
    2cae:	f894 1101 	ldrb.w	r1, [r4, #257]	; 0x101
    2cb2:	481d      	ldr	r0, [pc, #116]	; (2d28 <ModbusPrintPack+0xd4>)
    2cb4:	ea43 2101 	orr.w	r1, r3, r1, lsl #8
    2cb8:	f7fd fcba 	bl	630 <Print>
	Print("pack->func            = %d \n", pack->func);
    2cbc:	78e1      	ldrb	r1, [r4, #3]
    2cbe:	481b      	ldr	r0, [pc, #108]	; (2d2c <ModbusPrintPack+0xd8>)
    2cc0:	f7fd fcb6 	bl	630 <Print>
	Print("pack->id              = %d \n", pack->id);
    2cc4:	78a1      	ldrb	r1, [r4, #2]
    2cc6:	481a      	ldr	r0, [pc, #104]	; (2d30 <ModbusPrintPack+0xdc>)
    2cc8:	f7fd fcb2 	bl	630 <Print>
	Print("pack->len             = %d \n", pack->len);
    2ccc:	7861      	ldrb	r1, [r4, #1]
    2cce:	4819      	ldr	r0, [pc, #100]	; (2d34 <ModbusPrintPack+0xe0>)
    2cd0:	f7fd fcae 	bl	630 <Print>
	Print("pack->lenm            = %d \n", pack->lenm);
    2cd4:	f894 1207 	ldrb.w	r1, [r4, #519]	; 0x207
    2cd8:	4817      	ldr	r0, [pc, #92]	; (2d38 <ModbusPrintPack+0xe4>)
    2cda:	f7fd fca9 	bl	630 <Print>
	Print("pack->quantity        = %d \n", pack->quantity);
    2cde:	79a3      	ldrb	r3, [r4, #6]
    2ce0:	79e1      	ldrb	r1, [r4, #7]
    2ce2:	4816      	ldr	r0, [pc, #88]	; (2d3c <ModbusPrintPack+0xe8>)
    2ce4:	ea43 2101 	orr.w	r1, r3, r1, lsl #8
    2ce8:	f7fd fca2 	bl	630 <Print>
	Print("pack->quantity_lo     = %d \n", pack->quantity_lo);
    2cec:	f894 1105 	ldrb.w	r1, [r4, #261]	; 0x105
    2cf0:	4813      	ldr	r0, [pc, #76]	; (2d40 <ModbusPrintPack+0xec>)
    2cf2:	f7fd fc9d 	bl	630 <Print>
	Print("pack->start_address   = %d \n", pack->start_address);
    2cf6:	7923      	ldrb	r3, [r4, #4]
    2cf8:	7961      	ldrb	r1, [r4, #5]
    2cfa:	4812      	ldr	r0, [pc, #72]	; (2d44 <ModbusPrintPack+0xf0>)
    2cfc:	ea43 2101 	orr.w	r1, r3, r1, lsl #8
    2d00:	f7fd fc96 	bl	630 <Print>
	Print("pack->status          = %d \n", pack->status);
    2d04:	4810      	ldr	r0, [pc, #64]	; (2d48 <ModbusPrintPack+0xf4>)
    2d06:	7821      	ldrb	r1, [r4, #0]
}
    2d08:	e8bd 4010 	ldmia.w	sp!, {r4, lr}
	Print("pack->len             = %d \n", pack->len);
	Print("pack->lenm            = %d \n", pack->lenm);
	Print("pack->quantity        = %d \n", pack->quantity);
	Print("pack->quantity_lo     = %d \n", pack->quantity_lo);
	Print("pack->start_address   = %d \n", pack->start_address);
	Print("pack->status          = %d \n", pack->status);
    2d0c:	f7fd bc90 	b.w	630 <Print>
    2d10:	00009394 	.word	0x00009394
    2d14:	000093b1 	.word	0x000093b1
    2d18:	000093ce 	.word	0x000093ce
    2d1c:	000093eb 	.word	0x000093eb
    2d20:	00009408 	.word	0x00009408
    2d24:	00009425 	.word	0x00009425
    2d28:	00009442 	.word	0x00009442
    2d2c:	0000945f 	.word	0x0000945f
    2d30:	0000947c 	.word	0x0000947c
    2d34:	00009499 	.word	0x00009499
    2d38:	000094b6 	.word	0x000094b6
    2d3c:	000094d3 	.word	0x000094d3
    2d40:	000094f0 	.word	0x000094f0
    2d44:	0000950d 	.word	0x0000950d
    2d48:	0000952a 	.word	0x0000952a
    2d4c:	00000000 	.word	0x00000000

00002d50 <ZaklocenieSet>:
// Zakcenia - ustawienie odpowiedniego bitu w wordzie obrazu
// Parametr - nr zaklocenia
//*****************************************************************************
void ZaklocenieSet(byte nr)
{
	if (nr < 16)
    2d50:	280f      	cmp	r0, #15
    2d52:	d815      	bhi.n	2d80 <ZaklocenieSet+0x30>
		err0 |= 1 << nr;
    2d54:	4b18      	ldr	r3, [pc, #96]	; (2db8 <ZaklocenieSet+0x68>)
    2d56:	f893 203c 	ldrb.w	r2, [r3, #60]	; 0x3c
    2d5a:	f893 103d 	ldrb.w	r1, [r3, #61]	; 0x3d
    2d5e:	f893 c03c 	ldrb.w	ip, [r3, #60]	; 0x3c
    2d62:	ea42 2101 	orr.w	r1, r2, r1, lsl #8
    2d66:	2201      	movs	r2, #1
    2d68:	4082      	lsls	r2, r0
    2d6a:	430a      	orrs	r2, r1
    2d6c:	b292      	uxth	r2, r2
    2d6e:	f002 01ff 	and.w	r1, r2, #255	; 0xff
    2d72:	f883 103c 	strb.w	r1, [r3, #60]	; 0x3c
    2d76:	0a12      	lsrs	r2, r2, #8
    2d78:	f893 103d 	ldrb.w	r1, [r3, #61]	; 0x3d
    2d7c:	f883 203d 	strb.w	r2, [r3, #61]	; 0x3d
	if (nr < 32 && nr >= 16)
    2d80:	3810      	subs	r0, #16
    2d82:	b2c3      	uxtb	r3, r0
    2d84:	2b0f      	cmp	r3, #15
    2d86:	d816      	bhi.n	2db6 <ZaklocenieSet+0x66>
		err1 |= 1 << (nr - 16);
    2d88:	4b0b      	ldr	r3, [pc, #44]	; (2db8 <ZaklocenieSet+0x68>)
    2d8a:	f893 203e 	ldrb.w	r2, [r3, #62]	; 0x3e
    2d8e:	f893 103f 	ldrb.w	r1, [r3, #63]	; 0x3f
    2d92:	ea42 2201 	orr.w	r2, r2, r1, lsl #8
    2d96:	2101      	movs	r1, #1
    2d98:	fa11 f000 	lsls.w	r0, r1, r0
    2d9c:	4310      	orrs	r0, r2
    2d9e:	b280      	uxth	r0, r0
    2da0:	f000 02ff 	and.w	r2, r0, #255	; 0xff
    2da4:	f893 103e 	ldrb.w	r1, [r3, #62]	; 0x3e
    2da8:	0a00      	lsrs	r0, r0, #8
    2daa:	f883 203e 	strb.w	r2, [r3, #62]	; 0x3e
    2dae:	f893 203f 	ldrb.w	r2, [r3, #63]	; 0x3f
    2db2:	f883 003f 	strb.w	r0, [r3, #63]	; 0x3f
    2db6:	4770      	bx	lr
    2db8:	20000ee4 	.word	0x20000ee4

00002dbc <ZaklocenieReset>:
}

void ZaklocenieReset(byte nr)
{
	if (nr < 16)
    2dbc:	280f      	cmp	r0, #15
    2dbe:	d815      	bhi.n	2dec <ZaklocenieReset+0x30>
		err0 &= ~(1 << nr);
    2dc0:	4b18      	ldr	r3, [pc, #96]	; (2e24 <ZaklocenieReset+0x68>)
    2dc2:	f893 203c 	ldrb.w	r2, [r3, #60]	; 0x3c
    2dc6:	f893 103d 	ldrb.w	r1, [r3, #61]	; 0x3d
    2dca:	f893 c03c 	ldrb.w	ip, [r3, #60]	; 0x3c
    2dce:	ea42 2101 	orr.w	r1, r2, r1, lsl #8
    2dd2:	2201      	movs	r2, #1
    2dd4:	4082      	lsls	r2, r0
    2dd6:	ea21 0202 	bic.w	r2, r1, r2
    2dda:	f002 01ff 	and.w	r1, r2, #255	; 0xff
    2dde:	f883 103c 	strb.w	r1, [r3, #60]	; 0x3c
    2de2:	0a12      	lsrs	r2, r2, #8
    2de4:	f893 103d 	ldrb.w	r1, [r3, #61]	; 0x3d
    2de8:	f883 203d 	strb.w	r2, [r3, #61]	; 0x3d
	if (nr < 32 && nr >= 16)
    2dec:	f1a0 0210 	sub.w	r2, r0, #16
    2df0:	b2d3      	uxtb	r3, r2
    2df2:	2b0f      	cmp	r3, #15
    2df4:	d815      	bhi.n	2e22 <ZaklocenieReset+0x66>
		err1 &= ~(1 << (nr - 16));
    2df6:	4b0b      	ldr	r3, [pc, #44]	; (2e24 <ZaklocenieReset+0x68>)
    2df8:	f893 103e 	ldrb.w	r1, [r3, #62]	; 0x3e
    2dfc:	f893 003f 	ldrb.w	r0, [r3, #63]	; 0x3f
    2e00:	ea41 2100 	orr.w	r1, r1, r0, lsl #8
    2e04:	2001      	movs	r0, #1
    2e06:	4090      	lsls	r0, r2
    2e08:	ea21 0000 	bic.w	r0, r1, r0
    2e0c:	f000 02ff 	and.w	r2, r0, #255	; 0xff
    2e10:	f893 103e 	ldrb.w	r1, [r3, #62]	; 0x3e
    2e14:	0a00      	lsrs	r0, r0, #8
    2e16:	f883 203e 	strb.w	r2, [r3, #62]	; 0x3e
    2e1a:	f893 203f 	ldrb.w	r2, [r3, #63]	; 0x3f
    2e1e:	f883 003f 	strb.w	r0, [r3, #63]	; 0x3f
    2e22:	4770      	bx	lr
    2e24:	20000ee4 	.word	0x20000ee4

00002e28 <ObliczParametry>:
//*****************************************************************************
// Obliczenie parametrw zgzewania przed rozpoczciem
// Np. kt zaponu, prd ze stepperem
//*****************************************************************************
void ObliczParametry(void)
{
    2e28:	e92d 4ff7 	stmdb	sp!, {r0, r1, r2, r4, r5, r6, r7, r8, r9, sl, fp, lr}
	byte i;

	czas_docisku_wstepnego = prog.CzasDociskuWstepnego * 2;
    2e2c:	4b9f      	ldr	r3, [pc, #636]	; (30ac <ObliczParametry+0x284>)
    2e2e:	4aa0      	ldr	r2, [pc, #640]	; (30b0 <ObliczParametry+0x288>)
    2e30:	7819      	ldrb	r1, [r3, #0]
    2e32:	0049      	lsls	r1, r1, #1
    2e34:	b2c9      	uxtb	r1, r1
    2e36:	7011      	strb	r1, [r2, #0]
	czas_docisku_koncowego = prog.CzasDociskuKoncowego * 2;
    2e38:	7b19      	ldrb	r1, [r3, #12]
    2e3a:	4a9e      	ldr	r2, [pc, #632]	; (30b4 <ObliczParametry+0x28c>)
    2e3c:	0049      	lsls	r1, r1, #1
    2e3e:	b2c9      	uxtb	r1, r1
    2e40:	7011      	strb	r1, [r2, #0]
	czas_podgrzewania = prog.CzasPodgrzewaniaWstepnego * 2;
    2e42:	78d9      	ldrb	r1, [r3, #3]
    2e44:	4a9c      	ldr	r2, [pc, #624]	; (30b8 <ObliczParametry+0x290>)
    2e46:	0049      	lsls	r1, r1, #1
    2e48:	b2c9      	uxtb	r1, r1
    2e4a:	7011      	strb	r1, [r2, #0]
	czas_pauzy_przed_zgrzewaniem = prog.PauzaPodgrzewaniaWstepnego * 2;
    2e4c:	7919      	ldrb	r1, [r3, #4]
    2e4e:	4a9b      	ldr	r2, [pc, #620]	; (30bc <ObliczParametry+0x294>)
    2e50:	0049      	lsls	r1, r1, #1
    2e52:	b2c9      	uxtb	r1, r1
    2e54:	7011      	strb	r1, [r2, #0]
	czas_zgrzewania = prog.CzasZgrzewania * 2;
    2e56:	79d9      	ldrb	r1, [r3, #7]
    2e58:	4a99      	ldr	r2, [pc, #612]	; (30c0 <ObliczParametry+0x298>)
    2e5a:	0049      	lsls	r1, r1, #1
    2e5c:	b2c9      	uxtb	r1, r1
    2e5e:	7011      	strb	r1, [r2, #0]
	czas_pauzy_po_zgrzewaniu = prog.PauzaPodgrzewaniaKoncowego * 2;
    2e60:	7a19      	ldrb	r1, [r3, #8]
    2e62:	4a98      	ldr	r2, [pc, #608]	; (30c4 <ObliczParametry+0x29c>)
    2e64:	0049      	lsls	r1, r1, #1
    2e66:	b2c9      	uxtb	r1, r1
    2e68:	7011      	strb	r1, [r2, #0]
	czas_dogrzewania = prog.CzasPodgrzewaniaKoncowego * 2;
    2e6a:	7ad9      	ldrb	r1, [r3, #11]
    2e6c:	4a96      	ldr	r2, [pc, #600]	; (30c8 <ObliczParametry+0x2a0>)
    2e6e:	0049      	lsls	r1, r1, #1
    2e70:	b2c9      	uxtb	r1, r1
    2e72:	7011      	strb	r1, [r2, #0]

	//
	// Liczba impulsw musi wiksza od zera
	//
	if (prog.ImpulsyIlosc == 0)
    2e74:	7b5a      	ldrb	r2, [r3, #13]
    2e76:	b90a      	cbnz	r2, 2e7c <ObliczParametry+0x54>
		prog.ImpulsyIlosc = 1;
    2e78:	3201      	adds	r2, #1
    2e7a:	735a      	strb	r2, [r3, #13]
	if (prog.ImpulsyPauza == 0)
    2e7c:	4b8b      	ldr	r3, [pc, #556]	; (30ac <ObliczParametry+0x284>)
    2e7e:	7b9a      	ldrb	r2, [r3, #14]
    2e80:	b90a      	cbnz	r2, 2e86 <ObliczParametry+0x5e>
		prog.ImpulsyPauza = 1;
    2e82:	3201      	adds	r2, #1
    2e84:	739a      	strb	r2, [r3, #14]

	liczba_impulsow = prog.ImpulsyIlosc;
    2e86:	4c89      	ldr	r4, [pc, #548]	; (30ac <ObliczParametry+0x284>)
    2e88:	4b90      	ldr	r3, [pc, #576]	; (30cc <ObliczParametry+0x2a4>)
    2e8a:	7b62      	ldrb	r2, [r4, #13]
	pauza_impulsow = prog.ImpulsyPauza * 2;

	if (prog.StepperProcent == 0)
    2e8c:	7be5      	ldrb	r5, [r4, #15]
	if (prog.ImpulsyIlosc == 0)
		prog.ImpulsyIlosc = 1;
	if (prog.ImpulsyPauza == 0)
		prog.ImpulsyPauza = 1;

	liczba_impulsow = prog.ImpulsyIlosc;
    2e8e:	701a      	strb	r2, [r3, #0]
	pauza_impulsow = prog.ImpulsyPauza * 2;
    2e90:	7ba2      	ldrb	r2, [r4, #14]
    2e92:	4b8f      	ldr	r3, [pc, #572]	; (30d0 <ObliczParametry+0x2a8>)
    2e94:	0052      	lsls	r2, r2, #1
    2e96:	b2d2      	uxtb	r2, r2
    2e98:	701a      	strb	r2, [r3, #0]
    2e9a:	f8df 924c 	ldr.w	r9, [pc, #588]	; 30e8 <ObliczParametry+0x2c0>
    2e9e:	f8df a23c 	ldr.w	sl, [pc, #572]	; 30dc <ObliczParametry+0x2b4>
    2ea2:	f8df 823c 	ldr.w	r8, [pc, #572]	; 30e0 <ObliczParametry+0x2b8>

	if (prog.StepperProcent == 0)
    2ea6:	b97d      	cbnz	r5, 2ec8 <ObliczParametry+0xa0>
	{
		prad_zgrzewania = prog.PradZgrzewania;
    2ea8:	6863      	ldr	r3, [r4, #4]
    2eaa:	f3c3 230f 	ubfx	r3, r3, #8, #16
    2eae:	f8a9 3000 	strh.w	r3, [r9]
		prad_podgrzewania = prog.PradPodgrzewaniaWstepnego;
    2eb2:	6823      	ldr	r3, [r4, #0]
    2eb4:	f3c3 230f 	ubfx	r3, r3, #8, #16
    2eb8:	f8aa 3000 	strh.w	r3, [sl]
		prad_dogrzewania = prog.PradPodgrzewaniaKoncowego;
    2ebc:	68a3      	ldr	r3, [r4, #8]
    2ebe:	f3c3 230f 	ubfx	r3, r3, #8, #16
    2ec2:	f8a8 3000 	strh.w	r3, [r8]
    2ec6:	e07c      	b.n	2fc2 <ObliczParametry+0x19a>
	}
	else
	{
		prad_zgrzewania = (word) ((float) prog.PradZgrzewania
				+ (float) prog.PradZgrzewania * (float) prog.StepperProcent
						/ 100.0f * (float) p_licznik_steppera_akt
    2ec8:	6860      	ldr	r0, [r4, #4]
    2eca:	f3c0 200f 	ubfx	r0, r0, #8, #16
    2ece:	f005 fee9 	bl	8ca4 <__aeabi_ui2f>
    2ed2:	4683      	mov	fp, r0
    2ed4:	4628      	mov	r0, r5
    2ed6:	f005 fee5 	bl	8ca4 <__aeabi_ui2f>
    2eda:	4d7e      	ldr	r5, [pc, #504]	; (30d4 <ObliczParametry+0x2ac>)
    2edc:	4607      	mov	r7, r0
    2ede:	7b2b      	ldrb	r3, [r5, #12]
    2ee0:	7b6a      	ldrb	r2, [r5, #13]
						/ (float) prog.StepperLicznik);
    2ee2:	8a20      	ldrh	r0, [r4, #16]
	}
	else
	{
		prad_zgrzewania = (word) ((float) prog.PradZgrzewania
				+ (float) prog.PradZgrzewania * (float) prog.StepperProcent
						/ 100.0f * (float) p_licznik_steppera_akt
    2ee4:	ea43 2302 	orr.w	r3, r3, r2, lsl #8
						/ (float) prog.StepperLicznik);
    2ee8:	9301      	str	r3, [sp, #4]
    2eea:	f005 fedb 	bl	8ca4 <__aeabi_ui2f>
		prad_podgrzewania = prog.PradPodgrzewaniaWstepnego;
		prad_dogrzewania = prog.PradPodgrzewaniaKoncowego;
	}
	else
	{
		prad_zgrzewania = (word) ((float) prog.PradZgrzewania
    2eee:	4639      	mov	r1, r7
				+ (float) prog.PradZgrzewania * (float) prog.StepperProcent
						/ 100.0f * (float) p_licznik_steppera_akt
						/ (float) prog.StepperLicznik);
    2ef0:	4606      	mov	r6, r0
		prad_podgrzewania = prog.PradPodgrzewaniaWstepnego;
		prad_dogrzewania = prog.PradPodgrzewaniaKoncowego;
	}
	else
	{
		prad_zgrzewania = (word) ((float) prog.PradZgrzewania
    2ef2:	4658      	mov	r0, fp
    2ef4:	f005 ff2e 	bl	8d54 <__aeabi_fmul>
    2ef8:	4977      	ldr	r1, [pc, #476]	; (30d8 <ObliczParametry+0x2b0>)
    2efa:	f005 ffdf 	bl	8ebc <__aeabi_fdiv>
    2efe:	9b01      	ldr	r3, [sp, #4]
    2f00:	4602      	mov	r2, r0
    2f02:	4618      	mov	r0, r3
    2f04:	9201      	str	r2, [sp, #4]
    2f06:	f005 fecd 	bl	8ca4 <__aeabi_ui2f>
    2f0a:	9a01      	ldr	r2, [sp, #4]
    2f0c:	4601      	mov	r1, r0
    2f0e:	4610      	mov	r0, r2
    2f10:	f005 ff20 	bl	8d54 <__aeabi_fmul>
    2f14:	4631      	mov	r1, r6
    2f16:	f005 ffd1 	bl	8ebc <__aeabi_fdiv>
    2f1a:	4601      	mov	r1, r0
    2f1c:	4658      	mov	r0, fp
    2f1e:	f005 fe11 	bl	8b44 <__addsf3>
    2f22:	f006 f903 	bl	912c <__aeabi_f2uiz>
    2f26:	b280      	uxth	r0, r0
    2f28:	f8a9 0000 	strh.w	r0, [r9]
						/ 100.0f * (float) p_licznik_steppera_akt
						/ (float) prog.StepperLicznik);

		prad_podgrzewania = (word) ((float) prog.PradPodgrzewaniaWstepnego
				+ (float) prog.PradPodgrzewaniaWstepnego
						* (float) prog.StepperProcent / 100.0f
    2f2c:	6820      	ldr	r0, [r4, #0]
    2f2e:	f3c0 200f 	ubfx	r0, r0, #8, #16
    2f32:	f005 feb7 	bl	8ca4 <__aeabi_ui2f>
						* (float) p_licznik_steppera_akt
    2f36:	7b2b      	ldrb	r3, [r5, #12]
    2f38:	f895 b00d 	ldrb.w	fp, [r5, #13]
		prad_zgrzewania = (word) ((float) prog.PradZgrzewania
				+ (float) prog.PradZgrzewania * (float) prog.StepperProcent
						/ 100.0f * (float) p_licznik_steppera_akt
						/ (float) prog.StepperLicznik);

		prad_podgrzewania = (word) ((float) prog.PradPodgrzewaniaWstepnego
    2f3c:	4639      	mov	r1, r7
				+ (float) prog.PradPodgrzewaniaWstepnego
						* (float) prog.StepperProcent / 100.0f
						* (float) p_licznik_steppera_akt
    2f3e:	ea43 2b0b 	orr.w	fp, r3, fp, lsl #8
						/ 100.0f * (float) p_licznik_steppera_akt
						/ (float) prog.StepperLicznik);

		prad_podgrzewania = (word) ((float) prog.PradPodgrzewaniaWstepnego
				+ (float) prog.PradPodgrzewaniaWstepnego
						* (float) prog.StepperProcent / 100.0f
    2f42:	4681      	mov	r9, r0
		prad_zgrzewania = (word) ((float) prog.PradZgrzewania
				+ (float) prog.PradZgrzewania * (float) prog.StepperProcent
						/ 100.0f * (float) p_licznik_steppera_akt
						/ (float) prog.StepperLicznik);

		prad_podgrzewania = (word) ((float) prog.PradPodgrzewaniaWstepnego
    2f44:	f005 ff06 	bl	8d54 <__aeabi_fmul>
    2f48:	4963      	ldr	r1, [pc, #396]	; (30d8 <ObliczParametry+0x2b0>)
    2f4a:	f005 ffb7 	bl	8ebc <__aeabi_fdiv>
    2f4e:	4603      	mov	r3, r0
    2f50:	4658      	mov	r0, fp
    2f52:	9301      	str	r3, [sp, #4]
    2f54:	f005 fea6 	bl	8ca4 <__aeabi_ui2f>
    2f58:	9b01      	ldr	r3, [sp, #4]
    2f5a:	4601      	mov	r1, r0
    2f5c:	4618      	mov	r0, r3
    2f5e:	f005 fef9 	bl	8d54 <__aeabi_fmul>
    2f62:	4631      	mov	r1, r6
    2f64:	f005 ffaa 	bl	8ebc <__aeabi_fdiv>
    2f68:	4601      	mov	r1, r0
    2f6a:	4648      	mov	r0, r9
    2f6c:	f005 fdea 	bl	8b44 <__addsf3>
    2f70:	f006 f8dc 	bl	912c <__aeabi_f2uiz>
    2f74:	b280      	uxth	r0, r0
    2f76:	f8aa 0000 	strh.w	r0, [sl]
						* (float) p_licznik_steppera_akt
						/ (float) prog.StepperLicznik);

		prad_dogrzewania = (word) ((float) prog.PradPodgrzewaniaKoncowego
				+ (float) prog.PradPodgrzewaniaKoncowego
						* (float) prog.StepperProcent / 100.0f
    2f7a:	68a0      	ldr	r0, [r4, #8]
    2f7c:	f3c0 200f 	ubfx	r0, r0, #8, #16
    2f80:	f005 fe90 	bl	8ca4 <__aeabi_ui2f>
						* (float) p_licznik_steppera_akt
    2f84:	7b2b      	ldrb	r3, [r5, #12]
    2f86:	7b6d      	ldrb	r5, [r5, #13]
				+ (float) prog.PradPodgrzewaniaWstepnego
						* (float) prog.StepperProcent / 100.0f
						* (float) p_licznik_steppera_akt
						/ (float) prog.StepperLicznik);

		prad_dogrzewania = (word) ((float) prog.PradPodgrzewaniaKoncowego
    2f88:	4639      	mov	r1, r7
				+ (float) prog.PradPodgrzewaniaKoncowego
						* (float) prog.StepperProcent / 100.0f
						* (float) p_licznik_steppera_akt
    2f8a:	ea43 2505 	orr.w	r5, r3, r5, lsl #8
						* (float) p_licznik_steppera_akt
						/ (float) prog.StepperLicznik);

		prad_dogrzewania = (word) ((float) prog.PradPodgrzewaniaKoncowego
				+ (float) prog.PradPodgrzewaniaKoncowego
						* (float) prog.StepperProcent / 100.0f
    2f8e:	4604      	mov	r4, r0
				+ (float) prog.PradPodgrzewaniaWstepnego
						* (float) prog.StepperProcent / 100.0f
						* (float) p_licznik_steppera_akt
						/ (float) prog.StepperLicznik);

		prad_dogrzewania = (word) ((float) prog.PradPodgrzewaniaKoncowego
    2f90:	f005 fee0 	bl	8d54 <__aeabi_fmul>
    2f94:	4950      	ldr	r1, [pc, #320]	; (30d8 <ObliczParametry+0x2b0>)
    2f96:	f005 ff91 	bl	8ebc <__aeabi_fdiv>
    2f9a:	4607      	mov	r7, r0
    2f9c:	4628      	mov	r0, r5
    2f9e:	f005 fe81 	bl	8ca4 <__aeabi_ui2f>
    2fa2:	4601      	mov	r1, r0
    2fa4:	4638      	mov	r0, r7
    2fa6:	f005 fed5 	bl	8d54 <__aeabi_fmul>
    2faa:	4631      	mov	r1, r6
    2fac:	f005 ff86 	bl	8ebc <__aeabi_fdiv>
    2fb0:	4601      	mov	r1, r0
    2fb2:	4620      	mov	r0, r4
    2fb4:	f005 fdc6 	bl	8b44 <__addsf3>
    2fb8:	f006 f8b8 	bl	912c <__aeabi_f2uiz>
    2fbc:	b280      	uxth	r0, r0
    2fbe:	f8a8 0000 	strh.w	r0, [r8]
						* (float) prog.StepperProcent / 100.0f
						* (float) p_licznik_steppera_akt
						/ (float) prog.StepperLicznik);
	}

	if (prad_podgrzewania > 999)
    2fc2:	4c46      	ldr	r4, [pc, #280]	; (30dc <ObliczParametry+0x2b4>)
    2fc4:	8823      	ldrh	r3, [r4, #0]
    2fc6:	f5b3 7f7a 	cmp.w	r3, #1000	; 0x3e8
    2fca:	d305      	bcc.n	2fd8 <ObliczParametry+0x1b0>
	{
		ZaklocenieSet(ERR_PRZEKROCZONA_GRANICA_REGULACJI);
    2fcc:	2013      	movs	r0, #19
    2fce:	f7ff febf 	bl	2d50 <ZaklocenieSet>
		prad_podgrzewania = 999;
    2fd2:	f240 31e7 	movw	r1, #999	; 0x3e7
    2fd6:	8021      	strh	r1, [r4, #0]
	}
	if (prad_podgrzewania > 999)
    2fd8:	4c40      	ldr	r4, [pc, #256]	; (30dc <ObliczParametry+0x2b4>)
    2fda:	8823      	ldrh	r3, [r4, #0]
    2fdc:	f5b3 7f7a 	cmp.w	r3, #1000	; 0x3e8
    2fe0:	d305      	bcc.n	2fee <ObliczParametry+0x1c6>
	{
		ZaklocenieSet(ERR_PRZEKROCZONA_GRANICA_REGULACJI);
    2fe2:	2013      	movs	r0, #19
    2fe4:	f7ff feb4 	bl	2d50 <ZaklocenieSet>
		prad_podgrzewania = 999;
    2fe8:	f240 33e7 	movw	r3, #999	; 0x3e7
    2fec:	8023      	strh	r3, [r4, #0]
	}
	if (prad_dogrzewania > 999)
    2fee:	4c3c      	ldr	r4, [pc, #240]	; (30e0 <ObliczParametry+0x2b8>)
    2ff0:	8823      	ldrh	r3, [r4, #0]
    2ff2:	f5b3 7f7a 	cmp.w	r3, #1000	; 0x3e8
    2ff6:	d305      	bcc.n	3004 <ObliczParametry+0x1dc>
	{
		ZaklocenieSet(ERR_PRZEKROCZONA_GRANICA_REGULACJI);
    2ff8:	2013      	movs	r0, #19
    2ffa:	f7ff fea9 	bl	2d50 <ZaklocenieSet>
		prad_dogrzewania = 999;
    2ffe:	f240 31e7 	movw	r1, #999	; 0x3e7
    3002:	8021      	strh	r1, [r4, #0]
	}

	kat_podgrzewanie = KAT_PRZELICZNIK(prad_podgrzewania);
    3004:	4b35      	ldr	r3, [pc, #212]	; (30dc <ObliczParametry+0x2b4>)
    3006:	f06f 010b 	mvn.w	r1, #11
    300a:	881a      	ldrh	r2, [r3, #0]
    300c:	2364      	movs	r3, #100	; 0x64
    300e:	b292      	uxth	r2, r2
    3010:	434a      	muls	r2, r1
    3012:	f502 4288 	add.w	r2, r2, #17408	; 0x4400
    3016:	325c      	adds	r2, #92	; 0x5c
    3018:	fb92 f2f3 	sdiv	r2, r2, r3
    301c:	4831      	ldr	r0, [pc, #196]	; (30e4 <ObliczParametry+0x2bc>)
    301e:	b292      	uxth	r2, r2
    3020:	8002      	strh	r2, [r0, #0]
	kat_zgrzewanie = KAT_PRZELICZNIK(prad_zgrzewania);
    3022:	4a31      	ldr	r2, [pc, #196]	; (30e8 <ObliczParametry+0x2c0>)
    3024:	4831      	ldr	r0, [pc, #196]	; (30ec <ObliczParametry+0x2c4>)
    3026:	8812      	ldrh	r2, [r2, #0]
    3028:	b292      	uxth	r2, r2
    302a:	434a      	muls	r2, r1
    302c:	f502 4288 	add.w	r2, r2, #17408	; 0x4400
    3030:	325c      	adds	r2, #92	; 0x5c
    3032:	fb92 f2f3 	sdiv	r2, r2, r3
    3036:	b292      	uxth	r2, r2
    3038:	8002      	strh	r2, [r0, #0]
	kat_dogrzewanie = KAT_PRZELICZNIK(prad_dogrzewania);
    303a:	4a29      	ldr	r2, [pc, #164]	; (30e0 <ObliczParametry+0x2b8>)
    303c:	8812      	ldrh	r2, [r2, #0]
    303e:	b292      	uxth	r2, r2
    3040:	434a      	muls	r2, r1
    3042:	f502 4288 	add.w	r2, r2, #17408	; 0x4400
    3046:	325c      	adds	r2, #92	; 0x5c
    3048:	fb92 f3f3 	sdiv	r3, r2, r3
    304c:	4928      	ldr	r1, [pc, #160]	; (30f0 <ObliczParametry+0x2c8>)
    304e:	b29b      	uxth	r3, r3
    3050:	800b      	strh	r3, [r1, #0]

	//
	// Info o obliczonym kcie zaponu
	//
	image.sm[SM_KAT] = kat_zgrzewanie;
    3052:	8801      	ldrh	r1, [r0, #0]
    3054:	4a1f      	ldr	r2, [pc, #124]	; (30d4 <ObliczParametry+0x2ac>)
    3056:	b289      	uxth	r1, r1
    3058:	f001 00ff 	and.w	r0, r1, #255	; 0xff
    305c:	f892 3036 	ldrb.w	r3, [r2, #54]	; 0x36
    3060:	0a09      	lsrs	r1, r1, #8
    3062:	f882 0036 	strb.w	r0, [r2, #54]	; 0x36
    3066:	f892 0037 	ldrb.w	r0, [r2, #55]	; 0x37
    306a:	f882 1037 	strb.w	r1, [r2, #55]	; 0x37

	pomiar_prad = 0;
    306e:	4a21      	ldr	r2, [pc, #132]	; (30f4 <ObliczParametry+0x2cc>)
	kat_dogrzewanie = KAT_PRZELICZNIK(prad_dogrzewania);

	//
	// Info o obliczonym kcie zaponu
	//
	image.sm[SM_KAT] = kat_zgrzewanie;
    3070:	2300      	movs	r3, #0

	pomiar_prad = 0;
    3072:	6013      	str	r3, [r2, #0]
	pomiar_nap = 0;
    3074:	4a20      	ldr	r2, [pc, #128]	; (30f8 <ObliczParametry+0x2d0>)
    3076:	6013      	str	r3, [r2, #0]
	pomiar_energia = 0;
    3078:	4a20      	ldr	r2, [pc, #128]	; (30fc <ObliczParametry+0x2d4>)
    307a:	6013      	str	r3, [r2, #0]
	pomiar_numer_zmierzonego_polokresu = 0;
    307c:	4a20      	ldr	r2, [pc, #128]	; (3100 <ObliczParametry+0x2d8>)
    307e:	7013      	strb	r3, [r2, #0]
	pomiar_polokres_prad = 0;
    3080:	4a20      	ldr	r2, [pc, #128]	; (3104 <ObliczParametry+0x2dc>)
    3082:	6013      	str	r3, [r2, #0]
	pomiar_polokres_nap = 0;
    3084:	4a20      	ldr	r2, [pc, #128]	; (3108 <ObliczParametry+0x2e0>)
    3086:	6013      	str	r3, [r2, #0]
	wykres_index = 0;
    3088:	4a20      	ldr	r2, [pc, #128]	; (310c <ObliczParametry+0x2e4>)
    308a:	7013      	strb	r3, [r2, #0]

	for (i = 0; i < WYKRES_TAB_SIZE; i++)
	{
		wykres_wzor[i] = 0;
    308c:	4a20      	ldr	r2, [pc, #128]	; (3110 <ObliczParametry+0x2e8>)
    308e:	f04f 0100 	mov.w	r1, #0
    3092:	5299      	strh	r1, [r3, r2]
		wykres_prad[i] = 0;
    3094:	4a1f      	ldr	r2, [pc, #124]	; (3114 <ObliczParametry+0x2ec>)
    3096:	5299      	strh	r1, [r3, r2]
		wykres_nap[i] = 0;
    3098:	4a1f      	ldr	r2, [pc, #124]	; (3118 <ObliczParametry+0x2f0>)
    309a:	5299      	strh	r1, [r3, r2]
		wykres_wtopienia[i] = 0;
    309c:	4a1f      	ldr	r2, [pc, #124]	; (311c <ObliczParametry+0x2f4>)
    309e:	5299      	strh	r1, [r3, r2]
    30a0:	3302      	adds	r3, #2
	pomiar_numer_zmierzonego_polokresu = 0;
	pomiar_polokres_prad = 0;
	pomiar_polokres_nap = 0;
	wykres_index = 0;

	for (i = 0; i < WYKRES_TAB_SIZE; i++)
    30a2:	2bc8      	cmp	r3, #200	; 0xc8
    30a4:	d1f2      	bne.n	308c <ObliczParametry+0x264>
		wykres_prad[i] = 0;
		wykres_nap[i] = 0;
		wykres_wtopienia[i] = 0;
	}

}
    30a6:	e8bd 8ffe 	ldmia.w	sp!, {r1, r2, r3, r4, r5, r6, r7, r8, r9, sl, fp, pc}
    30aa:	bf00      	nop
    30ac:	20001b04 	.word	0x20001b04
    30b0:	2000216a 	.word	0x2000216a
    30b4:	200019a0 	.word	0x200019a0
    30b8:	2000252c 	.word	0x2000252c
    30bc:	20002520 	.word	0x20002520
    30c0:	200022e4 	.word	0x200022e4
    30c4:	20002170 	.word	0x20002170
    30c8:	200016a2 	.word	0x200016a2
    30cc:	2000252d 	.word	0x2000252d
    30d0:	20001696 	.word	0x20001696
    30d4:	20000ee4 	.word	0x20000ee4
    30d8:	42c80000 	.word	0x42c80000
    30dc:	2000216c 	.word	0x2000216c
    30e0:	20001f1c 	.word	0x20001f1c
    30e4:	200022dc 	.word	0x200022dc
    30e8:	20001694 	.word	0x20001694
    30ec:	20002168 	.word	0x20002168
    30f0:	20001f00 	.word	0x20001f00
    30f4:	200018d0 	.word	0x200018d0
    30f8:	20001f0c 	.word	0x20001f0c
    30fc:	20001f38 	.word	0x20001f38
    3100:	2000012c 	.word	0x2000012c
    3104:	20002528 	.word	0x20002528
    3108:	20001f30 	.word	0x20001f30
    310c:	20001f2e 	.word	0x20001f2e
    3110:	200022e8 	.word	0x200022e8
    3114:	200018d4 	.word	0x200018d4
    3118:	200016a4 	.word	0x200016a4
    311c:	20001f3c 	.word	0x20001f3c

00003120 <UstalLiczbeZgrzewow>:
// Tutaj wykonujemy rzeczy po zakoczonym zgrzewie
// Sprawdzenie, ktry z kolei zgrzew w cyklu
// Wczenie obsugi luzy dla ostatniego zgrzewu i Hydry
//*****************************************************************************
void UstalLiczbeZgrzewow(void)
{
    3120:	2300      	movs	r3, #0
    3122:	461a      	mov	r2, r3
	byte i;

	liczba_zgrzewow = 0;

	for (i = 0; i < p_liczba_programow; i++)
    3124:	e009      	b.n	313a <UstalLiczbeZgrzewow+0x1a>
	{
		if (par[i].NumerCylindra > 0)
    3126:	490a      	ldr	r1, [pc, #40]	; (3150 <UstalLiczbeZgrzewow+0x30>)
    3128:	203c      	movs	r0, #60	; 0x3c
    312a:	fb00 1102 	mla	r1, r0, r2, r1
    312e:	7c89      	ldrb	r1, [r1, #18]
    3130:	b109      	cbz	r1, 3136 <UstalLiczbeZgrzewow+0x16>
			liczba_zgrzewow++;
    3132:	3301      	adds	r3, #1
    3134:	b2db      	uxtb	r3, r3
{
	byte i;

	liczba_zgrzewow = 0;

	for (i = 0; i < p_liczba_programow; i++)
    3136:	3201      	adds	r2, #1
    3138:	b2d2      	uxtb	r2, r2
    313a:	4906      	ldr	r1, [pc, #24]	; (3154 <UstalLiczbeZgrzewow+0x34>)
    313c:	7d08      	ldrb	r0, [r1, #20]
    313e:	7d49      	ldrb	r1, [r1, #21]
    3140:	ea40 2101 	orr.w	r1, r0, r1, lsl #8
    3144:	428a      	cmp	r2, r1
    3146:	d3ee      	bcc.n	3126 <UstalLiczbeZgrzewow+0x6>
    3148:	4a03      	ldr	r2, [pc, #12]	; (3158 <UstalLiczbeZgrzewow+0x38>)
    314a:	7013      	strb	r3, [r2, #0]
	{
		if (par[i].NumerCylindra > 0)
			liczba_zgrzewow++;
	}
}
    314c:	4770      	bx	lr
    314e:	bf00      	nop
    3150:	20001b40 	.word	0x20001b40
    3154:	20000ee4 	.word	0x20000ee4
    3158:	20001f35 	.word	0x20001f35

0000315c <NormalizujADC_Pomiar>:

dword NormalizujADC_Pomiar(long wartosc)
{
	dword retval = (dword) wartosc;

	if (wartosc > 15000)
    315c:	f643 2398 	movw	r3, #15000	; 0x3a98
    3160:	4298      	cmp	r0, r3
    3162:	bfcc      	ite	gt
    3164:	4618      	movgt	r0, r3
		retval = 15000;
	else if (wartosc < 0)
    3166:	ea20 70e0 	bicle.w	r0, r0, r0, asr #31
		retval = 0;

	return retval;
}
    316a:	4770      	bx	lr

0000316c <NormalizujADC_AIN>:

dword NormalizujADC_AIN(long wartosc)
{
	dword retval = (dword) wartosc;

	if (wartosc > 10000)
    316c:	f242 7310 	movw	r3, #10000	; 0x2710
    3170:	4298      	cmp	r0, r3
    3172:	bfcc      	ite	gt
    3174:	4618      	movgt	r0, r3
		retval = 10000;
	else if (wartosc < 0)
    3176:	ea20 70e0 	bicle.w	r0, r0, r0, asr #31
		retval = 0;

	return retval;
}
    317a:	4770      	bx	lr

0000317c <Pomiar_Obliczenia>:
void Pomiar_Obliczenia(void)
{
	dword prad, nap;

	image.ain[0]
			= ANALOG_ADC_POMIAR(NormalizujADC_Pomiar( ((adc0_suma / adc0_index) - adc0_offset) ));
    317c:	4a94      	ldr	r2, [pc, #592]	; (33d0 <Pomiar_Obliczenia+0x254>)
    317e:	4b95      	ldr	r3, [pc, #596]	; (33d4 <Pomiar_Obliczenia+0x258>)
    3180:	6810      	ldr	r0, [r2, #0]
    3182:	881b      	ldrh	r3, [r3, #0]

	return retval;
}

void Pomiar_Obliczenia(void)
{
    3184:	b570      	push	{r4, r5, r6, lr}
	dword prad, nap;

	image.ain[0]
			= ANALOG_ADC_POMIAR(NormalizujADC_Pomiar( ((adc0_suma / adc0_index) - adc0_offset) ));
    3186:	fbb0 f0f3 	udiv	r0, r0, r3
    318a:	3805      	subs	r0, #5
    318c:	f7ff ffe6 	bl	315c <NormalizujADC_Pomiar>

void Pomiar_Obliczenia(void)
{
	dword prad, nap;

	image.ain[0]
    3190:	f240 56dc 	movw	r6, #1500	; 0x5dc
    3194:	fb06 f300 	mul.w	r3, r6, r0
    3198:	2564      	movs	r5, #100	; 0x64
    319a:	fbb3 f3f5 	udiv	r3, r3, r5
    319e:	4c8e      	ldr	r4, [pc, #568]	; (33d8 <Pomiar_Obliczenia+0x25c>)
    31a0:	b29b      	uxth	r3, r3
    31a2:	f003 02ff 	and.w	r2, r3, #255	; 0xff
    31a6:	f894 1052 	ldrb.w	r1, [r4, #82]	; 0x52
    31aa:	0a1b      	lsrs	r3, r3, #8
    31ac:	f884 2052 	strb.w	r2, [r4, #82]	; 0x52
    31b0:	f894 2053 	ldrb.w	r2, [r4, #83]	; 0x53
    31b4:	f884 3053 	strb.w	r3, [r4, #83]	; 0x53
			= ANALOG_ADC_POMIAR(NormalizujADC_Pomiar( ((adc0_suma / adc0_index) - adc0_offset) ));
	image.ain[1]
			= ANALOG_ADC_POMIAR(NormalizujADC_Pomiar( ((adc1_suma / adc1_index) - adc1_offset) ));
    31b8:	4a88      	ldr	r2, [pc, #544]	; (33dc <Pomiar_Obliczenia+0x260>)
    31ba:	4b89      	ldr	r3, [pc, #548]	; (33e0 <Pomiar_Obliczenia+0x264>)
    31bc:	6810      	ldr	r0, [r2, #0]
    31be:	881b      	ldrh	r3, [r3, #0]
    31c0:	fbb0 f0f3 	udiv	r0, r0, r3
    31c4:	3805      	subs	r0, #5
    31c6:	f7ff ffc9 	bl	315c <NormalizujADC_Pomiar>
{
	dword prad, nap;

	image.ain[0]
			= ANALOG_ADC_POMIAR(NormalizujADC_Pomiar( ((adc0_suma / adc0_index) - adc0_offset) ));
	image.ain[1]
    31ca:	4346      	muls	r6, r0
    31cc:	fbb6 f5f5 	udiv	r5, r6, r5
    31d0:	b2ad      	uxth	r5, r5
    31d2:	f005 03ff 	and.w	r3, r5, #255	; 0xff
    31d6:	f894 2054 	ldrb.w	r2, [r4, #84]	; 0x54
    31da:	f884 3054 	strb.w	r3, [r4, #84]	; 0x54
    31de:	f894 3055 	ldrb.w	r3, [r4, #85]	; 0x55
    31e2:	0a2d      	lsrs	r5, r5, #8
			= ANALOG_ADC_POMIAR(NormalizujADC_Pomiar( ((adc1_suma / adc1_index) - adc1_offset) ));
	image.ain[2]
			= ANALOG_ADC_AIN(NormalizujADC_AIN( ((adc2_suma / adc2_index) - adc2_offset) ));
    31e4:	4a7f      	ldr	r2, [pc, #508]	; (33e4 <Pomiar_Obliczenia+0x268>)
    31e6:	4b80      	ldr	r3, [pc, #512]	; (33e8 <Pomiar_Obliczenia+0x26c>)
{
	dword prad, nap;

	image.ain[0]
			= ANALOG_ADC_POMIAR(NormalizujADC_Pomiar( ((adc0_suma / adc0_index) - adc0_offset) ));
	image.ain[1]
    31e8:	f884 5055 	strb.w	r5, [r4, #85]	; 0x55
			= ANALOG_ADC_POMIAR(NormalizujADC_Pomiar( ((adc1_suma / adc1_index) - adc1_offset) ));
	image.ain[2]
			= ANALOG_ADC_AIN(NormalizujADC_AIN( ((adc2_suma / adc2_index) - adc2_offset) ));
    31ec:	881b      	ldrh	r3, [r3, #0]
    31ee:	6810      	ldr	r0, [r2, #0]

	image.ain[0]
			= ANALOG_ADC_POMIAR(NormalizujADC_Pomiar( ((adc0_suma / adc0_index) - adc0_offset) ));
	image.ain[1]
			= ANALOG_ADC_POMIAR(NormalizujADC_Pomiar( ((adc1_suma / adc1_index) - adc1_offset) ));
	image.ain[2]
    31f0:	f242 46b8 	movw	r6, #9400	; 0x24b8
			= ANALOG_ADC_AIN(NormalizujADC_AIN( ((adc2_suma / adc2_index) - adc2_offset) ));
    31f4:	fbb0 f0f3 	udiv	r0, r0, r3
    31f8:	380a      	subs	r0, #10
    31fa:	f7ff ffb7 	bl	316c <NormalizujADC_AIN>

	image.ain[0]
			= ANALOG_ADC_POMIAR(NormalizujADC_Pomiar( ((adc0_suma / adc0_index) - adc0_offset) ));
	image.ain[1]
			= ANALOG_ADC_POMIAR(NormalizujADC_Pomiar( ((adc1_suma / adc1_index) - adc1_offset) ));
	image.ain[2]
    31fe:	fb06 f300 	mul.w	r3, r6, r0
    3202:	f44f 757a 	mov.w	r5, #1000	; 0x3e8
    3206:	fbb3 f3f5 	udiv	r3, r3, r5
    320a:	b29b      	uxth	r3, r3
    320c:	f003 02ff 	and.w	r2, r3, #255	; 0xff
    3210:	f894 1056 	ldrb.w	r1, [r4, #86]	; 0x56
    3214:	0a1b      	lsrs	r3, r3, #8
    3216:	f884 2056 	strb.w	r2, [r4, #86]	; 0x56
    321a:	f894 2057 	ldrb.w	r2, [r4, #87]	; 0x57
    321e:	f884 3057 	strb.w	r3, [r4, #87]	; 0x57
			= ANALOG_ADC_AIN(NormalizujADC_AIN( ((adc2_suma / adc2_index) - adc2_offset) ));
	image.ain[3]
			= ANALOG_ADC_AIN(NormalizujADC_AIN( ((adc3_suma / adc3_index) - adc3_offset) ));
    3222:	4a72      	ldr	r2, [pc, #456]	; (33ec <Pomiar_Obliczenia+0x270>)
    3224:	4b72      	ldr	r3, [pc, #456]	; (33f0 <Pomiar_Obliczenia+0x274>)
    3226:	6810      	ldr	r0, [r2, #0]
    3228:	881b      	ldrh	r3, [r3, #0]
    322a:	fbb0 f0f3 	udiv	r0, r0, r3
    322e:	380a      	subs	r0, #10
    3230:	f7ff ff9c 	bl	316c <NormalizujADC_AIN>
			= ANALOG_ADC_POMIAR(NormalizujADC_Pomiar( ((adc0_suma / adc0_index) - adc0_offset) ));
	image.ain[1]
			= ANALOG_ADC_POMIAR(NormalizujADC_Pomiar( ((adc1_suma / adc1_index) - adc1_offset) ));
	image.ain[2]
			= ANALOG_ADC_AIN(NormalizujADC_AIN( ((adc2_suma / adc2_index) - adc2_offset) ));
	image.ain[3]
    3234:	fb06 f300 	mul.w	r3, r6, r0
    3238:	fbb3 f3f5 	udiv	r3, r3, r5
    323c:	b29b      	uxth	r3, r3
    323e:	f003 02ff 	and.w	r2, r3, #255	; 0xff
    3242:	f894 1058 	ldrb.w	r1, [r4, #88]	; 0x58
    3246:	0a1b      	lsrs	r3, r3, #8
    3248:	f884 2058 	strb.w	r2, [r4, #88]	; 0x58
    324c:	f894 2059 	ldrb.w	r2, [r4, #89]	; 0x59
    3250:	f884 3059 	strb.w	r3, [r4, #89]	; 0x59
			= ANALOG_ADC_AIN(NormalizujADC_AIN( ((adc3_suma / adc3_index) - adc3_offset) ));
	image.ain[4]
			= ANALOG_ADC_AIN(NormalizujADC_AIN( ((adc4_suma / adc4_index) - adc4_offset) ));
    3254:	4a67      	ldr	r2, [pc, #412]	; (33f4 <Pomiar_Obliczenia+0x278>)
    3256:	4b68      	ldr	r3, [pc, #416]	; (33f8 <Pomiar_Obliczenia+0x27c>)
    3258:	6810      	ldr	r0, [r2, #0]
    325a:	881b      	ldrh	r3, [r3, #0]
    325c:	fbb0 f0f3 	udiv	r0, r0, r3
    3260:	380a      	subs	r0, #10
    3262:	f7ff ff83 	bl	316c <NormalizujADC_AIN>
			= ANALOG_ADC_POMIAR(NormalizujADC_Pomiar( ((adc1_suma / adc1_index) - adc1_offset) ));
	image.ain[2]
			= ANALOG_ADC_AIN(NormalizujADC_AIN( ((adc2_suma / adc2_index) - adc2_offset) ));
	image.ain[3]
			= ANALOG_ADC_AIN(NormalizujADC_AIN( ((adc3_suma / adc3_index) - adc3_offset) ));
	image.ain[4]
    3266:	4346      	muls	r6, r0
    3268:	fbb6 f5f5 	udiv	r5, r6, r5
    326c:	b2ad      	uxth	r5, r5
    326e:	f005 03ff 	and.w	r3, r5, #255	; 0xff
    3272:	f894 205a 	ldrb.w	r2, [r4, #90]	; 0x5a
    3276:	f884 305a 	strb.w	r3, [r4, #90]	; 0x5a
    327a:	f894 305b 	ldrb.w	r3, [r4, #91]	; 0x5b
    327e:	0a2d      	lsrs	r5, r5, #8
			= ANALOG_ADC_AIN(NormalizujADC_AIN( ((adc4_suma / adc4_index) - adc4_offset) ));
	image.ain[5] = ((adct_suma / adct_index) - adct_offset);
    3280:	4b5e      	ldr	r3, [pc, #376]	; (33fc <Pomiar_Obliczenia+0x280>)
    3282:	4a5f      	ldr	r2, [pc, #380]	; (3400 <Pomiar_Obliczenia+0x284>)
			= ANALOG_ADC_POMIAR(NormalizujADC_Pomiar( ((adc1_suma / adc1_index) - adc1_offset) ));
	image.ain[2]
			= ANALOG_ADC_AIN(NormalizujADC_AIN( ((adc2_suma / adc2_index) - adc2_offset) ));
	image.ain[3]
			= ANALOG_ADC_AIN(NormalizujADC_AIN( ((adc3_suma / adc3_index) - adc3_offset) ));
	image.ain[4]
    3284:	f884 505b 	strb.w	r5, [r4, #91]	; 0x5b
			= ANALOG_ADC_AIN(NormalizujADC_AIN( ((adc4_suma / adc4_index) - adc4_offset) ));
	image.ain[5] = ((adct_suma / adct_index) - adct_offset);
    3288:	6812      	ldr	r2, [r2, #0]
    328a:	881b      	ldrh	r3, [r3, #0]
    328c:	f894 105c 	ldrb.w	r1, [r4, #92]	; 0x5c
    3290:	fbb2 f3f3 	udiv	r3, r2, r3
    3294:	b29b      	uxth	r3, r3
    3296:	f003 02ff 	and.w	r2, r3, #255	; 0xff
    329a:	f884 205c 	strb.w	r2, [r4, #92]	; 0x5c
    329e:	0a1b      	lsrs	r3, r3, #8
    32a0:	f894 205d 	ldrb.w	r2, [r4, #93]	; 0x5d
    32a4:	f884 305d 	strb.w	r3, [r4, #93]	; 0x5d

	//
	// Przeliczenie temperatury
	//
	image.sm[SM_TEMPERATURA_UC] = (ADC_TEMP(image.ain[5]));
    32a8:	f894 305c 	ldrb.w	r3, [r4, #92]	; 0x5c
    32ac:	f894 005d 	ldrb.w	r0, [r4, #93]	; 0x5d
    32b0:	ea43 2000 	orr.w	r0, r3, r0, lsl #8
    32b4:	f005 f9a8 	bl	8608 <__aeabi_i2d>
    32b8:	a341      	add	r3, pc, #260	; (adr r3, 33c0 <Pomiar_Obliczenia+0x244>)
    32ba:	e9d3 2300 	ldrd	r2, r3, [r3]
    32be:	f005 fa09 	bl	86d4 <__aeabi_dmul>
    32c2:	2200      	movs	r2, #0
    32c4:	4b4f      	ldr	r3, [pc, #316]	; (3404 <Pomiar_Obliczenia+0x288>)
    32c6:	f005 fa05 	bl	86d4 <__aeabi_dmul>
    32ca:	a33f      	add	r3, pc, #252	; (adr r3, 33c8 <Pomiar_Obliczenia+0x24c>)
    32cc:	e9d3 2300 	ldrd	r2, r3, [r3]
    32d0:	f005 f84e 	bl	8370 <__adddf3>
    32d4:	f005 fc10 	bl	8af8 <__aeabi_d2uiz>
    32d8:	b280      	uxth	r0, r0
    32da:	f000 03ff 	and.w	r3, r0, #255	; 0xff
    32de:	0a00      	lsrs	r0, r0, #8
    32e0:	f894 2030 	ldrb.w	r2, [r4, #48]	; 0x30
    32e4:	f884 3030 	strb.w	r3, [r4, #48]	; 0x30
    32e8:	f894 3031 	ldrb.w	r3, [r4, #49]	; 0x31
    32ec:	f884 0031 	strb.w	r0, [r4, #49]	; 0x31

	//
	// Pomiar wtopienia
	//
	if ((p_stanprocesu >= ETPROC_ZGRZEWANIE_PODGRZEWANIE) && (p_stanprocesu
    32f0:	f894 302e 	ldrb.w	r3, [r4, #46]	; 0x2e
    32f4:	f894 202f 	ldrb.w	r2, [r4, #47]	; 0x2f
    32f8:	ea43 2302 	orr.w	r3, r3, r2, lsl #8
    32fc:	2b09      	cmp	r3, #9
    32fe:	d936      	bls.n	336e <Pomiar_Obliczenia+0x1f2>
    3300:	f894 302e 	ldrb.w	r3, [r4, #46]	; 0x2e
    3304:	f894 202f 	ldrb.w	r2, [r4, #47]	; 0x2f
    3308:	ea43 2302 	orr.w	r3, r3, r2, lsl #8
    330c:	2b10      	cmp	r3, #16
    330e:	d82e      	bhi.n	336e <Pomiar_Obliczenia+0x1f2>
			<= ETPROC_ZGRZEWANIE_DOCISK_KONCOWY))
	{
		if (image.ain[3] > p_wtopienie_poczatkowe)
    3310:	f894 3058 	ldrb.w	r3, [r4, #88]	; 0x58
    3314:	f894 2059 	ldrb.w	r2, [r4, #89]	; 0x59
    3318:	ea43 2202 	orr.w	r2, r3, r2, lsl #8
    331c:	f894 3038 	ldrb.w	r3, [r4, #56]	; 0x38
    3320:	f894 1039 	ldrb.w	r1, [r4, #57]	; 0x39
    3324:	ea43 2301 	orr.w	r3, r3, r1, lsl #8
    3328:	429a      	cmp	r2, r3
    332a:	4b37      	ldr	r3, [pc, #220]	; (3408 <Pomiar_Obliczenia+0x28c>)
    332c:	d90a      	bls.n	3344 <Pomiar_Obliczenia+0x1c8>
			wtop_temp = image.ain[3] - p_wtopienie_poczatkowe;
    332e:	f894 2058 	ldrb.w	r2, [r4, #88]	; 0x58
    3332:	f894 1059 	ldrb.w	r1, [r4, #89]	; 0x59
    3336:	ea42 2101 	orr.w	r1, r2, r1, lsl #8
    333a:	f894 2038 	ldrb.w	r2, [r4, #56]	; 0x38
    333e:	f894 0039 	ldrb.w	r0, [r4, #57]	; 0x39
    3342:	e009      	b.n	3358 <Pomiar_Obliczenia+0x1dc>
		else
			wtop_temp = p_wtopienie_poczatkowe - image.ain[3];
    3344:	f894 2038 	ldrb.w	r2, [r4, #56]	; 0x38
    3348:	f894 1039 	ldrb.w	r1, [r4, #57]	; 0x39
    334c:	ea42 2101 	orr.w	r1, r2, r1, lsl #8
    3350:	f894 2058 	ldrb.w	r2, [r4, #88]	; 0x58
    3354:	f894 0059 	ldrb.w	r0, [r4, #89]	; 0x59
    3358:	ea42 2200 	orr.w	r2, r2, r0, lsl #8
    335c:	1a8a      	subs	r2, r1, r2
    335e:	601a      	str	r2, [r3, #0]

		// Szukamy max i zapisujemy w tab wykresu
		if (wtop_temp > wtop)
    3360:	4b29      	ldr	r3, [pc, #164]	; (3408 <Pomiar_Obliczenia+0x28c>)
    3362:	681a      	ldr	r2, [r3, #0]
    3364:	4b29      	ldr	r3, [pc, #164]	; (340c <Pomiar_Obliczenia+0x290>)
    3366:	6819      	ldr	r1, [r3, #0]
    3368:	428a      	cmp	r2, r1
			wtop = wtop_temp;
    336a:	bf88      	it	hi
    336c:	601a      	strhi	r2, [r3, #0]

	//
	// Tylko do testw warto kta
	// Tworzenie wykresu wzorcowego
	//
	if (wykres_index < WYKRES_TAB_SIZE)
    336e:	4b28      	ldr	r3, [pc, #160]	; (3410 <Pomiar_Obliczenia+0x294>)
    3370:	781a      	ldrb	r2, [r3, #0]
    3372:	2a63      	cmp	r2, #99	; 0x63
    3374:	f200 809e 	bhi.w	34b4 <Pomiar_Obliczenia+0x338>
	{
		if (p_stanprocesu == ETPROC_ZGRZEWANIE_PODGRZEWANIE || p_stanprocesu
    3378:	4b17      	ldr	r3, [pc, #92]	; (33d8 <Pomiar_Obliczenia+0x25c>)
    337a:	f893 102e 	ldrb.w	r1, [r3, #46]	; 0x2e
    337e:	f893 002f 	ldrb.w	r0, [r3, #47]	; 0x2f
    3382:	ea41 2100 	orr.w	r1, r1, r0, lsl #8
    3386:	290a      	cmp	r1, #10
    3388:	d00f      	beq.n	33aa <Pomiar_Obliczenia+0x22e>
    338a:	f893 102e 	ldrb.w	r1, [r3, #46]	; 0x2e
    338e:	f893 002f 	ldrb.w	r0, [r3, #47]	; 0x2f
    3392:	ea41 2100 	orr.w	r1, r1, r0, lsl #8
    3396:	290c      	cmp	r1, #12
    3398:	d007      	beq.n	33aa <Pomiar_Obliczenia+0x22e>
				== ETPROC_ZGRZEWANIE_ZGRZEWANIE || p_stanprocesu
    339a:	f893 102e 	ldrb.w	r1, [r3, #46]	; 0x2e
    339e:	f893 302f 	ldrb.w	r3, [r3, #47]	; 0x2f
    33a2:	ea41 2303 	orr.w	r3, r1, r3, lsl #8
	// Tylko do testw warto kta
	// Tworzenie wykresu wzorcowego
	//
	if (wykres_index < WYKRES_TAB_SIZE)
	{
		if (p_stanprocesu == ETPROC_ZGRZEWANIE_PODGRZEWANIE || p_stanprocesu
    33a6:	2b0f      	cmp	r3, #15
    33a8:	d138      	bne.n	341c <Pomiar_Obliczenia+0x2a0>
				== ETPROC_ZGRZEWANIE_ZGRZEWANIE || p_stanprocesu
				== ETPROC_ZGRZEWANIE_DOGRZEWANIE)
		{
			wykres_wzor[wykres_index] = (KAT_MIN_TIME - kat) * 6;
    33aa:	4b1a      	ldr	r3, [pc, #104]	; (3414 <Pomiar_Obliczenia+0x298>)
    33ac:	8819      	ldrh	r1, [r3, #0]
    33ae:	2306      	movs	r3, #6
    33b0:	b289      	uxth	r1, r1
    33b2:	f1c1 01af 	rsb	r1, r1, #175	; 0xaf
    33b6:	4359      	muls	r1, r3
    33b8:	4b17      	ldr	r3, [pc, #92]	; (3418 <Pomiar_Obliczenia+0x29c>)
    33ba:	e032      	b.n	3422 <Pomiar_Obliczenia+0x2a6>
    33bc:	f3af 8000 	nop.w
    33c0:	00000000 	.word	0x00000000
    33c4:	406c2000 	.word	0x406c2000
    33c8:	00000000 	.word	0x00000000
    33cc:	40627000 	.word	0x40627000
    33d0:	20001f20 	.word	0x20001f20
    33d4:	2000176c 	.word	0x2000176c
    33d8:	20000ee4 	.word	0x20000ee4
    33dc:	20001f10 	.word	0x20001f10
    33e0:	2000216e 	.word	0x2000216e
    33e4:	20001f28 	.word	0x20001f28
    33e8:	20002690 	.word	0x20002690
    33ec:	200022d8 	.word	0x200022d8
    33f0:	20002166 	.word	0x20002166
    33f4:	2000169c 	.word	0x2000169c
    33f8:	200016a0 	.word	0x200016a0
    33fc:	20001f14 	.word	0x20001f14
    3400:	20002524 	.word	0x20002524
    3404:	bf500000 	.word	0xbf500000
    3408:	20001f18 	.word	0x20001f18
    340c:	20002514 	.word	0x20002514
    3410:	20001f2e 	.word	0x20001f2e
    3414:	20001698 	.word	0x20001698
    3418:	200022e8 	.word	0x200022e8
		}
		else
		{
			wykres_wzor[wykres_index] = 0;
    341c:	4b32      	ldr	r3, [pc, #200]	; (34e8 <Pomiar_Obliczenia+0x36c>)
    341e:	f04f 0100 	mov.w	r1, #0
    3422:	f823 1012 	strh.w	r1, [r3, r2, lsl #1]
		}

		//
		// Tworzenie wykresu prdu i wartoci
		//
		if ((p_stanprocesu >= ETPROC_ZGRZEWANIE_PODGRZEWANIE) && (p_stanprocesu
    3426:	4b31      	ldr	r3, [pc, #196]	; (34ec <Pomiar_Obliczenia+0x370>)
    3428:	f893 102e 	ldrb.w	r1, [r3, #46]	; 0x2e
    342c:	f893 002f 	ldrb.w	r0, [r3, #47]	; 0x2f
    3430:	ea41 2100 	orr.w	r1, r1, r0, lsl #8
    3434:	2909      	cmp	r1, #9
    3436:	d93d      	bls.n	34b4 <Pomiar_Obliczenia+0x338>
    3438:	f893 102e 	ldrb.w	r1, [r3, #46]	; 0x2e
    343c:	f893 002f 	ldrb.w	r0, [r3, #47]	; 0x2f
    3440:	ea41 2100 	orr.w	r1, r1, r0, lsl #8
    3444:	2910      	cmp	r1, #16
    3446:	d835      	bhi.n	34b4 <Pomiar_Obliczenia+0x338>
				<= ETPROC_ZGRZEWANIE_DOCISK_KONCOWY))
		{
			prad = wykres_prad[wykres_index] = image.ain[0];
    3448:	f893 1052 	ldrb.w	r1, [r3, #82]	; 0x52
    344c:	f893 0053 	ldrb.w	r0, [r3, #83]	; 0x53
			nap = wykres_nap[wykres_index] = image.ain[1];
    3450:	4c27      	ldr	r4, [pc, #156]	; (34f0 <Pomiar_Obliczenia+0x374>)
		// Tworzenie wykresu prdu i wartoci
		//
		if ((p_stanprocesu >= ETPROC_ZGRZEWANIE_PODGRZEWANIE) && (p_stanprocesu
				<= ETPROC_ZGRZEWANIE_DOCISK_KONCOWY))
		{
			prad = wykres_prad[wykres_index] = image.ain[0];
    3452:	ea41 2000 	orr.w	r0, r1, r0, lsl #8
    3456:	4927      	ldr	r1, [pc, #156]	; (34f4 <Pomiar_Obliczenia+0x378>)
			nap = wykres_nap[wykres_index] = image.ain[1];
			wykres_wtopienia[wykres_index] = wtop_temp;
    3458:	4d27      	ldr	r5, [pc, #156]	; (34f8 <Pomiar_Obliczenia+0x37c>)
		// Tworzenie wykresu prdu i wartoci
		//
		if ((p_stanprocesu >= ETPROC_ZGRZEWANIE_PODGRZEWANIE) && (p_stanprocesu
				<= ETPROC_ZGRZEWANIE_DOCISK_KONCOWY))
		{
			prad = wykres_prad[wykres_index] = image.ain[0];
    345a:	f821 0012 	strh.w	r0, [r1, r2, lsl #1]
			nap = wykres_nap[wykres_index] = image.ain[1];
    345e:	f893 1054 	ldrb.w	r1, [r3, #84]	; 0x54
    3462:	f893 c055 	ldrb.w	ip, [r3, #85]	; 0x55
			wykres_wtopienia[wykres_index] = wtop_temp;
    3466:	882d      	ldrh	r5, [r5, #0]
		//
		if ((p_stanprocesu >= ETPROC_ZGRZEWANIE_PODGRZEWANIE) && (p_stanprocesu
				<= ETPROC_ZGRZEWANIE_DOCISK_KONCOWY))
		{
			prad = wykres_prad[wykres_index] = image.ain[0];
			nap = wykres_nap[wykres_index] = image.ain[1];
    3468:	ea41 210c 	orr.w	r1, r1, ip, lsl #8
    346c:	f824 1012 	strh.w	r1, [r4, r2, lsl #1]
			wykres_wtopienia[wykres_index] = wtop_temp;
    3470:	4c22      	ldr	r4, [pc, #136]	; (34fc <Pomiar_Obliczenia+0x380>)
    3472:	f824 5012 	strh.w	r5, [r4, r2, lsl #1]

			// Zwiekszenie indexu indexu
			if (wykres_index < WYKRES_TAB_SIZE)
				wykres_index++;
    3476:	4c22      	ldr	r4, [pc, #136]	; (3500 <Pomiar_Obliczenia+0x384>)
    3478:	3201      	adds	r2, #1
    347a:	7022      	strb	r2, [r4, #0]

			if ((p_stanprocesu > ETPROC_ZGRZEWANIE_DOCISK_WSTEPNY)
    347c:	f893 202e 	ldrb.w	r2, [r3, #46]	; 0x2e
    3480:	f893 c02f 	ldrb.w	ip, [r3, #47]	; 0x2f
    3484:	ea42 220c 	orr.w	r2, r2, ip, lsl #8
    3488:	2a09      	cmp	r2, #9
    348a:	d913      	bls.n	34b4 <Pomiar_Obliczenia+0x338>
					&& (p_stanprocesu < ETPROC_ZGRZEWANIE_DOCISK_KONCOWY))
    348c:	f893 202e 	ldrb.w	r2, [r3, #46]	; 0x2e
    3490:	f893 302f 	ldrb.w	r3, [r3, #47]	; 0x2f
    3494:	ea42 2303 	orr.w	r3, r2, r3, lsl #8

			// Zwiekszenie indexu indexu
			if (wykres_index < WYKRES_TAB_SIZE)
				wykres_index++;

			if ((p_stanprocesu > ETPROC_ZGRZEWANIE_DOCISK_WSTEPNY)
    3498:	2b0f      	cmp	r3, #15
    349a:	d80b      	bhi.n	34b4 <Pomiar_Obliczenia+0x338>
					&& (p_stanprocesu < ETPROC_ZGRZEWANIE_DOCISK_KONCOWY))
			{
				pomiar_polokres_prad += prad;
    349c:	4b19      	ldr	r3, [pc, #100]	; (3504 <Pomiar_Obliczenia+0x388>)
    349e:	681a      	ldr	r2, [r3, #0]
    34a0:	1880      	adds	r0, r0, r2
    34a2:	6018      	str	r0, [r3, #0]
				pomiar_polokres_nap += nap;
    34a4:	4b18      	ldr	r3, [pc, #96]	; (3508 <Pomiar_Obliczenia+0x38c>)
    34a6:	681a      	ldr	r2, [r3, #0]
    34a8:	1889      	adds	r1, r1, r2
    34aa:	6019      	str	r1, [r3, #0]
				pomiar_numer_zmierzonego_polokresu++;
    34ac:	4b17      	ldr	r3, [pc, #92]	; (350c <Pomiar_Obliczenia+0x390>)
    34ae:	781a      	ldrb	r2, [r3, #0]
    34b0:	3201      	adds	r2, #1
    34b2:	701a      	strb	r2, [r3, #0]
	}

	//
	// Na koniec czyszczenie rejestrw
	//
	adc0_suma = 0;
    34b4:	4a16      	ldr	r2, [pc, #88]	; (3510 <Pomiar_Obliczenia+0x394>)
    34b6:	2300      	movs	r3, #0
    34b8:	6013      	str	r3, [r2, #0]
	adc1_suma = 0;
    34ba:	4a16      	ldr	r2, [pc, #88]	; (3514 <Pomiar_Obliczenia+0x398>)
    34bc:	6013      	str	r3, [r2, #0]
	adc2_suma = 0;
    34be:	4a16      	ldr	r2, [pc, #88]	; (3518 <Pomiar_Obliczenia+0x39c>)
    34c0:	6013      	str	r3, [r2, #0]
	adc3_suma = 0;
    34c2:	4a16      	ldr	r2, [pc, #88]	; (351c <Pomiar_Obliczenia+0x3a0>)
    34c4:	6013      	str	r3, [r2, #0]
	adc4_suma = 0;
    34c6:	4a16      	ldr	r2, [pc, #88]	; (3520 <Pomiar_Obliczenia+0x3a4>)
    34c8:	6013      	str	r3, [r2, #0]
	adct_suma = 0;
    34ca:	4a16      	ldr	r2, [pc, #88]	; (3524 <Pomiar_Obliczenia+0x3a8>)
    34cc:	6013      	str	r3, [r2, #0]
	adc0_index = 0;
    34ce:	4a16      	ldr	r2, [pc, #88]	; (3528 <Pomiar_Obliczenia+0x3ac>)
    34d0:	8013      	strh	r3, [r2, #0]
	adc1_index = 0;
    34d2:	4a16      	ldr	r2, [pc, #88]	; (352c <Pomiar_Obliczenia+0x3b0>)
    34d4:	8013      	strh	r3, [r2, #0]
	adc2_index = 0;
    34d6:	4a16      	ldr	r2, [pc, #88]	; (3530 <Pomiar_Obliczenia+0x3b4>)
    34d8:	8013      	strh	r3, [r2, #0]
	adc3_index = 0;
    34da:	4a16      	ldr	r2, [pc, #88]	; (3534 <Pomiar_Obliczenia+0x3b8>)
    34dc:	8013      	strh	r3, [r2, #0]
	adc4_index = 0;
    34de:	4a16      	ldr	r2, [pc, #88]	; (3538 <Pomiar_Obliczenia+0x3bc>)
    34e0:	8013      	strh	r3, [r2, #0]
	adct_index = 0;
    34e2:	4a16      	ldr	r2, [pc, #88]	; (353c <Pomiar_Obliczenia+0x3c0>)
    34e4:	8013      	strh	r3, [r2, #0]
}
    34e6:	bd70      	pop	{r4, r5, r6, pc}
    34e8:	200022e8 	.word	0x200022e8
    34ec:	20000ee4 	.word	0x20000ee4
    34f0:	200016a4 	.word	0x200016a4
    34f4:	200018d4 	.word	0x200018d4
    34f8:	20001f18 	.word	0x20001f18
    34fc:	20001f3c 	.word	0x20001f3c
    3500:	20001f2e 	.word	0x20001f2e
    3504:	20002528 	.word	0x20002528
    3508:	20001f30 	.word	0x20001f30
    350c:	2000012c 	.word	0x2000012c
    3510:	20001f20 	.word	0x20001f20
    3514:	20001f10 	.word	0x20001f10
    3518:	20001f28 	.word	0x20001f28
    351c:	200022d8 	.word	0x200022d8
    3520:	2000169c 	.word	0x2000169c
    3524:	20002524 	.word	0x20002524
    3528:	2000176c 	.word	0x2000176c
    352c:	2000216e 	.word	0x2000216e
    3530:	20002690 	.word	0x20002690
    3534:	20002166 	.word	0x20002166
    3538:	200016a0 	.word	0x200016a0
    353c:	20001f14 	.word	0x20001f14

00003540 <KontrolaNakretki>:
//*****************************************************************************
// Mruganie z przerwania Proces Int 20kHz
//*****************************************************************************

void KontrolaNakretki(void)
{
    3540:	b530      	push	{r4, r5, lr}
	if (GET_REFERUJ_CYLINDER == false)
    3542:	4b37      	ldr	r3, [pc, #220]	; (3620 <KontrolaNakretki+0xe0>)
    3544:	7e1a      	ldrb	r2, [r3, #24]
    3546:	7e59      	ldrb	r1, [r3, #25]
    3548:	f012 0f02 	tst.w	r2, #2
    354c:	d14b      	bne.n	35e6 <KontrolaNakretki+0xa6>
	{
		if ((p_cylinder_akt >= (par[p_aktualny_program].PozycjaCylindraDol
    354e:	f893 2058 	ldrb.w	r2, [r3, #88]	; 0x58
    3552:	f893 c059 	ldrb.w	ip, [r3, #89]	; 0x59
    3556:	213c      	movs	r1, #60	; 0x3c
    3558:	ea42 2c0c 	orr.w	ip, r2, ip, lsl #8
    355c:	f893 2020 	ldrb.w	r2, [r3, #32]
    3560:	f893 0021 	ldrb.w	r0, [r3, #33]	; 0x21
    3564:	ea42 2000 	orr.w	r0, r2, r0, lsl #8
				- par[p_aktualny_program].PozycjaCylindraDolTolerancja))
    3568:	f893 2020 	ldrb.w	r2, [r3, #32]
    356c:	f893 4021 	ldrb.w	r4, [r3, #33]	; 0x21
    3570:	ea42 2404 	orr.w	r4, r2, r4, lsl #8

void KontrolaNakretki(void)
{
	if (GET_REFERUJ_CYLINDER == false)
	{
		if ((p_cylinder_akt >= (par[p_aktualny_program].PozycjaCylindraDol
    3574:	4a2b      	ldr	r2, [pc, #172]	; (3624 <KontrolaNakretki+0xe4>)
    3576:	fb01 2000 	mla	r0, r1, r0, r2
    357a:	fb01 2404 	mla	r4, r1, r4, r2
    357e:	3010      	adds	r0, #16
    3580:	78c5      	ldrb	r5, [r0, #3]
    3582:	6964      	ldr	r4, [r4, #20]
    3584:	7900      	ldrb	r0, [r0, #4]
    3586:	f3c4 240f 	ubfx	r4, r4, #8, #16
    358a:	ea45 2000 	orr.w	r0, r5, r0, lsl #8
    358e:	1b00      	subs	r0, r0, r4
    3590:	4584      	cmp	ip, r0
    3592:	db20      	blt.n	35d6 <KontrolaNakretki+0x96>
				- par[p_aktualny_program].PozycjaCylindraDolTolerancja))
				&& (p_cylinder_akt
    3594:	f893 0058 	ldrb.w	r0, [r3, #88]	; 0x58
    3598:	f893 c059 	ldrb.w	ip, [r3, #89]	; 0x59
    359c:	ea40 200c 	orr.w	r0, r0, ip, lsl #8
						<= (par[p_aktualny_program].PozycjaCylindraDol
    35a0:	f893 c020 	ldrb.w	ip, [r3, #32]
    35a4:	f893 4021 	ldrb.w	r4, [r3, #33]	; 0x21
    35a8:	ea4c 2404 	orr.w	r4, ip, r4, lsl #8
								+ par[p_aktualny_program].PozycjaCylindraDolTolerancja)))
    35ac:	f893 c020 	ldrb.w	ip, [r3, #32]
    35b0:	f893 5021 	ldrb.w	r5, [r3, #33]	; 0x21
    35b4:	ea4c 2505 	orr.w	r5, ip, r5, lsl #8

void KontrolaNakretki(void)
{
	if (GET_REFERUJ_CYLINDER == false)
	{
		if ((p_cylinder_akt >= (par[p_aktualny_program].PozycjaCylindraDol
    35b8:	fb01 2505 	mla	r5, r1, r5, r2
    35bc:	fb01 2204 	mla	r2, r1, r4, r2
    35c0:	3210      	adds	r2, #16
    35c2:	78d1      	ldrb	r1, [r2, #3]
    35c4:	696d      	ldr	r5, [r5, #20]
    35c6:	7912      	ldrb	r2, [r2, #4]
    35c8:	f3c5 2c0f 	ubfx	ip, r5, #8, #16
    35cc:	ea41 2202 	orr.w	r2, r1, r2, lsl #8
    35d0:	4462      	add	r2, ip
    35d2:	4290      	cmp	r0, r2
    35d4:	dd07      	ble.n	35e6 <KontrolaNakretki+0xa6>
				&& (p_cylinder_akt
						<= (par[p_aktualny_program].PozycjaCylindraDol
								+ par[p_aktualny_program].PozycjaCylindraDolTolerancja)))
			SET_NAKR_POZ;
		else
			RESET_NAKR_POZ;
    35d6:	4b12      	ldr	r3, [pc, #72]	; (3620 <KontrolaNakretki+0xe0>)
    35d8:	7e1a      	ldrb	r2, [r3, #24]
    35da:	7e59      	ldrb	r1, [r3, #25]
    35dc:	ea42 2201 	orr.w	r2, r2, r1, lsl #8
    35e0:	f002 01f7 	and.w	r1, r2, #247	; 0xf7
    35e4:	e007      	b.n	35f6 <KontrolaNakretki+0xb6>
	}
	else
		SET_NAKR_POZ;
    35e6:	7e1a      	ldrb	r2, [r3, #24]
    35e8:	7e59      	ldrb	r1, [r3, #25]
    35ea:	ea42 2201 	orr.w	r2, r2, r1, lsl #8
    35ee:	f042 0208 	orr.w	r2, r2, #8
    35f2:	f002 01ff 	and.w	r1, r2, #255	; 0xff
    35f6:	7e18      	ldrb	r0, [r3, #24]
    35f8:	0a12      	lsrs	r2, r2, #8
    35fa:	7619      	strb	r1, [r3, #24]
    35fc:	7e59      	ldrb	r1, [r3, #25]
    35fe:	765a      	strb	r2, [r3, #25]
	 RESET_NAKR_WYD;
	 }
	 else
	 SET_NAKR_WYD;
	 */
	SET_NAKR_WYD;
    3600:	4b07      	ldr	r3, [pc, #28]	; (3620 <KontrolaNakretki+0xe0>)
    3602:	7e1a      	ldrb	r2, [r3, #24]
    3604:	7e59      	ldrb	r1, [r3, #25]
    3606:	7e18      	ldrb	r0, [r3, #24]
    3608:	ea42 2201 	orr.w	r2, r2, r1, lsl #8
    360c:	f042 0210 	orr.w	r2, r2, #16
    3610:	f002 01ff 	and.w	r1, r2, #255	; 0xff
    3614:	7619      	strb	r1, [r3, #24]
    3616:	0a12      	lsrs	r2, r2, #8
    3618:	7e59      	ldrb	r1, [r3, #25]
    361a:	765a      	strb	r2, [r3, #25]
}
    361c:	bd30      	pop	{r4, r5, pc}
    361e:	bf00      	nop
    3620:	20000ee4 	.word	0x20000ee4
    3624:	20001b40 	.word	0x20001b40

00003628 <ResetReferencjiPradu>:

void ResetReferencjiPradu(byte wartosc)
{
    3628:	b530      	push	{r4, r5, lr}
	int i, j;

	if (wartosc == 0)
		wartosc = 1;

	p_ref_cnt_prad = ref_prad_cnt0 = wartosc;
    362a:	4b16      	ldr	r3, [pc, #88]	; (3684 <ResetReferencjiPradu+0x5c>)

void ResetReferencjiPradu(byte wartosc)
{
	int i, j;

	if (wartosc == 0)
    362c:	2800      	cmp	r0, #0
    362e:	bf08      	it	eq
    3630:	2001      	moveq	r0, #1
		wartosc = 1;

	p_ref_cnt_prad = ref_prad_cnt0 = wartosc;
    3632:	7058      	strb	r0, [r3, #1]
    3634:	4b14      	ldr	r3, [pc, #80]	; (3688 <ResetReferencjiPradu+0x60>)
    3636:	f000 00ff 	and.w	r0, r0, #255	; 0xff
    363a:	7e9a      	ldrb	r2, [r3, #26]
    363c:	7698      	strb	r0, [r3, #26]
    363e:	7eda      	ldrb	r2, [r3, #27]
    3640:	2200      	movs	r2, #0
    3642:	76da      	strb	r2, [r3, #27]
    3644:	4613      	mov	r3, r2
    3646:	e00f      	b.n	3668 <ResetReferencjiPradu+0x40>

	for (i = 0; i < 16; i++)
	{
		for (j = 0; j < REF_TAB_SIZE; j++)
    3648:	3101      	adds	r1, #1
		{
			RefTabWtopienie[i][j] = 0;
    364a:	f04f 0c00 	mov.w	ip, #0

	p_ref_cnt_prad = ref_prad_cnt0 = wartosc;

	for (i = 0; i < 16; i++)
	{
		for (j = 0; j < REF_TAB_SIZE; j++)
    364e:	290b      	cmp	r1, #11
		{
			RefTabWtopienie[i][j] = 0;
    3650:	f825 cb02 	strh.w	ip, [r5], #2
			RefTabPrad[i][j] = 0;
    3654:	f824 cb02 	strh.w	ip, [r4], #2
			RefTabNapiecie[i][j] = 0;
    3658:	f820 cb02 	strh.w	ip, [r0], #2
			RefTabEnergia[i][j] = 0;
    365c:	f822 cb02 	strh.w	ip, [r2], #2

	p_ref_cnt_prad = ref_prad_cnt0 = wartosc;

	for (i = 0; i < 16; i++)
	{
		for (j = 0; j < REF_TAB_SIZE; j++)
    3660:	d1f2      	bne.n	3648 <ResetReferencjiPradu+0x20>
	if (wartosc == 0)
		wartosc = 1;

	p_ref_cnt_prad = ref_prad_cnt0 = wartosc;

	for (i = 0; i < 16; i++)
    3662:	3301      	adds	r3, #1
    3664:	2b10      	cmp	r3, #16
    3666:	d00b      	beq.n	3680 <ResetReferencjiPradu+0x58>
    3668:	2216      	movs	r2, #22
    366a:	435a      	muls	r2, r3
    366c:	4907      	ldr	r1, [pc, #28]	; (368c <ResetReferencjiPradu+0x64>)
    366e:	4d08      	ldr	r5, [pc, #32]	; (3690 <ResetReferencjiPradu+0x68>)
    3670:	4c08      	ldr	r4, [pc, #32]	; (3694 <ResetReferencjiPradu+0x6c>)
    3672:	4809      	ldr	r0, [pc, #36]	; (3698 <ResetReferencjiPradu+0x70>)
    3674:	18ad      	adds	r5, r5, r2
    3676:	18a4      	adds	r4, r4, r2
    3678:	1880      	adds	r0, r0, r2
    367a:	188a      	adds	r2, r1, r2
    367c:	2100      	movs	r1, #0
    367e:	e7e3      	b.n	3648 <ResetReferencjiPradu+0x20>
    3680:	bd30      	pop	{r4, r5, pc}
    3682:	bf00      	nop
    3684:	2000012c 	.word	0x2000012c
    3688:	20000ee4 	.word	0x20000ee4
    368c:	200019a4 	.word	0x200019a4
    3690:	200023b4 	.word	0x200023b4
    3694:	20001770 	.word	0x20001770
    3698:	20002530 	.word	0x20002530

0000369c <ResetReferencjiCylindra>:
	int i, j;

	if (wartosc == 0)
		wartosc = 1;

	p_cylinder_gora = p_cylinder_akt;
    369c:	4b18      	ldr	r3, [pc, #96]	; (3700 <ResetReferencjiCylindra+0x64>)

void ResetReferencjiCylindra(byte wartosc)
{
	int i, j;

	if (wartosc == 0)
    369e:	2800      	cmp	r0, #0
    36a0:	bf08      	it	eq
    36a2:	2001      	moveq	r0, #1
		wartosc = 1;

	p_cylinder_gora = p_cylinder_akt;
    36a4:	f893 2058 	ldrb.w	r2, [r3, #88]	; 0x58
    36a8:	f893 1059 	ldrb.w	r1, [r3, #89]	; 0x59
    36ac:	f893 c016 	ldrb.w	ip, [r3, #22]
    36b0:	ea42 2201 	orr.w	r2, r2, r1, lsl #8
    36b4:	f002 01ff 	and.w	r1, r2, #255	; 0xff
    36b8:	7599      	strb	r1, [r3, #22]
    36ba:	0a12      	lsrs	r2, r2, #8
    36bc:	7dd9      	ldrb	r1, [r3, #23]
    36be:	75da      	strb	r2, [r3, #23]
	p_ref_cnt_nakr = ref_nakr_cnt0 = wartosc;
    36c0:	4a10      	ldr	r2, [pc, #64]	; (3704 <ResetReferencjiCylindra+0x68>)
    36c2:	7090      	strb	r0, [r2, #2]
    36c4:	f000 00ff 	and.w	r0, r0, #255	; 0xff
    36c8:	7f1a      	ldrb	r2, [r3, #28]
    36ca:	7718      	strb	r0, [r3, #28]
    36cc:	7f5a      	ldrb	r2, [r3, #29]
    36ce:	2200      	movs	r2, #0
    36d0:	775a      	strb	r2, [r3, #29]
    36d2:	4613      	mov	r3, r2
    36d4:	e00b      	b.n	36ee <ResetReferencjiCylindra+0x52>

	for (i = 0; i < 16; i++)
	{
		for (j = 0; j < REF_TAB_SIZE; j++)
    36d6:	3201      	adds	r2, #1
		{
			RefTabCylinder[i][j] = 0;
    36d8:	f04f 0c00 	mov.w	ip, #0
	p_cylinder_gora = p_cylinder_akt;
	p_ref_cnt_nakr = ref_nakr_cnt0 = wartosc;

	for (i = 0; i < 16; i++)
	{
		for (j = 0; j < REF_TAB_SIZE; j++)
    36dc:	2a0b      	cmp	r2, #11
		{
			RefTabCylinder[i][j] = 0;
    36de:	f820 cb02 	strh.w	ip, [r0], #2
			RefTabWydmuch[i][j] = 0;
    36e2:	f821 cb02 	strh.w	ip, [r1], #2
	p_cylinder_gora = p_cylinder_akt;
	p_ref_cnt_nakr = ref_nakr_cnt0 = wartosc;

	for (i = 0; i < 16; i++)
	{
		for (j = 0; j < REF_TAB_SIZE; j++)
    36e6:	d1f6      	bne.n	36d6 <ResetReferencjiCylindra+0x3a>
		wartosc = 1;

	p_cylinder_gora = p_cylinder_akt;
	p_ref_cnt_nakr = ref_nakr_cnt0 = wartosc;

	for (i = 0; i < 16; i++)
    36e8:	3301      	adds	r3, #1
    36ea:	2b10      	cmp	r3, #16
    36ec:	d007      	beq.n	36fe <ResetReferencjiCylindra+0x62>
    36ee:	2116      	movs	r1, #22
    36f0:	4359      	muls	r1, r3
    36f2:	4a05      	ldr	r2, [pc, #20]	; (3708 <ResetReferencjiCylindra+0x6c>)
    36f4:	4805      	ldr	r0, [pc, #20]	; (370c <ResetReferencjiCylindra+0x70>)
    36f6:	1840      	adds	r0, r0, r1
    36f8:	1851      	adds	r1, r2, r1
    36fa:	2200      	movs	r2, #0
    36fc:	e7eb      	b.n	36d6 <ResetReferencjiCylindra+0x3a>
    36fe:	4770      	bx	lr
    3700:	20000ee4 	.word	0x20000ee4
    3704:	2000012c 	.word	0x2000012c
    3708:	20002178 	.word	0x20002178
    370c:	20002004 	.word	0x20002004

00003710 <RozkazAkcja>:

//*****************************************************************************
// Obsluga rozkazw bezporednich wysanych przez Modbusa
//*****************************************************************************
void RozkazAkcja(byte adres, byte wartosc)
{
    3710:	4603      	mov	r3, r0
	switch (adres)
    3712:	2b0d      	cmp	r3, #13

//*****************************************************************************
// Obsluga rozkazw bezporednich wysanych przez Modbusa
//*****************************************************************************
void RozkazAkcja(byte adres, byte wartosc)
{
    3714:	4608      	mov	r0, r1
	switch (adres)
    3716:	d002      	beq.n	371e <RozkazAkcja+0xe>
    3718:	2b0e      	cmp	r3, #14
    371a:	d135      	bne.n	3788 <RozkazAkcja+0x78>
    371c:	e017      	b.n	374e <RozkazAkcja+0x3e>
	//
	// Referencja prdu
	//
	case 0x0d:

		if (GET_REFERUJ_PRAD)
    371e:	4b1b      	ldr	r3, [pc, #108]	; (378c <RozkazAkcja+0x7c>)
    3720:	7e1a      	ldrb	r2, [r3, #24]
    3722:	7e59      	ldrb	r1, [r3, #25]
    3724:	f012 0f01 	tst.w	r2, #1
		{
			RESET_REFERUJ_PRAD;
    3728:	7e1a      	ldrb	r2, [r3, #24]
    372a:	7e59      	ldrb	r1, [r3, #25]
    372c:	ea42 2201 	orr.w	r2, r2, r1, lsl #8
	//
	// Referencja prdu
	//
	case 0x0d:

		if (GET_REFERUJ_PRAD)
    3730:	d002      	beq.n	3738 <RozkazAkcja+0x28>
		{
			RESET_REFERUJ_PRAD;
    3732:	f002 01fe 	and.w	r1, r2, #254	; 0xfe
    3736:	e016      	b.n	3766 <RozkazAkcja+0x56>
			//ResetReferencjiPradu(wartosc);
		}
		else
		{
			SET_REFERUJ_PRAD;
    3738:	f042 0201 	orr.w	r2, r2, #1
    373c:	f002 01ff 	and.w	r1, r2, #255	; 0xff
    3740:	f893 c018 	ldrb.w	ip, [r3, #24]
    3744:	7619      	strb	r1, [r3, #24]
    3746:	7e59      	ldrb	r1, [r3, #25]
    3748:	0a12      	lsrs	r2, r2, #8
    374a:	765a      	strb	r2, [r3, #25]
			ResetReferencjiPradu(wartosc);
    374c:	e76c      	b.n	3628 <ResetReferencjiPradu>

		//
		// Referencja nakrtek
		//
	case 0x0e:
		if (GET_REFERUJ_CYLINDER)
    374e:	4b0f      	ldr	r3, [pc, #60]	; (378c <RozkazAkcja+0x7c>)
    3750:	7e1a      	ldrb	r2, [r3, #24]
    3752:	7e59      	ldrb	r1, [r3, #25]
    3754:	f012 0f02 	tst.w	r2, #2
		{
			RESET_REFERUJ_CYLINDER;
    3758:	7e1a      	ldrb	r2, [r3, #24]
    375a:	7e59      	ldrb	r1, [r3, #25]
    375c:	ea42 2201 	orr.w	r2, r2, r1, lsl #8

		//
		// Referencja nakrtek
		//
	case 0x0e:
		if (GET_REFERUJ_CYLINDER)
    3760:	d007      	beq.n	3772 <RozkazAkcja+0x62>
		{
			RESET_REFERUJ_CYLINDER;
    3762:	f002 01fd 	and.w	r1, r2, #253	; 0xfd
    3766:	7e18      	ldrb	r0, [r3, #24]
    3768:	0a12      	lsrs	r2, r2, #8
    376a:	7619      	strb	r1, [r3, #24]
    376c:	7e59      	ldrb	r1, [r3, #25]
    376e:	765a      	strb	r2, [r3, #25]
    3770:	4770      	bx	lr
			//ResetReferencjiCylindra(wartosc);
		}
		else
		{
			SET_REFERUJ_CYLINDER;
    3772:	f042 0202 	orr.w	r2, r2, #2
    3776:	f002 01ff 	and.w	r1, r2, #255	; 0xff
    377a:	f893 c018 	ldrb.w	ip, [r3, #24]
    377e:	7619      	strb	r1, [r3, #24]
    3780:	7e59      	ldrb	r1, [r3, #25]
    3782:	0a12      	lsrs	r2, r2, #8
    3784:	765a      	strb	r2, [r3, #25]
			ResetReferencjiCylindra(wartosc);
    3786:	e789      	b.n	369c <ResetReferencjiCylindra>
    3788:	4770      	bx	lr
    378a:	bf00      	nop
    378c:	20000ee4 	.word	0x20000ee4

00003790 <Oblicz_Ref_Nakr>:
//*****************************************************************************
// Obliczanie redniej z pomiarw referencyjnych referowania
//*****************************************************************************

void Oblicz_Ref_Nakr()
{
    3790:	e92d 4ff0 	stmdb	sp!, {r4, r5, r6, r7, r8, r9, sl, fp, lr}
	int i, j;

	dword srednia_cylinder = 0, srednia_wydmuch = 0;
	word min_cyl, min_wyd, max_cyl, max_wyd;

	if (ref_nakr_cnt0 > 0)
    3794:	4ba9      	ldr	r3, [pc, #676]	; (3a3c <Oblicz_Ref_Nakr+0x2ac>)
//*****************************************************************************
// Obliczanie redniej z pomiarw referencyjnych referowania
//*****************************************************************************

void Oblicz_Ref_Nakr()
{
    3796:	b085      	sub	sp, #20
	int i, j;

	dword srednia_cylinder = 0, srednia_wydmuch = 0;
	word min_cyl, min_wyd, max_cyl, max_wyd;

	if (ref_nakr_cnt0 > 0)
    3798:	789e      	ldrb	r6, [r3, #2]
    379a:	2e00      	cmp	r6, #0
    379c:	f000 814b 	beq.w	3a36 <Oblicz_Ref_Nakr+0x2a6>
		min_wyd = min_cyl = 0xffff;
		max_wyd = max_cyl = 0;
		srednia_cylinder = 0;
		srednia_wydmuch = 0;

		for (j = p_ref_cnt_nakr - 1; j < ref_nakr_cnt0; j++)
    37a0:	4ba7      	ldr	r3, [pc, #668]	; (3a40 <Oblicz_Ref_Nakr+0x2b0>)
    37a2:	2000      	movs	r0, #0
    37a4:	7f1a      	ldrb	r2, [r3, #28]
    37a6:	7f5b      	ldrb	r3, [r3, #29]
    37a8:	f64f 71ff 	movw	r1, #65535	; 0xffff
    37ac:	ea42 2303 	orr.w	r3, r2, r3, lsl #8
    37b0:	9303      	str	r3, [sp, #12]
    37b2:	4604      	mov	r4, r0
    37b4:	4605      	mov	r5, r0
    37b6:	468c      	mov	ip, r1
    37b8:	9000      	str	r0, [sp, #0]
    37ba:	4680      	mov	r8, r0
    37bc:	468a      	mov	sl, r1
    37be:	e084      	b.n	38ca <Oblicz_Ref_Nakr+0x13a>
		{
			srednia_cylinder += RefTabCylinder[p_aktualny_program][j];
    37c0:	f893 1020 	ldrb.w	r1, [r3, #32]
    37c4:	f893 9021 	ldrb.w	r9, [r3, #33]	; 0x21
    37c8:	270b      	movs	r7, #11
    37ca:	ea41 2909 	orr.w	r9, r1, r9, lsl #8
    37ce:	fb07 2909 	mla	r9, r7, r9, r2
    37d2:	499c      	ldr	r1, [pc, #624]	; (3a44 <Oblicz_Ref_Nakr+0x2b4>)
    37d4:	f831 9019 	ldrh.w	r9, [r1, r9, lsl #1]
    37d8:	f8cd 9008 	str.w	r9, [sp, #8]
			srednia_wydmuch += RefTabWydmuch[p_aktualny_program][j];
    37dc:	f893 b020 	ldrb.w	fp, [r3, #32]
    37e0:	f893 9021 	ldrb.w	r9, [r3, #33]	; 0x21
    37e4:	ea4b 2b09 	orr.w	fp, fp, r9, lsl #8
    37e8:	fb07 2b0b 	mla	fp, r7, fp, r2
    37ec:	f8df 9258 	ldr.w	r9, [pc, #600]	; 3a48 <Oblicz_Ref_Nakr+0x2b8>
    37f0:	f839 b01b 	ldrh.w	fp, [r9, fp, lsl #1]
    37f4:	f8cd b004 	str.w	fp, [sp, #4]

			if (RefTabCylinder[p_aktualny_program][j] > max_cyl)
    37f8:	f893 b020 	ldrb.w	fp, [r3, #32]
    37fc:	f893 9021 	ldrb.w	r9, [r3, #33]	; 0x21
    3800:	ea4b 2909 	orr.w	r9, fp, r9, lsl #8
    3804:	fb07 2909 	mla	r9, r7, r9, r2
    3808:	f831 9019 	ldrh.w	r9, [r1, r9, lsl #1]
    380c:	45a9      	cmp	r9, r5
    380e:	d909      	bls.n	3824 <Oblicz_Ref_Nakr+0x94>
				max_cyl = RefTabCylinder[p_aktualny_program][j];
    3810:	f893 5020 	ldrb.w	r5, [r3, #32]
    3814:	f893 3021 	ldrb.w	r3, [r3, #33]	; 0x21
    3818:	ea45 2503 	orr.w	r5, r5, r3, lsl #8
    381c:	fb07 2505 	mla	r5, r7, r5, r2
    3820:	f831 5015 	ldrh.w	r5, [r1, r5, lsl #1]
			if (RefTabCylinder[p_aktualny_program][j] < min_cyl)
    3824:	4b86      	ldr	r3, [pc, #536]	; (3a40 <Oblicz_Ref_Nakr+0x2b0>)
    3826:	270b      	movs	r7, #11
    3828:	f893 1020 	ldrb.w	r1, [r3, #32]
    382c:	f893 9021 	ldrb.w	r9, [r3, #33]	; 0x21
    3830:	ea41 2909 	orr.w	r9, r1, r9, lsl #8
    3834:	fb07 2909 	mla	r9, r7, r9, r2
    3838:	4982      	ldr	r1, [pc, #520]	; (3a44 <Oblicz_Ref_Nakr+0x2b4>)
    383a:	f831 9019 	ldrh.w	r9, [r1, r9, lsl #1]
    383e:	45e1      	cmp	r9, ip
    3840:	d209      	bcs.n	3856 <Oblicz_Ref_Nakr+0xc6>
				min_cyl = RefTabCylinder[p_aktualny_program][j];
    3842:	f893 c020 	ldrb.w	ip, [r3, #32]
    3846:	f893 3021 	ldrb.w	r3, [r3, #33]	; 0x21
    384a:	ea4c 2c03 	orr.w	ip, ip, r3, lsl #8
    384e:	fb07 2c0c 	mla	ip, r7, ip, r2
    3852:	f831 c01c 	ldrh.w	ip, [r1, ip, lsl #1]

			if (RefTabWydmuch[p_aktualny_program][j] > max_wyd)
    3856:	4b7a      	ldr	r3, [pc, #488]	; (3a40 <Oblicz_Ref_Nakr+0x2b0>)
    3858:	270b      	movs	r7, #11
    385a:	f893 1020 	ldrb.w	r1, [r3, #32]
    385e:	f893 9021 	ldrb.w	r9, [r3, #33]	; 0x21
    3862:	ea41 2909 	orr.w	r9, r1, r9, lsl #8
    3866:	fb07 2909 	mla	r9, r7, r9, r2
    386a:	4977      	ldr	r1, [pc, #476]	; (3a48 <Oblicz_Ref_Nakr+0x2b8>)
    386c:	f831 9019 	ldrh.w	r9, [r1, r9, lsl #1]
    3870:	45a1      	cmp	r9, r4
    3872:	d909      	bls.n	3888 <Oblicz_Ref_Nakr+0xf8>
				max_wyd = RefTabWydmuch[p_aktualny_program][j];
    3874:	f893 4020 	ldrb.w	r4, [r3, #32]
    3878:	f893 3021 	ldrb.w	r3, [r3, #33]	; 0x21
    387c:	ea44 2403 	orr.w	r4, r4, r3, lsl #8
    3880:	fb07 2404 	mla	r4, r7, r4, r2
    3884:	f831 4014 	ldrh.w	r4, [r1, r4, lsl #1]
			if (RefTabWydmuch[p_aktualny_program][j] < min_wyd)
    3888:	4b6d      	ldr	r3, [pc, #436]	; (3a40 <Oblicz_Ref_Nakr+0x2b0>)
    388a:	270b      	movs	r7, #11
    388c:	f893 1020 	ldrb.w	r1, [r3, #32]
    3890:	f893 9021 	ldrb.w	r9, [r3, #33]	; 0x21
    3894:	ea41 2909 	orr.w	r9, r1, r9, lsl #8
    3898:	fb07 2909 	mla	r9, r7, r9, r2
    389c:	496a      	ldr	r1, [pc, #424]	; (3a48 <Oblicz_Ref_Nakr+0x2b8>)
    389e:	f831 9019 	ldrh.w	r9, [r1, r9, lsl #1]
    38a2:	45d1      	cmp	r9, sl
    38a4:	d209      	bcs.n	38ba <Oblicz_Ref_Nakr+0x12a>
				min_wyd = RefTabWydmuch[p_aktualny_program][j];
    38a6:	f893 a020 	ldrb.w	sl, [r3, #32]
    38aa:	f893 3021 	ldrb.w	r3, [r3, #33]	; 0x21
    38ae:	ea4a 2a03 	orr.w	sl, sl, r3, lsl #8
    38b2:	fb07 2a0a 	mla	sl, r7, sl, r2
    38b6:	f831 a01a 	ldrh.w	sl, [r1, sl, lsl #1]
		srednia_wydmuch = 0;

		for (j = p_ref_cnt_nakr - 1; j < ref_nakr_cnt0; j++)
		{
			srednia_cylinder += RefTabCylinder[p_aktualny_program][j];
			srednia_wydmuch += RefTabWydmuch[p_aktualny_program][j];
    38ba:	9b00      	ldr	r3, [sp, #0]
    38bc:	f8dd 9004 	ldr.w	r9, [sp, #4]
		srednia_cylinder = 0;
		srednia_wydmuch = 0;

		for (j = p_ref_cnt_nakr - 1; j < ref_nakr_cnt0; j++)
		{
			srednia_cylinder += RefTabCylinder[p_aktualny_program][j];
    38c0:	9a02      	ldr	r2, [sp, #8]
			srednia_wydmuch += RefTabWydmuch[p_aktualny_program][j];
    38c2:	444b      	add	r3, r9
		srednia_cylinder = 0;
		srednia_wydmuch = 0;

		for (j = p_ref_cnt_nakr - 1; j < ref_nakr_cnt0; j++)
		{
			srednia_cylinder += RefTabCylinder[p_aktualny_program][j];
    38c4:	4490      	add	r8, r2
			srednia_wydmuch += RefTabWydmuch[p_aktualny_program][j];
    38c6:	9300      	str	r3, [sp, #0]
    38c8:	3001      	adds	r0, #1
    38ca:	9b03      	ldr	r3, [sp, #12]
    38cc:	1e5a      	subs	r2, r3, #1
    38ce:	1812      	adds	r2, r2, r0
		min_wyd = min_cyl = 0xffff;
		max_wyd = max_cyl = 0;
		srednia_cylinder = 0;
		srednia_wydmuch = 0;

		for (j = p_ref_cnt_nakr - 1; j < ref_nakr_cnt0; j++)
    38d0:	42b2      	cmp	r2, r6
    38d2:	4b5b      	ldr	r3, [pc, #364]	; (3a40 <Oblicz_Ref_Nakr+0x2b0>)
    38d4:	f6ff af74 	blt.w	37c0 <Oblicz_Ref_Nakr+0x30>
				max_wyd = RefTabWydmuch[p_aktualny_program][j];
			if (RefTabWydmuch[p_aktualny_program][j] < min_wyd)
				min_wyd = RefTabWydmuch[p_aktualny_program][j];
		}

		srednia_cylinder /= (ref_nakr_cnt0 - p_ref_cnt_nakr + 1);
    38d8:	7f1a      	ldrb	r2, [r3, #28]
    38da:	7f58      	ldrb	r0, [r3, #29]
    38dc:	4651      	mov	r1, sl
    38de:	ea42 2000 	orr.w	r0, r2, r0, lsl #8
		srednia_wydmuch /= (ref_nakr_cnt0 - p_ref_cnt_nakr + 1);
    38e2:	7f1a      	ldrb	r2, [r3, #28]
    38e4:	f893 a01d 	ldrb.w	sl, [r3, #29]

		prog.PozycjaCylindraDol = par[p_aktualny_program].PozycjaCylindraDol
				= (word) srednia_cylinder;
    38e8:	f1c0 0001 	rsb	r0, r0, #1
    38ec:	1980      	adds	r0, r0, r6
			if (RefTabWydmuch[p_aktualny_program][j] < min_wyd)
				min_wyd = RefTabWydmuch[p_aktualny_program][j];
		}

		srednia_cylinder /= (ref_nakr_cnt0 - p_ref_cnt_nakr + 1);
		srednia_wydmuch /= (ref_nakr_cnt0 - p_ref_cnt_nakr + 1);
    38ee:	ea42 2a0a 	orr.w	sl, r2, sl, lsl #8

		prog.PozycjaCylindraDol = par[p_aktualny_program].PozycjaCylindraDol
    38f2:	f893 2020 	ldrb.w	r2, [r3, #32]
    38f6:	f893 7021 	ldrb.w	r7, [r3, #33]	; 0x21
				= (word) srednia_cylinder;
    38fa:	fbb8 f8f0 	udiv	r8, r8, r0
		}

		srednia_cylinder /= (ref_nakr_cnt0 - p_ref_cnt_nakr + 1);
		srednia_wydmuch /= (ref_nakr_cnt0 - p_ref_cnt_nakr + 1);

		prog.PozycjaCylindraDol = par[p_aktualny_program].PozycjaCylindraDol
    38fe:	4853      	ldr	r0, [pc, #332]	; (3a4c <Oblicz_Ref_Nakr+0x2bc>)
    3900:	ea42 2207 	orr.w	r2, r2, r7, lsl #8
    3904:	273c      	movs	r7, #60	; 0x3c
    3906:	fb07 0202 	mla	r2, r7, r2, r0
				= (word) srednia_cylinder;
    390a:	fa1f f888 	uxth.w	r8, r8
		}

		srednia_cylinder /= (ref_nakr_cnt0 - p_ref_cnt_nakr + 1);
		srednia_wydmuch /= (ref_nakr_cnt0 - p_ref_cnt_nakr + 1);

		prog.PozycjaCylindraDol = par[p_aktualny_program].PozycjaCylindraDol
    390e:	3210      	adds	r2, #16
    3910:	f008 09ff 	and.w	r9, r8, #255	; 0xff
    3914:	ea4f 2818 	mov.w	r8, r8, lsr #8
    3918:	f882 9003 	strb.w	r9, [r2, #3]
    391c:	f882 8004 	strb.w	r8, [r2, #4]
    3920:	4a4b      	ldr	r2, [pc, #300]	; (3a50 <Oblicz_Ref_Nakr+0x2c0>)
				= (word) srednia_cylinder;
		prog.KontrolaPrzezWydmuch
				= par[p_aktualny_program].KontrolaPrzezWydmuch
						= (word) srednia_wydmuch;
    3922:	f1ca 0a01 	rsb	sl, sl, #1
		}

		srednia_cylinder /= (ref_nakr_cnt0 - p_ref_cnt_nakr + 1);
		srednia_wydmuch /= (ref_nakr_cnt0 - p_ref_cnt_nakr + 1);

		prog.PozycjaCylindraDol = par[p_aktualny_program].PozycjaCylindraDol
    3926:	f882 9013 	strb.w	r9, [r2, #19]
    392a:	f882 8014 	strb.w	r8, [r2, #20]
				= (word) srednia_cylinder;
		prog.KontrolaPrzezWydmuch
				= par[p_aktualny_program].KontrolaPrzezWydmuch
    392e:	f893 8020 	ldrb.w	r8, [r3, #32]
    3932:	f893 9021 	ldrb.w	r9, [r3, #33]	; 0x21
						= (word) srednia_wydmuch;
    3936:	44b2      	add	sl, r6
		srednia_wydmuch /= (ref_nakr_cnt0 - p_ref_cnt_nakr + 1);

		prog.PozycjaCylindraDol = par[p_aktualny_program].PozycjaCylindraDol
				= (word) srednia_cylinder;
		prog.KontrolaPrzezWydmuch
				= par[p_aktualny_program].KontrolaPrzezWydmuch
    3938:	ea48 2809 	orr.w	r8, r8, r9, lsl #8
		srednia_cylinder /= (ref_nakr_cnt0 - p_ref_cnt_nakr + 1);
		srednia_wydmuch /= (ref_nakr_cnt0 - p_ref_cnt_nakr + 1);

		prog.PozycjaCylindraDol = par[p_aktualny_program].PozycjaCylindraDol
				= (word) srednia_cylinder;
		prog.KontrolaPrzezWydmuch
    393c:	fb07 0808 	mla	r8, r7, r8, r0
				= par[p_aktualny_program].KontrolaPrzezWydmuch
						= (word) srednia_wydmuch;
    3940:	f8dd 9000 	ldr.w	r9, [sp]
		srednia_cylinder /= (ref_nakr_cnt0 - p_ref_cnt_nakr + 1);
		srednia_wydmuch /= (ref_nakr_cnt0 - p_ref_cnt_nakr + 1);

		prog.PozycjaCylindraDol = par[p_aktualny_program].PozycjaCylindraDol
				= (word) srednia_cylinder;
		prog.KontrolaPrzezWydmuch
    3944:	f108 0818 	add.w	r8, r8, #24
				= par[p_aktualny_program].KontrolaPrzezWydmuch
						= (word) srednia_wydmuch;
    3948:	fbb9 fafa 	udiv	sl, r9, sl
		srednia_cylinder /= (ref_nakr_cnt0 - p_ref_cnt_nakr + 1);
		srednia_wydmuch /= (ref_nakr_cnt0 - p_ref_cnt_nakr + 1);

		prog.PozycjaCylindraDol = par[p_aktualny_program].PozycjaCylindraDol
				= (word) srednia_cylinder;
		prog.KontrolaPrzezWydmuch
    394c:	f8d8 9004 	ldr.w	r9, [r8, #4]
				= par[p_aktualny_program].KontrolaPrzezWydmuch
						= (word) srednia_wydmuch;
    3950:	fa1f fa8a 	uxth.w	sl, sl
		srednia_cylinder /= (ref_nakr_cnt0 - p_ref_cnt_nakr + 1);
		srednia_wydmuch /= (ref_nakr_cnt0 - p_ref_cnt_nakr + 1);

		prog.PozycjaCylindraDol = par[p_aktualny_program].PozycjaCylindraDol
				= (word) srednia_cylinder;
		prog.KontrolaPrzezWydmuch
    3954:	f36a 2917 	bfi	r9, sl, #8, #16
    3958:	f8c8 9004 	str.w	r9, [r8, #4]
    395c:	f8d2 801c 	ldr.w	r8, [r2, #28]
    3960:	f36a 2817 	bfi	r8, sl, #8, #16
    3964:	f8c2 801c 	str.w	r8, [r2, #28]
				= par[p_aktualny_program].KontrolaPrzezWydmuch
						= (word) srednia_wydmuch;

		if (GET_POMIAR_TOLERANCJI && ref_nakr_cnt0 > 1)
    3968:	f893 8018 	ldrb.w	r8, [r3, #24]
    396c:	f893 a019 	ldrb.w	sl, [r3, #25]
    3970:	ea5f 18d8 	movs.w	r8, r8, lsr #7
    3974:	d05f      	beq.n	3a36 <Oblicz_Ref_Nakr+0x2a6>
    3976:	2e01      	cmp	r6, #1
    3978:	d95d      	bls.n	3a36 <Oblicz_Ref_Nakr+0x2a6>
		{
			if ((max_cyl != 0) && (min_cyl != 0xffff) && (max_cyl >= min_cyl))
    397a:	b30d      	cbz	r5, 39c0 <Oblicz_Ref_Nakr+0x230>
    397c:	f64f 76ff 	movw	r6, #65535	; 0xffff
    3980:	45b4      	cmp	ip, r6
    3982:	d01d      	beq.n	39c0 <Oblicz_Ref_Nakr+0x230>
			{
				prog.PozycjaCylindraDolTolerancja
						= par[p_aktualny_program].PozycjaCylindraDolTolerancja
    3984:	f893 6020 	ldrb.w	r6, [r3, #32]
    3988:	f893 3021 	ldrb.w	r3, [r3, #33]	; 0x21
				= par[p_aktualny_program].KontrolaPrzezWydmuch
						= (word) srednia_wydmuch;

		if (GET_POMIAR_TOLERANCJI && ref_nakr_cnt0 > 1)
		{
			if ((max_cyl != 0) && (min_cyl != 0xffff) && (max_cyl >= min_cyl))
    398c:	4565      	cmp	r5, ip
			{
				prog.PozycjaCylindraDolTolerancja
						= par[p_aktualny_program].PozycjaCylindraDolTolerancja
    398e:	ea46 2303 	orr.w	r3, r6, r3, lsl #8
								= (max_cyl - min_cyl) * 2 / 3;
			}

			if ((max_cyl != 0) && (min_cyl != 0xffff) && (max_cyl < min_cyl))
			{
				prog.PozycjaCylindraDolTolerancja
    3992:	fb07 0003 	mla	r0, r7, r3, r0
		{
			if ((max_cyl != 0) && (min_cyl != 0xffff) && (max_cyl >= min_cyl))
			{
				prog.PozycjaCylindraDolTolerancja
						= par[p_aktualny_program].PozycjaCylindraDolTolerancja
								= (max_cyl - min_cyl) * 2 / 3;
    3996:	bf2c      	ite	cs
    3998:	ebcc 0c05 	rsbcs	ip, ip, r5

			if ((max_cyl != 0) && (min_cyl != 0xffff) && (max_cyl < min_cyl))
			{
				prog.PozycjaCylindraDolTolerancja
						= par[p_aktualny_program].PozycjaCylindraDolTolerancja
								= (min_cyl - max_cyl) * 2 / 3;
    399c:	ebc5 0c0c 	rsbcc	ip, r5, ip
    39a0:	ea4f 0c4c 	mov.w	ip, ip, lsl #1
								= (max_cyl - min_cyl) * 2 / 3;
			}

			if ((max_cyl != 0) && (min_cyl != 0xffff) && (max_cyl < min_cyl))
			{
				prog.PozycjaCylindraDolTolerancja
    39a4:	3010      	adds	r0, #16
						= par[p_aktualny_program].PozycjaCylindraDolTolerancja
								= (min_cyl - max_cyl) * 2 / 3;
    39a6:	2603      	movs	r6, #3
								= (max_cyl - min_cyl) * 2 / 3;
			}

			if ((max_cyl != 0) && (min_cyl != 0xffff) && (max_cyl < min_cyl))
			{
				prog.PozycjaCylindraDolTolerancja
    39a8:	6843      	ldr	r3, [r0, #4]
						= par[p_aktualny_program].PozycjaCylindraDolTolerancja
								= (min_cyl - max_cyl) * 2 / 3;
    39aa:	fb9c fcf6 	sdiv	ip, ip, r6
    39ae:	fa1f fc8c 	uxth.w	ip, ip
								= (max_cyl - min_cyl) * 2 / 3;
			}

			if ((max_cyl != 0) && (min_cyl != 0xffff) && (max_cyl < min_cyl))
			{
				prog.PozycjaCylindraDolTolerancja
    39b2:	f36c 2317 	bfi	r3, ip, #8, #16
    39b6:	6043      	str	r3, [r0, #4]
    39b8:	6953      	ldr	r3, [r2, #20]
    39ba:	f36c 2317 	bfi	r3, ip, #8, #16
    39be:	6153      	str	r3, [r2, #20]
						= par[p_aktualny_program].PozycjaCylindraDolTolerancja
								= (min_cyl - max_cyl) * 2 / 3;
			}

			if ((max_wyd != 0) && (min_wyd != 0xffff) && (max_wyd >= min_wyd))
    39c0:	2c00      	cmp	r4, #0
    39c2:	d038      	beq.n	3a36 <Oblicz_Ref_Nakr+0x2a6>
    39c4:	f64f 73ff 	movw	r3, #65535	; 0xffff
    39c8:	4299      	cmp	r1, r3
    39ca:	d034      	beq.n	3a36 <Oblicz_Ref_Nakr+0x2a6>
    39cc:	4b1c      	ldr	r3, [pc, #112]	; (3a40 <Oblicz_Ref_Nakr+0x2b0>)
    39ce:	428c      	cmp	r4, r1
    39d0:	481e      	ldr	r0, [pc, #120]	; (3a4c <Oblicz_Ref_Nakr+0x2bc>)
    39d2:	4a1f      	ldr	r2, [pc, #124]	; (3a50 <Oblicz_Ref_Nakr+0x2c0>)
			{
				prog.KontrolaPrzezWydmuchTol
						= par[p_aktualny_program].KontrolaPrzezWydmuchTol
    39d4:	f893 c020 	ldrb.w	ip, [r3, #32]
				prog.PozycjaCylindraDolTolerancja
						= par[p_aktualny_program].PozycjaCylindraDolTolerancja
								= (min_cyl - max_cyl) * 2 / 3;
			}

			if ((max_wyd != 0) && (min_wyd != 0xffff) && (max_wyd >= min_wyd))
    39d8:	d316      	bcc.n	3a08 <Oblicz_Ref_Nakr+0x278>
			{
				prog.KontrolaPrzezWydmuchTol
						= par[p_aktualny_program].KontrolaPrzezWydmuchTol
    39da:	f893 3021 	ldrb.w	r3, [r3, #33]	; 0x21
								= (max_wyd - min_wyd) * 2 / 3;
    39de:	2503      	movs	r5, #3
			}

			if ((max_wyd != 0) && (min_wyd != 0xffff) && (max_wyd >= min_wyd))
			{
				prog.KontrolaPrzezWydmuchTol
						= par[p_aktualny_program].KontrolaPrzezWydmuchTol
    39e0:	ea4c 2c03 	orr.w	ip, ip, r3, lsl #8
								= (max_wyd - min_wyd) * 2 / 3;
    39e4:	1a63      	subs	r3, r4, r1
    39e6:	005b      	lsls	r3, r3, #1
    39e8:	fb93 f3f5 	sdiv	r3, r3, r5
								= (min_cyl - max_cyl) * 2 / 3;
			}

			if ((max_wyd != 0) && (min_wyd != 0xffff) && (max_wyd >= min_wyd))
			{
				prog.KontrolaPrzezWydmuchTol
    39ec:	3539      	adds	r5, #57	; 0x39
    39ee:	fb05 000c 	mla	r0, r5, ip, r0
						= par[p_aktualny_program].KontrolaPrzezWydmuchTol
								= (max_wyd - min_wyd) * 2 / 3;
    39f2:	b29b      	uxth	r3, r3
								= (min_cyl - max_cyl) * 2 / 3;
			}

			if ((max_wyd != 0) && (min_wyd != 0xffff) && (max_wyd >= min_wyd))
			{
				prog.KontrolaPrzezWydmuchTol
    39f4:	f003 0cff 	and.w	ip, r3, #255	; 0xff
    39f8:	3018      	adds	r0, #24
    39fa:	0a1b      	lsrs	r3, r3, #8
    39fc:	f880 c007 	strb.w	ip, [r0, #7]
    3a00:	7203      	strb	r3, [r0, #8]
    3a02:	f882 c01f 	strb.w	ip, [r2, #31]
    3a06:	e014      	b.n	3a32 <Oblicz_Ref_Nakr+0x2a2>
			}

			if ((max_wyd != 0) && (min_wyd != 0xffff) && (max_wyd < min_wyd))
			{
				prog.KontrolaPrzezWydmuchTol
						= par[p_aktualny_program].KontrolaPrzezWydmuchTol
    3a08:	f893 5021 	ldrb.w	r5, [r3, #33]	; 0x21
								= (min_wyd - max_wyd) * 2 / 3;
    3a0c:	1b0b      	subs	r3, r1, r4
			}

			if ((max_wyd != 0) && (min_wyd != 0xffff) && (max_wyd < min_wyd))
			{
				prog.KontrolaPrzezWydmuchTol
						= par[p_aktualny_program].KontrolaPrzezWydmuchTol
    3a0e:	ea4c 2505 	orr.w	r5, ip, r5, lsl #8
								= (max_wyd - min_wyd) * 2 / 3;
			}

			if ((max_wyd != 0) && (min_wyd != 0xffff) && (max_wyd < min_wyd))
			{
				prog.KontrolaPrzezWydmuchTol
    3a12:	213c      	movs	r1, #60	; 0x3c
    3a14:	fb01 0505 	mla	r5, r1, r5, r0
						= par[p_aktualny_program].KontrolaPrzezWydmuchTol
								= (min_wyd - max_wyd) * 2 / 3;
    3a18:	005b      	lsls	r3, r3, #1
    3a1a:	f04f 0c03 	mov.w	ip, #3
    3a1e:	fb93 f3fc 	sdiv	r3, r3, ip
    3a22:	b29b      	uxth	r3, r3
								= (max_wyd - min_wyd) * 2 / 3;
			}

			if ((max_wyd != 0) && (min_wyd != 0xffff) && (max_wyd < min_wyd))
			{
				prog.KontrolaPrzezWydmuchTol
    3a24:	f003 00ff 	and.w	r0, r3, #255	; 0xff
    3a28:	3518      	adds	r5, #24
    3a2a:	0a1b      	lsrs	r3, r3, #8
    3a2c:	71e8      	strb	r0, [r5, #7]
    3a2e:	722b      	strb	r3, [r5, #8]
    3a30:	77d0      	strb	r0, [r2, #31]
    3a32:	f882 3020 	strb.w	r3, [r2, #32]
						= par[p_aktualny_program].KontrolaPrzezWydmuchTol
								= (min_wyd - max_wyd) * 2 / 3;
			}
		}
	}
}
    3a36:	b005      	add	sp, #20
    3a38:	e8bd 8ff0 	ldmia.w	sp!, {r4, r5, r6, r7, r8, r9, sl, fp, pc}
    3a3c:	2000012c 	.word	0x2000012c
    3a40:	20000ee4 	.word	0x20000ee4
    3a44:	20002004 	.word	0x20002004
    3a48:	20002178 	.word	0x20002178
    3a4c:	20001b40 	.word	0x20001b40
    3a50:	20001b04 	.word	0x20001b04

00003a54 <ReferujCylinder>:
// obliczjca redni
//*****************************************************************************

void ReferujCylinder()
{
	RefTabCylinder[p_aktualny_program][p_ref_cnt_nakr - 1] = p_cylinder_akt;
    3a54:	4b17      	ldr	r3, [pc, #92]	; (3ab4 <ReferujCylinder+0x60>)
    3a56:	f893 2020 	ldrb.w	r2, [r3, #32]
    3a5a:	f893 0021 	ldrb.w	r0, [r3, #33]	; 0x21
    3a5e:	ea42 2000 	orr.w	r0, r2, r0, lsl #8
    3a62:	7f1a      	ldrb	r2, [r3, #28]
    3a64:	7f59      	ldrb	r1, [r3, #29]
    3a66:	ea42 2101 	orr.w	r1, r2, r1, lsl #8
    3a6a:	f893 2058 	ldrb.w	r2, [r3, #88]	; 0x58
    3a6e:	f893 c059 	ldrb.w	ip, [r3, #89]	; 0x59
    3a72:	ea42 2c0c 	orr.w	ip, r2, ip, lsl #8
    3a76:	220b      	movs	r2, #11
    3a78:	fb02 1000 	mla	r0, r2, r0, r1
    3a7c:	490e      	ldr	r1, [pc, #56]	; (3ab8 <ReferujCylinder+0x64>)
    3a7e:	3801      	subs	r0, #1
    3a80:	f821 c010 	strh.w	ip, [r1, r0, lsl #1]
	RefTabWydmuch[p_aktualny_program][p_ref_cnt_nakr - 1] = p_wydmuch_akt;
    3a84:	f893 1020 	ldrb.w	r1, [r3, #32]
    3a88:	f893 c021 	ldrb.w	ip, [r3, #33]	; 0x21
    3a8c:	ea41 2c0c 	orr.w	ip, r1, ip, lsl #8
    3a90:	7f19      	ldrb	r1, [r3, #28]
    3a92:	7f58      	ldrb	r0, [r3, #29]
    3a94:	ea41 2000 	orr.w	r0, r1, r0, lsl #8
    3a98:	fb02 020c 	mla	r2, r2, ip, r0
    3a9c:	f893 105a 	ldrb.w	r1, [r3, #90]	; 0x5a
    3aa0:	f893 305b 	ldrb.w	r3, [r3, #91]	; 0x5b
    3aa4:	3a01      	subs	r2, #1
    3aa6:	ea41 2103 	orr.w	r1, r1, r3, lsl #8
    3aaa:	4b04      	ldr	r3, [pc, #16]	; (3abc <ReferujCylinder+0x68>)
    3aac:	f823 1012 	strh.w	r1, [r3, r2, lsl #1]
	Oblicz_Ref_Nakr();
    3ab0:	e66e      	b.n	3790 <Oblicz_Ref_Nakr>
    3ab2:	bf00      	nop
    3ab4:	20000ee4 	.word	0x20000ee4
    3ab8:	20002004 	.word	0x20002004
    3abc:	20002178 	.word	0x20002178

00003ac0 <Oblicz_Ref_Prad>:
		}
	}
}

void Oblicz_Ref_Prad()
{
    3ac0:	e92d 4ff0 	stmdb	sp!, {r4, r5, r6, r7, r8, r9, sl, fp, lr}
	int i, j;

	dword srednia_wtop = 0, srednia_prad = 0, srednia_napiecie = 0,
			srednia_energia = 0;

	if (ref_prad_cnt0 > 0)
    3ac4:	4b4a      	ldr	r3, [pc, #296]	; (3bf0 <Oblicz_Ref_Prad+0x130>)
    3ac6:	785a      	ldrb	r2, [r3, #1]
    3ac8:	2a00      	cmp	r2, #0
    3aca:	f000 808e 	beq.w	3bea <Oblicz_Ref_Prad+0x12a>
		srednia_wtop = 0;
		srednia_prad = 0;
		srednia_napiecie = 0;
		srednia_energia = 0;

		for (j = p_ref_cnt_prad - 1; j < ref_prad_cnt0; j++)
    3ace:	4949      	ldr	r1, [pc, #292]	; (3bf4 <Oblicz_Ref_Prad+0x134>)
		{
			srednia_wtop += RefTabWtopienie[ostatni_program][j];
    3ad0:	f893 b003 	ldrb.w	fp, [r3, #3]
		srednia_wtop = 0;
		srednia_prad = 0;
		srednia_napiecie = 0;
		srednia_energia = 0;

		for (j = p_ref_cnt_prad - 1; j < ref_prad_cnt0; j++)
    3ad4:	7e88      	ldrb	r0, [r1, #26]
    3ad6:	f891 a01b 	ldrb.w	sl, [r1, #27]
		{
			srednia_wtop += RefTabWtopienie[ostatni_program][j];
    3ada:	250b      	movs	r5, #11
		srednia_wtop = 0;
		srednia_prad = 0;
		srednia_napiecie = 0;
		srednia_energia = 0;

		for (j = p_ref_cnt_prad - 1; j < ref_prad_cnt0; j++)
    3adc:	ea40 2a0a 	orr.w	sl, r0, sl, lsl #8
		{
			srednia_wtop += RefTabWtopienie[ostatni_program][j];
    3ae0:	f10a 33ff 	add.w	r3, sl, #4294967295
    3ae4:	fb05 350b 	mla	r5, r5, fp, r3
    3ae8:	4b43      	ldr	r3, [pc, #268]	; (3bf8 <Oblicz_Ref_Prad+0x138>)
    3aea:	006d      	lsls	r5, r5, #1
    3aec:	eb03 0805 	add.w	r8, r3, r5
    3af0:	4f42      	ldr	r7, [pc, #264]	; (3bfc <Oblicz_Ref_Prad+0x13c>)
    3af2:	4b43      	ldr	r3, [pc, #268]	; (3c00 <Oblicz_Ref_Prad+0x140>)
    3af4:	4e43      	ldr	r6, [pc, #268]	; (3c04 <Oblicz_Ref_Prad+0x144>)
    3af6:	197f      	adds	r7, r7, r5
    3af8:	1976      	adds	r6, r6, r5
    3afa:	195d      	adds	r5, r3, r5
    3afc:	2300      	movs	r3, #0
    3afe:	461c      	mov	r4, r3
    3b00:	4619      	mov	r1, r3
    3b02:	4618      	mov	r0, r3
    3b04:	469c      	mov	ip, r3
		srednia_wtop = 0;
		srednia_prad = 0;
		srednia_napiecie = 0;
		srednia_energia = 0;

		for (j = p_ref_cnt_prad - 1; j < ref_prad_cnt0; j++)
    3b06:	e00b      	b.n	3b20 <Oblicz_Ref_Prad+0x60>
		{
			srednia_wtop += RefTabWtopienie[ostatni_program][j];
    3b08:	f838 9c02 	ldrh.w	r9, [r8, #-2]
    3b0c:	444c      	add	r4, r9
			srednia_prad += RefTabPrad[ostatni_program][j];
    3b0e:	f837 9c02 	ldrh.w	r9, [r7, #-2]
    3b12:	44cc      	add	ip, r9
			srednia_napiecie += RefTabNapiecie[ostatni_program][j];
    3b14:	f836 9c02 	ldrh.w	r9, [r6, #-2]
    3b18:	4448      	add	r0, r9
			srednia_energia += RefTabEnergia[ostatni_program][j];
    3b1a:	f835 9c02 	ldrh.w	r9, [r5, #-2]
    3b1e:	4449      	add	r1, r9
		srednia_wtop = 0;
		srednia_prad = 0;
		srednia_napiecie = 0;
		srednia_energia = 0;

		for (j = p_ref_cnt_prad - 1; j < ref_prad_cnt0; j++)
    3b20:	3301      	adds	r3, #1
    3b22:	f1aa 0902 	sub.w	r9, sl, #2
    3b26:	4499      	add	r9, r3
    3b28:	3702      	adds	r7, #2
    3b2a:	3602      	adds	r6, #2
    3b2c:	3502      	adds	r5, #2
    3b2e:	4591      	cmp	r9, r2
    3b30:	f108 0802 	add.w	r8, r8, #2
    3b34:	dbe8      	blt.n	3b08 <Oblicz_Ref_Prad+0x48>
			srednia_prad += RefTabPrad[ostatni_program][j];
			srednia_napiecie += RefTabNapiecie[ostatni_program][j];
			srednia_energia += RefTabEnergia[ostatni_program][j];
		}

		srednia_wtop /= (ref_prad_cnt0 - p_ref_cnt_prad + 1);
    3b36:	4b2f      	ldr	r3, [pc, #188]	; (3bf4 <Oblicz_Ref_Prad+0x134>)
    3b38:	7e9d      	ldrb	r5, [r3, #26]
    3b3a:	f893 801b 	ldrb.w	r8, [r3, #27]
    3b3e:	ea45 2808 	orr.w	r8, r5, r8, lsl #8
		srednia_prad /= (ref_prad_cnt0 - p_ref_cnt_prad + 1);
    3b42:	7e9d      	ldrb	r5, [r3, #26]
    3b44:	7ede      	ldrb	r6, [r3, #27]
		srednia_napiecie /= (ref_prad_cnt0 - p_ref_cnt_prad + 1);
		srednia_energia /= (ref_prad_cnt0 - p_ref_cnt_prad + 1);

		prog.Wtopienie = par[ostatni_program].Wtopienie = (word) srednia_wtop
    3b46:	f1c8 0801 	rsb	r8, r8, #1
			srednia_napiecie += RefTabNapiecie[ostatni_program][j];
			srednia_energia += RefTabEnergia[ostatni_program][j];
		}

		srednia_wtop /= (ref_prad_cnt0 - p_ref_cnt_prad + 1);
		srednia_prad /= (ref_prad_cnt0 - p_ref_cnt_prad + 1);
    3b4a:	ea45 2506 	orr.w	r5, r5, r6, lsl #8
		srednia_napiecie /= (ref_prad_cnt0 - p_ref_cnt_prad + 1);
    3b4e:	7e9e      	ldrb	r6, [r3, #26]
    3b50:	7edf      	ldrb	r7, [r3, #27]
		srednia_energia /= (ref_prad_cnt0 - p_ref_cnt_prad + 1);

		prog.Wtopienie = par[ostatni_program].Wtopienie = (word) srednia_wtop
    3b52:	4490      	add	r8, r2
			srednia_energia += RefTabEnergia[ostatni_program][j];
		}

		srednia_wtop /= (ref_prad_cnt0 - p_ref_cnt_prad + 1);
		srednia_prad /= (ref_prad_cnt0 - p_ref_cnt_prad + 1);
		srednia_napiecie /= (ref_prad_cnt0 - p_ref_cnt_prad + 1);
    3b54:	ea46 2707 	orr.w	r7, r6, r7, lsl #8
		srednia_energia /= (ref_prad_cnt0 - p_ref_cnt_prad + 1);

		prog.Wtopienie = par[ostatni_program].Wtopienie = (word) srednia_wtop
    3b58:	fbb4 f8f8 	udiv	r8, r4, r8
		}

		srednia_wtop /= (ref_prad_cnt0 - p_ref_cnt_prad + 1);
		srednia_prad /= (ref_prad_cnt0 - p_ref_cnt_prad + 1);
		srednia_napiecie /= (ref_prad_cnt0 - p_ref_cnt_prad + 1);
		srednia_energia /= (ref_prad_cnt0 - p_ref_cnt_prad + 1);
    3b5c:	7e9e      	ldrb	r6, [r3, #26]
    3b5e:	7edb      	ldrb	r3, [r3, #27]

		prog.Wtopienie = par[ostatni_program].Wtopienie = (word) srednia_wtop
    3b60:	fa1f f888 	uxth.w	r8, r8
		}

		srednia_wtop /= (ref_prad_cnt0 - p_ref_cnt_prad + 1);
		srednia_prad /= (ref_prad_cnt0 - p_ref_cnt_prad + 1);
		srednia_napiecie /= (ref_prad_cnt0 - p_ref_cnt_prad + 1);
		srednia_energia /= (ref_prad_cnt0 - p_ref_cnt_prad + 1);
    3b64:	ea46 2603 	orr.w	r6, r6, r3, lsl #8

		prog.Wtopienie = par[ostatni_program].Wtopienie = (word) srednia_wtop
    3b68:	ea4f 0848 	mov.w	r8, r8, lsl #1
    3b6c:	2303      	movs	r3, #3
    3b6e:	fb98 f8f3 	sdiv	r8, r8, r3
    3b72:	4b25      	ldr	r3, [pc, #148]	; (3c08 <Oblicz_Ref_Prad+0x148>)
    3b74:	243c      	movs	r4, #60	; 0x3c
    3b76:	fb04 340b 	mla	r4, r4, fp, r3
    3b7a:	fa1f f888 	uxth.w	r8, r8
    3b7e:	f104 0310 	add.w	r3, r4, #16
    3b82:	f008 0aff 	and.w	sl, r8, #255	; 0xff
    3b86:	ea4f 2818 	mov.w	r8, r8, lsr #8
    3b8a:	f883 a007 	strb.w	sl, [r3, #7]
    3b8e:	f883 8008 	strb.w	r8, [r3, #8]
    3b92:	4b1e      	ldr	r3, [pc, #120]	; (3c0c <Oblicz_Ref_Prad+0x14c>)
				* 2 / 3;
		prog.Iref = par[ostatni_program].Iref = (word) srednia_prad;
    3b94:	f1c5 0501 	rsb	r5, r5, #1
		srednia_wtop /= (ref_prad_cnt0 - p_ref_cnt_prad + 1);
		srednia_prad /= (ref_prad_cnt0 - p_ref_cnt_prad + 1);
		srednia_napiecie /= (ref_prad_cnt0 - p_ref_cnt_prad + 1);
		srednia_energia /= (ref_prad_cnt0 - p_ref_cnt_prad + 1);

		prog.Wtopienie = par[ostatni_program].Wtopienie = (word) srednia_wtop
    3b98:	f883 a017 	strb.w	sl, [r3, #23]
    3b9c:	f883 8018 	strb.w	r8, [r3, #24]
				* 2 / 3;
		prog.Iref = par[ostatni_program].Iref = (word) srednia_prad;
    3ba0:	18ad      	adds	r5, r5, r2
    3ba2:	fbbc fcf5 	udiv	ip, ip, r5
    3ba6:	6a25      	ldr	r5, [r4, #32]
    3ba8:	fa1f fc8c 	uxth.w	ip, ip
    3bac:	f36c 2517 	bfi	r5, ip, #8, #16
    3bb0:	6225      	str	r5, [r4, #32]
		prog.Uref = par[ostatni_program].Uref = (word) srednia_napiecie;
    3bb2:	f1c7 0701 	rsb	r7, r7, #1
		prog.Eref = par[ostatni_program].Eref = (word) srednia_energia;
    3bb6:	f1c6 0601 	rsb	r6, r6, #1
		srednia_napiecie /= (ref_prad_cnt0 - p_ref_cnt_prad + 1);
		srednia_energia /= (ref_prad_cnt0 - p_ref_cnt_prad + 1);

		prog.Wtopienie = par[ostatni_program].Wtopienie = (word) srednia_wtop
				* 2 / 3;
		prog.Iref = par[ostatni_program].Iref = (word) srednia_prad;
    3bba:	6a1d      	ldr	r5, [r3, #32]
		prog.Uref = par[ostatni_program].Uref = (word) srednia_napiecie;
    3bbc:	18bf      	adds	r7, r7, r2
		prog.Eref = par[ostatni_program].Eref = (word) srednia_energia;
    3bbe:	18b2      	adds	r2, r6, r2
		srednia_energia /= (ref_prad_cnt0 - p_ref_cnt_prad + 1);

		prog.Wtopienie = par[ostatni_program].Wtopienie = (word) srednia_wtop
				* 2 / 3;
		prog.Iref = par[ostatni_program].Iref = (word) srednia_prad;
		prog.Uref = par[ostatni_program].Uref = (word) srednia_napiecie;
    3bc0:	fbb0 f0f7 	udiv	r0, r0, r7
		prog.Eref = par[ostatni_program].Eref = (word) srednia_energia;
    3bc4:	fbb1 f1f2 	udiv	r1, r1, r2
		srednia_energia /= (ref_prad_cnt0 - p_ref_cnt_prad + 1);

		prog.Wtopienie = par[ostatni_program].Wtopienie = (word) srednia_wtop
				* 2 / 3;
		prog.Iref = par[ostatni_program].Iref = (word) srednia_prad;
		prog.Uref = par[ostatni_program].Uref = (word) srednia_napiecie;
    3bc8:	b280      	uxth	r0, r0
		prog.Eref = par[ostatni_program].Eref = (word) srednia_energia;
    3bca:	b289      	uxth	r1, r1
		srednia_napiecie /= (ref_prad_cnt0 - p_ref_cnt_prad + 1);
		srednia_energia /= (ref_prad_cnt0 - p_ref_cnt_prad + 1);

		prog.Wtopienie = par[ostatni_program].Wtopienie = (word) srednia_wtop
				* 2 / 3;
		prog.Iref = par[ostatni_program].Iref = (word) srednia_prad;
    3bcc:	f36c 2517 	bfi	r5, ip, #8, #16
    3bd0:	621d      	str	r5, [r3, #32]
		prog.Uref = par[ostatni_program].Uref = (word) srednia_napiecie;
    3bd2:	84e0      	strh	r0, [r4, #38]	; 0x26
    3bd4:	84d8      	strh	r0, [r3, #38]	; 0x26
		prog.Eref = par[ostatni_program].Eref = (word) srednia_energia;
    3bd6:	3428      	adds	r4, #40	; 0x28
    3bd8:	f001 00ff 	and.w	r0, r1, #255	; 0xff
    3bdc:	0a09      	lsrs	r1, r1, #8
    3bde:	70e0      	strb	r0, [r4, #3]
    3be0:	7121      	strb	r1, [r4, #4]
    3be2:	f883 002b 	strb.w	r0, [r3, #43]	; 0x2b
    3be6:	f883 102c 	strb.w	r1, [r3, #44]	; 0x2c
    3bea:	e8bd 8ff0 	ldmia.w	sp!, {r4, r5, r6, r7, r8, r9, sl, fp, pc}
    3bee:	bf00      	nop
    3bf0:	2000012c 	.word	0x2000012c
    3bf4:	20000ee4 	.word	0x20000ee4
    3bf8:	200023b4 	.word	0x200023b4
    3bfc:	20001770 	.word	0x20001770
    3c00:	200019a4 	.word	0x200019a4
    3c04:	20002530 	.word	0x20002530
    3c08:	20001b40 	.word	0x20001b40
    3c0c:	20001b04 	.word	0x20001b04

00003c10 <ReferujPrad>:
	RefTabWydmuch[p_aktualny_program][p_ref_cnt_nakr - 1] = p_wydmuch_akt;
	Oblicz_Ref_Nakr();
}

void ReferujPrad()
{
    3c10:	e92d 41f0 	stmdb	sp!, {r4, r5, r6, r7, r8, lr}
	RefTabWtopienie[ostatni_program][p_ref_cnt_prad - 1] = wtop;
    3c14:	4d1b      	ldr	r5, [pc, #108]	; (3c84 <ReferujPrad+0x74>)
    3c16:	4c1c      	ldr	r4, [pc, #112]	; (3c88 <ReferujPrad+0x78>)
    3c18:	78eb      	ldrb	r3, [r5, #3]
    3c1a:	260b      	movs	r6, #11
    3c1c:	7ea2      	ldrb	r2, [r4, #26]
    3c1e:	435e      	muls	r6, r3
    3c20:	7ee1      	ldrb	r1, [r4, #27]
    3c22:	4b1a      	ldr	r3, [pc, #104]	; (3c8c <ReferujPrad+0x7c>)
    3c24:	ea42 2201 	orr.w	r2, r2, r1, lsl #8
    3c28:	4919      	ldr	r1, [pc, #100]	; (3c90 <ReferujPrad+0x80>)
    3c2a:	18b2      	adds	r2, r6, r2
    3c2c:	8809      	ldrh	r1, [r1, #0]
    3c2e:	3a01      	subs	r2, #1
    3c30:	f823 1012 	strh.w	r1, [r3, r2, lsl #1]
	RefTabPrad[ostatni_program][p_ref_cnt_prad - 1] = prad_akt;
    3c34:	7ea3      	ldrb	r3, [r4, #26]
    3c36:	7ee7      	ldrb	r7, [r4, #27]
    3c38:	6868      	ldr	r0, [r5, #4]
    3c3a:	ea43 2707 	orr.w	r7, r3, r7, lsl #8
    3c3e:	f005 fa75 	bl	912c <__aeabi_f2uiz>
    3c42:	19f7      	adds	r7, r6, r7
    3c44:	4b13      	ldr	r3, [pc, #76]	; (3c94 <ReferujPrad+0x84>)
    3c46:	3f01      	subs	r7, #1
    3c48:	f823 0017 	strh.w	r0, [r3, r7, lsl #1]
	RefTabNapiecie[ostatni_program][p_ref_cnt_prad - 1] = nap_akt;
    3c4c:	7ea3      	ldrb	r3, [r4, #26]
    3c4e:	7ee7      	ldrb	r7, [r4, #27]
    3c50:	68a8      	ldr	r0, [r5, #8]
    3c52:	ea43 2707 	orr.w	r7, r3, r7, lsl #8
    3c56:	f005 fa69 	bl	912c <__aeabi_f2uiz>
    3c5a:	19f7      	adds	r7, r6, r7
    3c5c:	4b0e      	ldr	r3, [pc, #56]	; (3c98 <ReferujPrad+0x88>)
    3c5e:	3f01      	subs	r7, #1
    3c60:	f823 0017 	strh.w	r0, [r3, r7, lsl #1]
	RefTabEnergia[ostatni_program][p_ref_cnt_prad - 1] = energia_akt;
    3c64:	7ea3      	ldrb	r3, [r4, #26]
    3c66:	7ee2      	ldrb	r2, [r4, #27]
    3c68:	68e8      	ldr	r0, [r5, #12]
    3c6a:	ea43 2302 	orr.w	r3, r3, r2, lsl #8
    3c6e:	18f6      	adds	r6, r6, r3
    3c70:	f005 fa5c 	bl	912c <__aeabi_f2uiz>
    3c74:	4b09      	ldr	r3, [pc, #36]	; (3c9c <ReferujPrad+0x8c>)
    3c76:	3e01      	subs	r6, #1
    3c78:	f823 0016 	strh.w	r0, [r3, r6, lsl #1]
	Oblicz_Ref_Prad();
}
    3c7c:	e8bd 41f0 	ldmia.w	sp!, {r4, r5, r6, r7, r8, lr}
{
	RefTabWtopienie[ostatni_program][p_ref_cnt_prad - 1] = wtop;
	RefTabPrad[ostatni_program][p_ref_cnt_prad - 1] = prad_akt;
	RefTabNapiecie[ostatni_program][p_ref_cnt_prad - 1] = nap_akt;
	RefTabEnergia[ostatni_program][p_ref_cnt_prad - 1] = energia_akt;
	Oblicz_Ref_Prad();
    3c80:	e71e      	b.n	3ac0 <Oblicz_Ref_Prad>
    3c82:	bf00      	nop
    3c84:	2000012c 	.word	0x2000012c
    3c88:	20000ee4 	.word	0x20000ee4
    3c8c:	200023b4 	.word	0x200023b4
    3c90:	20002514 	.word	0x20002514
    3c94:	20001770 	.word	0x20001770
    3c98:	20002530 	.word	0x20002530
    3c9c:	200019a4 	.word	0x200019a4

00003ca0 <WynikiZgrzewania>:
//*****************************************************************************
// Opracowanie wynikw po zgrzewaniu
// Np. warto prdu
//*****************************************************************************
bool WynikiZgrzewania(void)
{
    3ca0:	e92d 41f0 	stmdb	sp!, {r4, r5, r6, r7, r8, lr}
	bool retval = true;

	pomiar_prad = pomiar_polokres_prad / pomiar_numer_zmierzonego_polokresu;
    3ca4:	4ab4      	ldr	r2, [pc, #720]	; (3f78 <WynikiZgrzewania+0x2d8>)
    3ca6:	4bb5      	ldr	r3, [pc, #724]	; (3f7c <WynikiZgrzewania+0x2dc>)
    3ca8:	6810      	ldr	r0, [r2, #0]
	pomiar_nap = pomiar_polokres_nap / pomiar_numer_zmierzonego_polokresu;
    3caa:	4ab5      	ldr	r2, [pc, #724]	; (3f80 <WynikiZgrzewania+0x2e0>)
//*****************************************************************************
bool WynikiZgrzewania(void)
{
	bool retval = true;

	pomiar_prad = pomiar_polokres_prad / pomiar_numer_zmierzonego_polokresu;
    3cac:	781b      	ldrb	r3, [r3, #0]
	pomiar_nap = pomiar_polokres_nap / pomiar_numer_zmierzonego_polokresu;
    3cae:	6812      	ldr	r2, [r2, #0]
//*****************************************************************************
bool WynikiZgrzewania(void)
{
	bool retval = true;

	pomiar_prad = pomiar_polokres_prad / pomiar_numer_zmierzonego_polokresu;
    3cb0:	fbb0 f0f3 	udiv	r0, r0, r3
    3cb4:	49b3      	ldr	r1, [pc, #716]	; (3f84 <WynikiZgrzewania+0x2e4>)
	pomiar_nap = pomiar_polokres_nap / pomiar_numer_zmierzonego_polokresu;
    3cb6:	4cb4      	ldr	r4, [pc, #720]	; (3f88 <WynikiZgrzewania+0x2e8>)
    3cb8:	fbb2 f2f3 	udiv	r2, r2, r3

	// Wyeliminowanie malego plywania wejsc
	// !!!!!!!!!!
	// Sprawdzi
	// !!!!!!!!!!
	if (pomiar_prad < GRANICA_BRAK_PRZEPLYWU_PRADU)
    3cbc:	2863      	cmp	r0, #99	; 0x63
//*****************************************************************************
bool WynikiZgrzewania(void)
{
	bool retval = true;

	pomiar_prad = pomiar_polokres_prad / pomiar_numer_zmierzonego_polokresu;
    3cbe:	6008      	str	r0, [r1, #0]
	pomiar_nap = pomiar_polokres_nap / pomiar_numer_zmierzonego_polokresu;
    3cc0:	6022      	str	r2, [r4, #0]

	// Wyeliminowanie malego plywania wejsc
	// !!!!!!!!!!
	// Sprawdzi
	// !!!!!!!!!!
	if (pomiar_prad < GRANICA_BRAK_PRZEPLYWU_PRADU)
    3cc2:	d801      	bhi.n	3cc8 <WynikiZgrzewania+0x28>
		pomiar_prad = 0;
    3cc4:	2000      	movs	r0, #0
    3cc6:	6008      	str	r0, [r1, #0]

	if (pomiar_nap < GRANICA_BRAK_NAPIECIA_WTORNEGO)
    3cc8:	2a63      	cmp	r2, #99	; 0x63
    3cca:	d802      	bhi.n	3cd2 <WynikiZgrzewania+0x32>
		pomiar_nap = 0;
    3ccc:	4aae      	ldr	r2, [pc, #696]	; (3f88 <WynikiZgrzewania+0x2e8>)
    3cce:	2100      	movs	r1, #0
    3cd0:	6011      	str	r1, [r2, #0]

	pomiar_energia = (pomiar_prad * pomiar_nap / 100000)
    3cd2:	49ad      	ldr	r1, [pc, #692]	; (3f88 <WynikiZgrzewania+0x2e8>)
    3cd4:	4aab      	ldr	r2, [pc, #684]	; (3f84 <WynikiZgrzewania+0x2e4>)
    3cd6:	680c      	ldr	r4, [r1, #0]
    3cd8:	6812      	ldr	r2, [r2, #0]
    3cda:	49ac      	ldr	r1, [pc, #688]	; (3f8c <WynikiZgrzewania+0x2ec>)
    3cdc:	fb02 f004 	mul.w	r0, r2, r4
    3ce0:	fbb0 f0f1 	udiv	r0, r0, r1
    3ce4:	4358      	muls	r0, r3
			* pomiar_numer_zmierzonego_polokresu;

	p_ostzgrzew_nr_prog = ostatni_program;
    3ce6:	49a5      	ldr	r1, [pc, #660]	; (3f7c <WynikiZgrzewania+0x2dc>)
		pomiar_prad = 0;

	if (pomiar_nap < GRANICA_BRAK_NAPIECIA_WTORNEGO)
		pomiar_nap = 0;

	pomiar_energia = (pomiar_prad * pomiar_nap / 100000)
    3ce8:	4ba9      	ldr	r3, [pc, #676]	; (3f90 <WynikiZgrzewania+0x2f0>)
			* pomiar_numer_zmierzonego_polokresu;

	p_ostzgrzew_nr_prog = ostatni_program;
    3cea:	f891 c003 	ldrb.w	ip, [r1, #3]
		pomiar_prad = 0;

	if (pomiar_nap < GRANICA_BRAK_NAPIECIA_WTORNEGO)
		pomiar_nap = 0;

	pomiar_energia = (pomiar_prad * pomiar_nap / 100000)
    3cee:	6018      	str	r0, [r3, #0]
			* pomiar_numer_zmierzonego_polokresu;

	p_ostzgrzew_nr_prog = ostatni_program;
    3cf0:	4ba8      	ldr	r3, [pc, #672]	; (3f94 <WynikiZgrzewania+0x2f4>)
    3cf2:	f00c 0eff 	and.w	lr, ip, #255	; 0xff
    3cf6:	f893 5022 	ldrb.w	r5, [r3, #34]	; 0x22
    3cfa:	f883 e022 	strb.w	lr, [r3, #34]	; 0x22
    3cfe:	f893 e023 	ldrb.w	lr, [r3, #35]	; 0x23
	p_ostzgrzew_prad = prad_zgrzewania;
    3d02:	4da5      	ldr	r5, [pc, #660]	; (3f98 <WynikiZgrzewania+0x2f8>)
		pomiar_nap = 0;

	pomiar_energia = (pomiar_prad * pomiar_nap / 100000)
			* pomiar_numer_zmierzonego_polokresu;

	p_ostzgrzew_nr_prog = ostatni_program;
    3d04:	f04f 0e00 	mov.w	lr, #0
    3d08:	f883 e023 	strb.w	lr, [r3, #35]	; 0x23
	p_ostzgrzew_prad = prad_zgrzewania;
    3d0c:	f8b5 e000 	ldrh.w	lr, [r5]
	par[ostatni_program].Iakt = p_ostzgrzew_pom_prad = (word) pomiar_prad;
    3d10:	b292      	uxth	r2, r2

	pomiar_energia = (pomiar_prad * pomiar_nap / 100000)
			* pomiar_numer_zmierzonego_polokresu;

	p_ostzgrzew_nr_prog = ostatni_program;
	p_ostzgrzew_prad = prad_zgrzewania;
    3d12:	fa1f fe8e 	uxth.w	lr, lr
    3d16:	f00e 05ff 	and.w	r5, lr, #255	; 0xff
    3d1a:	f893 6024 	ldrb.w	r6, [r3, #36]	; 0x24
    3d1e:	ea4f 2e1e 	mov.w	lr, lr, lsr #8
    3d22:	f883 5024 	strb.w	r5, [r3, #36]	; 0x24
    3d26:	f893 5025 	ldrb.w	r5, [r3, #37]	; 0x25
    3d2a:	f883 e025 	strb.w	lr, [r3, #37]	; 0x25
	par[ostatni_program].Iakt = p_ostzgrzew_pom_prad = (word) pomiar_prad;
    3d2e:	f002 0eff 	and.w	lr, r2, #255	; 0xff
    3d32:	f893 5026 	ldrb.w	r5, [r3, #38]	; 0x26
    3d36:	0a12      	lsrs	r2, r2, #8
    3d38:	f883 e026 	strb.w	lr, [r3, #38]	; 0x26
    3d3c:	f893 e027 	ldrb.w	lr, [r3, #39]	; 0x27
    3d40:	f883 2027 	strb.w	r2, [r3, #39]	; 0x27
    3d44:	f893 2026 	ldrb.w	r2, [r3, #38]	; 0x26
    3d48:	f893 e027 	ldrb.w	lr, [r3, #39]	; 0x27
    3d4c:	253c      	movs	r5, #60	; 0x3c
    3d4e:	ea42 2e0e 	orr.w	lr, r2, lr, lsl #8
    3d52:	4a92      	ldr	r2, [pc, #584]	; (3f9c <WynikiZgrzewania+0x2fc>)
	par[ostatni_program].Uakt = p_ostzgrzew_pom_nap = (word) pomiar_nap;
	par[ostatni_program].Eakt = p_ostzgrzew_pom_ener = (word) (pomiar_energia); // >> 16);
    3d54:	b280      	uxth	r0, r0
	pomiar_energia = (pomiar_prad * pomiar_nap / 100000)
			* pomiar_numer_zmierzonego_polokresu;

	p_ostzgrzew_nr_prog = ostatni_program;
	p_ostzgrzew_prad = prad_zgrzewania;
	par[ostatni_program].Iakt = p_ostzgrzew_pom_prad = (word) pomiar_prad;
    3d56:	fb05 220c 	mla	r2, r5, ip, r2
	par[ostatni_program].Uakt = p_ostzgrzew_pom_nap = (word) pomiar_nap;
    3d5a:	fa1f fc84 	uxth.w	ip, r4
	pomiar_energia = (pomiar_prad * pomiar_nap / 100000)
			* pomiar_numer_zmierzonego_polokresu;

	p_ostzgrzew_nr_prog = ostatni_program;
	p_ostzgrzew_prad = prad_zgrzewania;
	par[ostatni_program].Iakt = p_ostzgrzew_pom_prad = (word) pomiar_prad;
    3d5e:	f8a2 e024 	strh.w	lr, [r2, #36]	; 0x24
	par[ostatni_program].Uakt = p_ostzgrzew_pom_nap = (word) pomiar_nap;
    3d62:	f00c 0eff 	and.w	lr, ip, #255	; 0xff
    3d66:	f893 4028 	ldrb.w	r4, [r3, #40]	; 0x28
    3d6a:	ea4f 2c1c 	mov.w	ip, ip, lsr #8
    3d6e:	f883 e028 	strb.w	lr, [r3, #40]	; 0x28
    3d72:	f893 e029 	ldrb.w	lr, [r3, #41]	; 0x29
    3d76:	f883 c029 	strb.w	ip, [r3, #41]	; 0x29
    3d7a:	f893 c028 	ldrb.w	ip, [r3, #40]	; 0x28
    3d7e:	f893 e029 	ldrb.w	lr, [r3, #41]	; 0x29
    3d82:	6a94      	ldr	r4, [r2, #40]	; 0x28
    3d84:	ea4c 2c0e 	orr.w	ip, ip, lr, lsl #8
    3d88:	f36c 2417 	bfi	r4, ip, #8, #16
    3d8c:	6294      	str	r4, [r2, #40]	; 0x28
	par[ostatni_program].Eakt = p_ostzgrzew_pom_ener = (word) (pomiar_energia); // >> 16);
    3d8e:	f000 0cff 	and.w	ip, r0, #255	; 0xff
    3d92:	f893 e02a 	ldrb.w	lr, [r3, #42]	; 0x2a
    3d96:	0a00      	lsrs	r0, r0, #8
    3d98:	f883 c02a 	strb.w	ip, [r3, #42]	; 0x2a
    3d9c:	f893 c02b 	ldrb.w	ip, [r3, #43]	; 0x2b
    3da0:	f883 002b 	strb.w	r0, [r3, #43]	; 0x2b
    3da4:	f893 002a 	ldrb.w	r0, [r3, #42]	; 0x2a
    3da8:	f893 c02b 	ldrb.w	ip, [r3, #43]	; 0x2b
    3dac:	ea40 200c 	orr.w	r0, r0, ip, lsl #8
    3db0:	85d0      	strh	r0, [r2, #46]	; 0x2e

	// WTOPIENIE

	p_ostzgrzew_pom_wtop = wtop;
    3db2:	4a7b      	ldr	r2, [pc, #492]	; (3fa0 <WynikiZgrzewania+0x300>)
    3db4:	f893 c02c 	ldrb.w	ip, [r3, #44]	; 0x2c
    3db8:	8812      	ldrh	r2, [r2, #0]
    3dba:	f002 00ff 	and.w	r0, r2, #255	; 0xff
    3dbe:	f883 002c 	strb.w	r0, [r3, #44]	; 0x2c
    3dc2:	0a12      	lsrs	r2, r2, #8
    3dc4:	f893 002d 	ldrb.w	r0, [r3, #45]	; 0x2d
    3dc8:	f883 202d 	strb.w	r2, [r3, #45]	; 0x2d

	if (GET_REFERUJ_CYLINDER == false && z_pradem)
    3dcc:	7e1a      	ldrb	r2, [r3, #24]
    3dce:	7e58      	ldrb	r0, [r3, #25]
    3dd0:	f002 0202 	and.w	r2, r2, #2
    3dd4:	1055      	asrs	r5, r2, #1
    3dd6:	b992      	cbnz	r2, 3dfe <WynikiZgrzewania+0x15e>
    3dd8:	7c0a      	ldrb	r2, [r1, #16]
    3dda:	b182      	cbz	r2, 3dfe <WynikiZgrzewania+0x15e>
	{
		// Wtopienie za mae
		if (p_ostzgrzew_pom_wtop < prog.Wtopienie)
    3ddc:	f893 202c 	ldrb.w	r2, [r3, #44]	; 0x2c
    3de0:	f893 302d 	ldrb.w	r3, [r3, #45]	; 0x2d
    3de4:	ea42 2203 	orr.w	r2, r2, r3, lsl #8
    3de8:	4b6e      	ldr	r3, [pc, #440]	; (3fa4 <WynikiZgrzewania+0x304>)
    3dea:	7dd9      	ldrb	r1, [r3, #23]
    3dec:	7e1b      	ldrb	r3, [r3, #24]
    3dee:	ea41 2303 	orr.w	r3, r1, r3, lsl #8
    3df2:	429a      	cmp	r2, r3
    3df4:	d203      	bcs.n	3dfe <WynikiZgrzewania+0x15e>
		{
			retval = false;
			ZaklocenieSet(ERR_BRAK_WTOPIENIA);
    3df6:	2010      	movs	r0, #16
    3df8:	f7fe ffaa 	bl	2d50 <ZaklocenieSet>
    3dfc:	e000      	b.n	3e00 <WynikiZgrzewania+0x160>
    3dfe:	2501      	movs	r5, #1
		}
	}

	// PRAD

	prad_akt = (float) (par[ostatni_program].Iakt);
    3e00:	4c5e      	ldr	r4, [pc, #376]	; (3f7c <WynikiZgrzewania+0x2dc>)
    3e02:	4b66      	ldr	r3, [pc, #408]	; (3f9c <WynikiZgrzewania+0x2fc>)
    3e04:	78e2      	ldrb	r2, [r4, #3]
    3e06:	263c      	movs	r6, #60	; 0x3c
    3e08:	fb06 3602 	mla	r6, r6, r2, r3
    3e0c:	f106 0820 	add.w	r8, r6, #32
    3e10:	f8b8 0004 	ldrh.w	r0, [r8, #4]
    3e14:	f004 ff46 	bl	8ca4 <__aeabi_ui2f>
    3e18:	6060      	str	r0, [r4, #4]
	prad_zad = (float) (par[ostatni_program].Iref);
    3e1a:	6a30      	ldr	r0, [r6, #32]
    3e1c:	f3c0 200f 	ubfx	r0, r0, #8, #16
    3e20:	f004 ff40 	bl	8ca4 <__aeabi_ui2f>
    3e24:	6160      	str	r0, [r4, #20]
    3e26:	4607      	mov	r7, r0
	prad_tol = prad_zad * (float) (par[ostatni_program].IrefTolerancja)
    3e28:	f898 0003 	ldrb.w	r0, [r8, #3]
    3e2c:	f004 ff3a 	bl	8ca4 <__aeabi_ui2f>
    3e30:	4601      	mov	r1, r0
    3e32:	4638      	mov	r0, r7
    3e34:	f004 ff8e 	bl	8d54 <__aeabi_fmul>
    3e38:	495b      	ldr	r1, [pc, #364]	; (3fa8 <WynikiZgrzewania+0x308>)
    3e3a:	f005 f83f 	bl	8ebc <__aeabi_fdiv>
    3e3e:	61a0      	str	r0, [r4, #24]
			/ 100.0f;

	nap_akt = (float) (par[ostatni_program].Uakt);
    3e40:	6ab0      	ldr	r0, [r6, #40]	; 0x28
    3e42:	f106 0728 	add.w	r7, r6, #40	; 0x28
    3e46:	f3c0 200f 	ubfx	r0, r0, #8, #16
    3e4a:	f004 ff2b 	bl	8ca4 <__aeabi_ui2f>
    3e4e:	60a0      	str	r0, [r4, #8]
	nap_zad = (float) (par[ostatni_program].Uref);
    3e50:	f8b8 0006 	ldrh.w	r0, [r8, #6]
    3e54:	f004 ff26 	bl	8ca4 <__aeabi_ui2f>
    3e58:	61e0      	str	r0, [r4, #28]
    3e5a:	4680      	mov	r8, r0
	nap_tol = nap_zad * (float) (par[ostatni_program].UrefTolerancja) / 100.0f;
    3e5c:	f896 0028 	ldrb.w	r0, [r6, #40]	; 0x28
    3e60:	f004 ff20 	bl	8ca4 <__aeabi_ui2f>
    3e64:	4601      	mov	r1, r0
    3e66:	4640      	mov	r0, r8
    3e68:	f004 ff74 	bl	8d54 <__aeabi_fmul>
    3e6c:	494e      	ldr	r1, [pc, #312]	; (3fa8 <WynikiZgrzewania+0x308>)
    3e6e:	f005 f825 	bl	8ebc <__aeabi_fdiv>
    3e72:	6220      	str	r0, [r4, #32]

	energia_akt = (float) (par[ostatni_program].Eakt);
    3e74:	88f8      	ldrh	r0, [r7, #6]
    3e76:	f004 ff15 	bl	8ca4 <__aeabi_ui2f>
    3e7a:	60e0      	str	r0, [r4, #12]
	energia_zad = (float) (par[ostatni_program].Eref);
    3e7c:	78fb      	ldrb	r3, [r7, #3]
    3e7e:	7938      	ldrb	r0, [r7, #4]
    3e80:	ea43 2000 	orr.w	r0, r3, r0, lsl #8
    3e84:	f004 ff0e 	bl	8ca4 <__aeabi_ui2f>
    3e88:	6260      	str	r0, [r4, #36]	; 0x24
    3e8a:	4606      	mov	r6, r0
	energia_tol = energia_zad * (float) (par[ostatni_program].ErefTolerancja)
    3e8c:	7978      	ldrb	r0, [r7, #5]
    3e8e:	f004 ff09 	bl	8ca4 <__aeabi_ui2f>
    3e92:	4601      	mov	r1, r0
    3e94:	4630      	mov	r0, r6
    3e96:	f004 ff5d 	bl	8d54 <__aeabi_fmul>
    3e9a:	4943      	ldr	r1, [pc, #268]	; (3fa8 <WynikiZgrzewania+0x308>)
    3e9c:	f005 f80e 	bl	8ebc <__aeabi_fdiv>
			/ 100.0f;

	if (GET_REFERUJ_PRAD == false && z_pradem)
    3ea0:	4b3c      	ldr	r3, [pc, #240]	; (3f94 <WynikiZgrzewania+0x2f4>)
	nap_zad = (float) (par[ostatni_program].Uref);
	nap_tol = nap_zad * (float) (par[ostatni_program].UrefTolerancja) / 100.0f;

	energia_akt = (float) (par[ostatni_program].Eakt);
	energia_zad = (float) (par[ostatni_program].Eref);
	energia_tol = energia_zad * (float) (par[ostatni_program].ErefTolerancja)
    3ea2:	62a0      	str	r0, [r4, #40]	; 0x28
			/ 100.0f;

	if (GET_REFERUJ_PRAD == false && z_pradem)
    3ea4:	7e1e      	ldrb	r6, [r3, #24]
    3ea6:	7e5a      	ldrb	r2, [r3, #25]
    3ea8:	f016 0601 	ands.w	r6, r6, #1
    3eac:	d17e      	bne.n	3fac <WynikiZgrzewania+0x30c>
    3eae:	7c22      	ldrb	r2, [r4, #16]
    3eb0:	2a00      	cmp	r2, #0
    3eb2:	d07b      	beq.n	3fac <WynikiZgrzewania+0x30c>
	{
		// Brak przeplywu pradu
		if (p_ostzgrzew_pom_prad < GRANICA_BRAK_PRZEPLYWU_PRADU)
    3eb4:	f893 2026 	ldrb.w	r2, [r3, #38]	; 0x26
    3eb8:	f893 3027 	ldrb.w	r3, [r3, #39]	; 0x27
    3ebc:	ea42 2303 	orr.w	r3, r2, r3, lsl #8
    3ec0:	2b63      	cmp	r3, #99	; 0x63
    3ec2:	d803      	bhi.n	3ecc <WynikiZgrzewania+0x22c>
		{
			retval = false;
			ZaklocenieSet(ERR_BRAK_PRZEPYWU_PRADU);
    3ec4:	200f      	movs	r0, #15
    3ec6:	f7fe ff43 	bl	2d50 <ZaklocenieSet>
    3eca:	4635      	mov	r5, r6
		//retval = false;
		//ZaklocenieSet(ERR_BRAK_NAP_WTORNEGO);
		//}

		// Prad za duy
		if (prad_akt > (prad_zad + prad_tol))
    3ecc:	4c2b      	ldr	r4, [pc, #172]	; (3f7c <WynikiZgrzewania+0x2dc>)
    3ece:	69a1      	ldr	r1, [r4, #24]
    3ed0:	6960      	ldr	r0, [r4, #20]
    3ed2:	f004 fe37 	bl	8b44 <__addsf3>
    3ed6:	4601      	mov	r1, r0
    3ed8:	6860      	ldr	r0, [r4, #4]
    3eda:	f005 f8f7 	bl	90cc <__aeabi_fcmpgt>
    3ede:	b118      	cbz	r0, 3ee8 <WynikiZgrzewania+0x248>
		{
			retval = false;
			ZaklocenieSet(ERR_PRAD_DUZO);
    3ee0:	200a      	movs	r0, #10
    3ee2:	f7fe ff35 	bl	2d50 <ZaklocenieSet>
    3ee6:	2500      	movs	r5, #0
		}

		// Prad za may
		if (prad_akt < (prad_zad - prad_tol))
    3ee8:	4c24      	ldr	r4, [pc, #144]	; (3f7c <WynikiZgrzewania+0x2dc>)
    3eea:	69a1      	ldr	r1, [r4, #24]
    3eec:	6960      	ldr	r0, [r4, #20]
    3eee:	f004 fe27 	bl	8b40 <__aeabi_fsub>
    3ef2:	4601      	mov	r1, r0
    3ef4:	6860      	ldr	r0, [r4, #4]
    3ef6:	f005 f8cb 	bl	9090 <__aeabi_fcmplt>
    3efa:	b118      	cbz	r0, 3f04 <WynikiZgrzewania+0x264>
		{
			retval = false;
			ZaklocenieSet(ERR_PRAD_MALO);
    3efc:	2009      	movs	r0, #9
    3efe:	f7fe ff27 	bl	2d50 <ZaklocenieSet>
    3f02:	2500      	movs	r5, #0
		}

		// Napicie za due
		if (nap_akt > (nap_zad + nap_tol))
    3f04:	4c1d      	ldr	r4, [pc, #116]	; (3f7c <WynikiZgrzewania+0x2dc>)
    3f06:	6a21      	ldr	r1, [r4, #32]
    3f08:	69e0      	ldr	r0, [r4, #28]
    3f0a:	f004 fe1b 	bl	8b44 <__addsf3>
    3f0e:	4601      	mov	r1, r0
    3f10:	68a0      	ldr	r0, [r4, #8]
    3f12:	f005 f8db 	bl	90cc <__aeabi_fcmpgt>
    3f16:	b118      	cbz	r0, 3f20 <WynikiZgrzewania+0x280>
		{
			retval = false;
			ZaklocenieSet(ERR_NAP_DUZO);
    3f18:	200c      	movs	r0, #12
    3f1a:	f7fe ff19 	bl	2d50 <ZaklocenieSet>
    3f1e:	2500      	movs	r5, #0
		}

		// Napicie za mae
		if (nap_akt < (nap_zad - nap_tol))
    3f20:	4c16      	ldr	r4, [pc, #88]	; (3f7c <WynikiZgrzewania+0x2dc>)
    3f22:	6a21      	ldr	r1, [r4, #32]
    3f24:	69e0      	ldr	r0, [r4, #28]
    3f26:	f004 fe0b 	bl	8b40 <__aeabi_fsub>
    3f2a:	4601      	mov	r1, r0
    3f2c:	68a0      	ldr	r0, [r4, #8]
    3f2e:	f005 f8af 	bl	9090 <__aeabi_fcmplt>
    3f32:	b118      	cbz	r0, 3f3c <WynikiZgrzewania+0x29c>
		{
			retval = false;
			ZaklocenieSet(ERR_NAP_MALO);
    3f34:	200b      	movs	r0, #11
    3f36:	f7fe ff0b 	bl	2d50 <ZaklocenieSet>
    3f3a:	2500      	movs	r5, #0
		}

		// Energia za dua
		if (energia_akt > (energia_zad + energia_tol))
    3f3c:	4c0f      	ldr	r4, [pc, #60]	; (3f7c <WynikiZgrzewania+0x2dc>)
    3f3e:	6aa1      	ldr	r1, [r4, #40]	; 0x28
    3f40:	6a60      	ldr	r0, [r4, #36]	; 0x24
    3f42:	f004 fdff 	bl	8b44 <__addsf3>
    3f46:	4601      	mov	r1, r0
    3f48:	68e0      	ldr	r0, [r4, #12]
    3f4a:	f005 f8bf 	bl	90cc <__aeabi_fcmpgt>
    3f4e:	b118      	cbz	r0, 3f58 <WynikiZgrzewania+0x2b8>
		{
			retval = false;
			ZaklocenieSet(ERR_ENERGIA_DUZO);
    3f50:	2008      	movs	r0, #8
    3f52:	f7fe fefd 	bl	2d50 <ZaklocenieSet>
    3f56:	2500      	movs	r5, #0
		}

		// Energia za maa
		if (energia_akt < (energia_zad - energia_tol))
    3f58:	4c08      	ldr	r4, [pc, #32]	; (3f7c <WynikiZgrzewania+0x2dc>)
    3f5a:	6aa1      	ldr	r1, [r4, #40]	; 0x28
    3f5c:	6a60      	ldr	r0, [r4, #36]	; 0x24
    3f5e:	f004 fdef 	bl	8b40 <__aeabi_fsub>
    3f62:	4601      	mov	r1, r0
    3f64:	68e0      	ldr	r0, [r4, #12]
    3f66:	f005 f893 	bl	9090 <__aeabi_fcmplt>
    3f6a:	b320      	cbz	r0, 3fb6 <WynikiZgrzewania+0x316>
		{
			retval = false;
			ZaklocenieSet(ERR_ENERGIA_MALO);
    3f6c:	2007      	movs	r0, #7
    3f6e:	f7fe feef 	bl	2d50 <ZaklocenieSet>
    3f72:	2500      	movs	r5, #0
    3f74:	e01f      	b.n	3fb6 <WynikiZgrzewania+0x316>
    3f76:	bf00      	nop
    3f78:	20002528 	.word	0x20002528
    3f7c:	2000012c 	.word	0x2000012c
    3f80:	20001f30 	.word	0x20001f30
    3f84:	200018d0 	.word	0x200018d0
    3f88:	20001f0c 	.word	0x20001f0c
    3f8c:	000186a0 	.word	0x000186a0
    3f90:	20001f38 	.word	0x20001f38
    3f94:	20000ee4 	.word	0x20000ee4
    3f98:	20001694 	.word	0x20001694
    3f9c:	20001b40 	.word	0x20001b40
    3fa0:	20002514 	.word	0x20002514
    3fa4:	20001b04 	.word	0x20001b04
    3fa8:	42c80000 	.word	0x42c80000
		}

	}
	else if (z_pradem)
    3fac:	4b03      	ldr	r3, [pc, #12]	; (3fbc <WynikiZgrzewania+0x31c>)
    3fae:	7c1b      	ldrb	r3, [r3, #16]
    3fb0:	b10b      	cbz	r3, 3fb6 <WynikiZgrzewania+0x316>
	{
		ReferujPrad();
    3fb2:	f7ff fe2d 	bl	3c10 <ReferujPrad>
	}

	return retval;
}
    3fb6:	4628      	mov	r0, r5
    3fb8:	e8bd 81f0 	ldmia.w	sp!, {r4, r5, r6, r7, r8, pc}
    3fbc:	2000012c 	.word	0x2000012c

00003fc0 <KontrolaDynamiczna_OdczytKonfiguracji>:
//*****************************************************************************
// Odczyt konfiguracji czujnikw z cyklu i ustsawienie zmiennych w celu szukania
// pniejeszego na odpowiednich bitach
//*****************************************************************************
void KontrolaDynamiczna_OdczytKonfiguracji(void)
{
    3fc0:	2300      	movs	r3, #0
    3fc2:	b5f0      	push	{r4, r5, r6, r7, lr}
    3fc4:	4618      	mov	r0, r3
    3fc6:	469c      	mov	ip, r3
    3fc8:	e028      	b.n	401c <KontrolaDynamiczna_OdczytKonfiguracji+0x5c>

	for (i = 0; i < LICZBA_PROGRAMOW; i++)
	{
		for (j = 0; j < 16; j++)
		{
		if ((par[i].CzujnikiStartKonfig & (1 << j)) > 0
    3fca:	2201      	movs	r2, #1
    3fcc:	408a      	lsls	r2, r1
    3fce:	4232      	tst	r2, r6
    3fd0:	d00e      	beq.n	3ff0 <KontrolaDynamiczna_OdczytKonfiguracji+0x30>
				&& (par[i].CzujnikiStartSygnaly & (1 << j)) > 0)
    3fd2:	4c1e      	ldr	r4, [pc, #120]	; (404c <KontrolaDynamiczna_OdczytKonfiguracji+0x8c>)
    3fd4:	273c      	movs	r7, #60	; 0x3c
    3fd6:	fb07 4403 	mla	r4, r7, r3, r4
    3fda:	8e64      	ldrh	r4, [r4, #50]	; 0x32

	for (i = 0; i < LICZBA_PROGRAMOW; i++)
	{
		for (j = 0; j < 16; j++)
		{
		if ((par[i].CzujnikiStartKonfig & (1 << j)) > 0
    3fdc:	4222      	tst	r2, r4
    3fde:	d02a      	beq.n	4036 <KontrolaDynamiczna_OdczytKonfiguracji+0x76>
				&& (par[i].CzujnikiStartSygnaly & (1 << j)) > 0)
			kontrola_dyn_konfig_1 |= (1 << j);
    3fe0:	ea42 0c0c 	orr.w	ip, r2, ip
    3fe4:	fa1f fc8c 	uxth.w	ip, ip
    3fe8:	e025      	b.n	4036 <KontrolaDynamiczna_OdczytKonfiguracji+0x76>

		if ((par[i].CzujnikiStartKonfig & (1 << j)) > 0
				&& (par[i].CzujnikiStartSygnaly & (1 << j)) == 0)
			kontrola_dyn_konfig_0 |= (1 << j);
    3fea:	ea42 0000 	orr.w	r0, r2, r0
    3fee:	b280      	uxth	r0, r0

		if ((par[i].CzujnikiDKKonfig & (1 << j)) > 0
    3ff0:	422a      	tst	r2, r5
    3ff2:	d00d      	beq.n	4010 <KontrolaDynamiczna_OdczytKonfiguracji+0x50>
				&& (par[i].CzujnikiDKSygnaly & (1 << j)) > 0)
    3ff4:	4c15      	ldr	r4, [pc, #84]	; (404c <KontrolaDynamiczna_OdczytKonfiguracji+0x8c>)
    3ff6:	273c      	movs	r7, #60	; 0x3c
    3ff8:	fb07 4403 	mla	r4, r7, r3, r4
    3ffc:	8ee4      	ldrh	r4, [r4, #54]	; 0x36

		if ((par[i].CzujnikiStartKonfig & (1 << j)) > 0
				&& (par[i].CzujnikiStartSygnaly & (1 << j)) == 0)
			kontrola_dyn_konfig_0 |= (1 << j);

		if ((par[i].CzujnikiDKKonfig & (1 << j)) > 0
    3ffe:	4222      	tst	r2, r4
    4000:	d01e      	beq.n	4040 <KontrolaDynamiczna_OdczytKonfiguracji+0x80>
				&& (par[i].CzujnikiDKSygnaly & (1 << j)) > 0)
			kontrola_dyn_konfig_1 |= (1 << j);
    4002:	ea4c 0c02 	orr.w	ip, ip, r2
    4006:	fa1f fc8c 	uxth.w	ip, ip
    400a:	e019      	b.n	4040 <KontrolaDynamiczna_OdczytKonfiguracji+0x80>

		if ((par[i].CzujnikiDKKonfig & (1 << j)) > 0
				&& (par[i].CzujnikiDKSygnaly & (1 << j)) == 0)
			kontrola_dyn_konfig_0 |= (1 << j);
    400c:	4310      	orrs	r0, r2
    400e:	b280      	uxth	r0, r0
    4010:	3101      	adds	r1, #1
	kontrola_dyn_konfig_1 = 0;
	kontrola_dyn_konfig_0 = 0;

	for (i = 0; i < LICZBA_PROGRAMOW; i++)
	{
		for (j = 0; j < 16; j++)
    4012:	2910      	cmp	r1, #16
    4014:	d1d9      	bne.n	3fca <KontrolaDynamiczna_OdczytKonfiguracji+0xa>
    4016:	3301      	adds	r3, #1
	byte i,j;

	kontrola_dyn_konfig_1 = 0;
	kontrola_dyn_konfig_0 = 0;

	for (i = 0; i < LICZBA_PROGRAMOW; i++)
    4018:	2b0f      	cmp	r3, #15
    401a:	d007      	beq.n	402c <KontrolaDynamiczna_OdczytKonfiguracji+0x6c>
	{
		for (j = 0; j < 16; j++)
		{
		if ((par[i].CzujnikiStartKonfig & (1 << j)) > 0
    401c:	4a0b      	ldr	r2, [pc, #44]	; (404c <KontrolaDynamiczna_OdczytKonfiguracji+0x8c>)
    401e:	213c      	movs	r1, #60	; 0x3c
    4020:	fb01 2203 	mla	r2, r1, r3, r2

		if ((par[i].CzujnikiStartKonfig & (1 << j)) > 0
				&& (par[i].CzujnikiStartSygnaly & (1 << j)) == 0)
			kontrola_dyn_konfig_0 |= (1 << j);

		if ((par[i].CzujnikiDKKonfig & (1 << j)) > 0
    4024:	393c      	subs	r1, #60	; 0x3c

	for (i = 0; i < LICZBA_PROGRAMOW; i++)
	{
		for (j = 0; j < 16; j++)
		{
		if ((par[i].CzujnikiStartKonfig & (1 << j)) > 0
    4026:	8e16      	ldrh	r6, [r2, #48]	; 0x30

		if ((par[i].CzujnikiStartKonfig & (1 << j)) > 0
				&& (par[i].CzujnikiStartSygnaly & (1 << j)) == 0)
			kontrola_dyn_konfig_0 |= (1 << j);

		if ((par[i].CzujnikiDKKonfig & (1 << j)) > 0
    4028:	8e95      	ldrh	r5, [r2, #52]	; 0x34
    402a:	e7ce      	b.n	3fca <KontrolaDynamiczna_OdczytKonfiguracji+0xa>
    402c:	4b08      	ldr	r3, [pc, #32]	; (4050 <KontrolaDynamiczna_OdczytKonfiguracji+0x90>)
    402e:	f8a3 c02c 	strh.w	ip, [r3, #44]	; 0x2c
    4032:	85d8      	strh	r0, [r3, #46]	; 0x2e
		if ((par[i].CzujnikiDKKonfig & (1 << j)) > 0
				&& (par[i].CzujnikiDKSygnaly & (1 << j)) == 0)
			kontrola_dyn_konfig_0 |= (1 << j);
		}
	}
}
    4034:	bdf0      	pop	{r4, r5, r6, r7, pc}
		{
		if ((par[i].CzujnikiStartKonfig & (1 << j)) > 0
				&& (par[i].CzujnikiStartSygnaly & (1 << j)) > 0)
			kontrola_dyn_konfig_1 |= (1 << j);

		if ((par[i].CzujnikiStartKonfig & (1 << j)) > 0
    4036:	410c      	asrs	r4, r1
    4038:	f014 0f01 	tst.w	r4, #1
    403c:	d0d5      	beq.n	3fea <KontrolaDynamiczna_OdczytKonfiguracji+0x2a>
    403e:	e7d7      	b.n	3ff0 <KontrolaDynamiczna_OdczytKonfiguracji+0x30>

		if ((par[i].CzujnikiDKKonfig & (1 << j)) > 0
				&& (par[i].CzujnikiDKSygnaly & (1 << j)) > 0)
			kontrola_dyn_konfig_1 |= (1 << j);

		if ((par[i].CzujnikiDKKonfig & (1 << j)) > 0
    4040:	410c      	asrs	r4, r1
    4042:	f014 0f01 	tst.w	r4, #1
    4046:	d0e1      	beq.n	400c <KontrolaDynamiczna_OdczytKonfiguracji+0x4c>
    4048:	e7e2      	b.n	4010 <KontrolaDynamiczna_OdczytKonfiguracji+0x50>
    404a:	bf00      	nop
    404c:	20001b40 	.word	0x20001b40
    4050:	2000012c 	.word	0x2000012c

00004054 <KontrolaDynamiczna_Reset>:
// Reset kontroli dynamicznej
// Chcemy skasowa wszystkie bity w wordzie wic na pocztku trzeba ustawi te co trzeba
//*****************************************************************************
void KontrolaDynamiczna_Reset(void)
{
	kontrola_dyn_1 = kontrola_dyn_konfig_1;
    4054:	4b02      	ldr	r3, [pc, #8]	; (4060 <KontrolaDynamiczna_Reset+0xc>)
    4056:	8d9a      	ldrh	r2, [r3, #44]	; 0x2c
    4058:	861a      	strh	r2, [r3, #48]	; 0x30
	kontrola_dyn_0 = kontrola_dyn_konfig_0;
    405a:	8dda      	ldrh	r2, [r3, #46]	; 0x2e
    405c:	865a      	strh	r2, [r3, #50]	; 0x32
}
    405e:	4770      	bx	lr
    4060:	2000012c 	.word	0x2000012c

00004064 <KontrolaDynamiczna_Sprawdzenie>:
//*****************************************************************************
// Sprawdzenie wynikw kontroli dynamicznej
//*****************************************************************************
bool KontrolaDynamiczna_Sprawdzenie(void)
{
	if ((kontrola_dyn_1 == 0) && (kontrola_dyn_0 == 0))
    4064:	4b05      	ldr	r3, [pc, #20]	; (407c <KontrolaDynamiczna_Sprawdzenie+0x18>)
    4066:	8e1a      	ldrh	r2, [r3, #48]	; 0x30
    4068:	b10a      	cbz	r2, 406e <KontrolaDynamiczna_Sprawdzenie+0xa>
    406a:	2000      	movs	r0, #0
    406c:	4770      	bx	lr
    406e:	8e58      	ldrh	r0, [r3, #50]	; 0x32
    4070:	f1d0 0001 	rsbs	r0, r0, #1
    4074:	bf38      	it	cc
    4076:	2000      	movcc	r0, #0
		return true;
	else
		return false;
}
    4078:	4770      	bx	lr
    407a:	bf00      	nop
    407c:	2000012c 	.word	0x2000012c

00004080 <Cykl>:
// Tutaj wykonujemy rzeczy po zakoczonym zgrzewie
// Sprawdzenie, ktry z kolei zgrzew w cyklu
// Wczenie obsugi luzy dla ostatniego zgrzewu i Hydry
//*****************************************************************************
void Cykl(void)
{
    4080:	b510      	push	{r4, lr}
	if (p_aktualny_program >= p_liczba_programow)
    4082:	4b4d      	ldr	r3, [pc, #308]	; (41b8 <Cykl+0x138>)
    4084:	f893 2020 	ldrb.w	r2, [r3, #32]
    4088:	f893 1021 	ldrb.w	r1, [r3, #33]	; 0x21
    408c:	ea42 2101 	orr.w	r1, r2, r1, lsl #8
    4090:	7d1a      	ldrb	r2, [r3, #20]
    4092:	7d58      	ldrb	r0, [r3, #21]
    4094:	ea42 2200 	orr.w	r2, r2, r0, lsl #8
    4098:	4291      	cmp	r1, r2
    409a:	f0c0 808b 	bcc.w	41b4 <Cykl+0x134>
	{
		//
		// Tylko jezeli zgrzano wszytkie z pradem to zaliczmy zgrzew
		//
		if (z_pradem_wszystkie >= liczba_zgrzewow)
    409e:	4a47      	ldr	r2, [pc, #284]	; (41bc <Cykl+0x13c>)
    40a0:	4947      	ldr	r1, [pc, #284]	; (41c0 <Cykl+0x140>)
    40a2:	f892 0034 	ldrb.w	r0, [r2, #52]	; 0x34
    40a6:	7809      	ldrb	r1, [r1, #0]
    40a8:	4288      	cmp	r0, r1
    40aa:	d342      	bcc.n	4132 <Cykl+0xb2>
		{
			if (GET_REFERUJ_CYLINDER == false && GET_REFERUJ_PRAD == false)
    40ac:	7e19      	ldrb	r1, [r3, #24]
    40ae:	7e58      	ldrb	r0, [r3, #25]
    40b0:	f011 0f02 	tst.w	r1, #2
    40b4:	d107      	bne.n	40c6 <Cykl+0x46>
    40b6:	7e19      	ldrb	r1, [r3, #24]
    40b8:	7e5b      	ldrb	r3, [r3, #25]
    40ba:	f011 0f01 	tst.w	r1, #1
    40be:	d102      	bne.n	40c6 <Cykl+0x46>
				sluza_start = true;
    40c0:	2301      	movs	r3, #1
    40c2:	f882 3035 	strb.w	r3, [r2, #53]	; 0x35

			p_licznik++;
    40c6:	4b3c      	ldr	r3, [pc, #240]	; (41b8 <Cykl+0x138>)
    40c8:	7a1a      	ldrb	r2, [r3, #8]
    40ca:	7a59      	ldrb	r1, [r3, #9]
    40cc:	7a18      	ldrb	r0, [r3, #8]
    40ce:	ea42 2201 	orr.w	r2, r2, r1, lsl #8
    40d2:	3201      	adds	r2, #1
    40d4:	b292      	uxth	r2, r2
    40d6:	f002 01ff 	and.w	r1, r2, #255	; 0xff
    40da:	7219      	strb	r1, [r3, #8]
    40dc:	0a12      	lsrs	r2, r2, #8
    40de:	7a59      	ldrb	r1, [r3, #9]
    40e0:	725a      	strb	r2, [r3, #9]

			if (GET_REFERUJ_PRAD && (p_ref_cnt_prad > 1))
    40e2:	7e1a      	ldrb	r2, [r3, #24]
    40e4:	7e59      	ldrb	r1, [r3, #25]
    40e6:	f012 0f01 	tst.w	r2, #1
    40ea:	d011      	beq.n	4110 <Cykl+0x90>
    40ec:	7e9a      	ldrb	r2, [r3, #26]
    40ee:	7ed9      	ldrb	r1, [r3, #27]
    40f0:	ea42 2201 	orr.w	r2, r2, r1, lsl #8
    40f4:	2a01      	cmp	r2, #1
    40f6:	d90b      	bls.n	4110 <Cykl+0x90>
				p_ref_cnt_prad--;
    40f8:	7e9a      	ldrb	r2, [r3, #26]
    40fa:	7ed9      	ldrb	r1, [r3, #27]
    40fc:	7e98      	ldrb	r0, [r3, #26]
    40fe:	ea42 2201 	orr.w	r2, r2, r1, lsl #8
    4102:	3a01      	subs	r2, #1
    4104:	b292      	uxth	r2, r2
    4106:	f002 01ff 	and.w	r1, r2, #255	; 0xff
    410a:	7699      	strb	r1, [r3, #26]
    410c:	0a12      	lsrs	r2, r2, #8
    410e:	e00e      	b.n	412e <Cykl+0xae>
			else
			{
				RESET_REFERUJ_PRAD;
    4110:	4b29      	ldr	r3, [pc, #164]	; (41b8 <Cykl+0x138>)
    4112:	7e1a      	ldrb	r2, [r3, #24]
    4114:	7e59      	ldrb	r1, [r3, #25]
    4116:	ea42 2101 	orr.w	r1, r2, r1, lsl #8
    411a:	f001 00fe 	and.w	r0, r1, #254	; 0xfe
    411e:	7e1a      	ldrb	r2, [r3, #24]
    4120:	0a09      	lsrs	r1, r1, #8
    4122:	7618      	strb	r0, [r3, #24]
    4124:	7e58      	ldrb	r0, [r3, #25]
    4126:	2200      	movs	r2, #0
    4128:	7659      	strb	r1, [r3, #25]
				p_ref_cnt_prad = 0;
    412a:	7e99      	ldrb	r1, [r3, #26]
    412c:	769a      	strb	r2, [r3, #26]
    412e:	7ed9      	ldrb	r1, [r3, #27]
    4130:	76da      	strb	r2, [r3, #27]
			}
		}

		if (GET_REFERUJ_CYLINDER && (p_ref_cnt_nakr > 1))
    4132:	4b21      	ldr	r3, [pc, #132]	; (41b8 <Cykl+0x138>)
    4134:	7e1a      	ldrb	r2, [r3, #24]
    4136:	7e59      	ldrb	r1, [r3, #25]
    4138:	f012 0f02 	tst.w	r2, #2
    413c:	d011      	beq.n	4162 <Cykl+0xe2>
    413e:	7f1a      	ldrb	r2, [r3, #28]
    4140:	7f59      	ldrb	r1, [r3, #29]
    4142:	ea42 2201 	orr.w	r2, r2, r1, lsl #8
    4146:	2a01      	cmp	r2, #1
    4148:	d90b      	bls.n	4162 <Cykl+0xe2>
			p_ref_cnt_nakr--;
    414a:	7f1a      	ldrb	r2, [r3, #28]
    414c:	7f59      	ldrb	r1, [r3, #29]
    414e:	7f18      	ldrb	r0, [r3, #28]
    4150:	ea42 2201 	orr.w	r2, r2, r1, lsl #8
    4154:	3a01      	subs	r2, #1
    4156:	b292      	uxth	r2, r2
    4158:	f002 01ff 	and.w	r1, r2, #255	; 0xff
    415c:	7719      	strb	r1, [r3, #28]
    415e:	0a12      	lsrs	r2, r2, #8
    4160:	e00e      	b.n	4180 <Cykl+0x100>
		else
		{
			RESET_REFERUJ_CYLINDER;
    4162:	4b15      	ldr	r3, [pc, #84]	; (41b8 <Cykl+0x138>)
    4164:	7e1a      	ldrb	r2, [r3, #24]
    4166:	7e59      	ldrb	r1, [r3, #25]
    4168:	ea42 2101 	orr.w	r1, r2, r1, lsl #8
    416c:	f001 00fd 	and.w	r0, r1, #253	; 0xfd
    4170:	7e1a      	ldrb	r2, [r3, #24]
    4172:	0a09      	lsrs	r1, r1, #8
    4174:	7618      	strb	r0, [r3, #24]
    4176:	7e58      	ldrb	r0, [r3, #25]
    4178:	2200      	movs	r2, #0
    417a:	7659      	strb	r1, [r3, #25]
			p_ref_cnt_nakr = 0;
    417c:	7f19      	ldrb	r1, [r3, #28]
    417e:	771a      	strb	r2, [r3, #28]
    4180:	7f59      	ldrb	r1, [r3, #29]
    4182:	775a      	strb	r2, [r3, #29]
		}

		p_aktualny_program = 0;
    4184:	4b0c      	ldr	r3, [pc, #48]	; (41b8 <Cykl+0x138>)
    4186:	f893 2020 	ldrb.w	r2, [r3, #32]
    418a:	2200      	movs	r2, #0
    418c:	f883 2020 	strb.w	r2, [r3, #32]
    4190:	f893 1021 	ldrb.w	r1, [r3, #33]	; 0x21
    4194:	f883 2021 	strb.w	r2, [r3, #33]	; 0x21
		z_pradem_wszystkie = 0;
    4198:	4b08      	ldr	r3, [pc, #32]	; (41bc <Cykl+0x13c>)
    419a:	f883 2034 	strb.w	r2, [r3, #52]	; 0x34

		if (KontrolaDynamiczna_Sprawdzenie() == false)
    419e:	f7ff ff61 	bl	4064 <KontrolaDynamiczna_Sprawdzenie>
    41a2:	b910      	cbnz	r0, 41aa <Cykl+0x12a>
		{
			ZaklocenieSet(ERR_KONTROLA_CZUJNIKOW);
    41a4:	3006      	adds	r0, #6
    41a6:	f7fe fdd3 	bl	2d50 <ZaklocenieSet>
		}

		KontrolaDynamiczna_OdczytKonfiguracji();
    41aa:	f7ff ff09 	bl	3fc0 <KontrolaDynamiczna_OdczytKonfiguracji>
		KontrolaDynamiczna_Reset();
	}
	else
	{
	}
}
    41ae:	e8bd 4010 	ldmia.w	sp!, {r4, lr}
		{
			ZaklocenieSet(ERR_KONTROLA_CZUJNIKOW);
		}

		KontrolaDynamiczna_OdczytKonfiguracji();
		KontrolaDynamiczna_Reset();
    41b2:	e74f      	b.n	4054 <KontrolaDynamiczna_Reset>
    41b4:	bd10      	pop	{r4, pc}
    41b6:	bf00      	nop
    41b8:	20000ee4 	.word	0x20000ee4
    41bc:	2000012c 	.word	0x2000012c
    41c0:	20001f35 	.word	0x20001f35

000041c4 <Blink>:
	static word cnt_5_Hz = 0;

	//
	// 1Hz
	//
	if (cnt_1_Hz++ > 20000)
    41c4:	4b1f      	ldr	r3, [pc, #124]	; (4244 <Blink+0x80>)
    41c6:	8eda      	ldrh	r2, [r3, #54]	; 0x36
    41c8:	1c51      	adds	r1, r2, #1
    41ca:	86d9      	strh	r1, [r3, #54]	; 0x36
    41cc:	f644 6120 	movw	r1, #20000	; 0x4e20
    41d0:	428a      	cmp	r2, r1
		cnt_1_Hz = 0;
    41d2:	bf84      	itt	hi
    41d4:	2200      	movhi	r2, #0
    41d6:	86da      	strhhi	r2, [r3, #54]	; 0x36

	if (cnt_1_Hz > 10000)
    41d8:	4b1a      	ldr	r3, [pc, #104]	; (4244 <Blink+0x80>)
    41da:	f242 7210 	movw	r2, #10000	; 0x2710
    41de:	8ed9      	ldrh	r1, [r3, #54]	; 0x36
    41e0:	4291      	cmp	r1, r2
    41e2:	d901      	bls.n	41e8 <Blink+0x24>
		blink_1_Hz = true;
    41e4:	2201      	movs	r2, #1
    41e6:	e000      	b.n	41ea <Blink+0x26>
	else
		blink_1_Hz = false;
    41e8:	2200      	movs	r2, #0
    41ea:	f883 2038 	strb.w	r2, [r3, #56]	; 0x38
	//
	// 2Hz
	//
	if (cnt_2_Hz++ > 10000)
    41ee:	4b15      	ldr	r3, [pc, #84]	; (4244 <Blink+0x80>)
    41f0:	8f5a      	ldrh	r2, [r3, #58]	; 0x3a
    41f2:	1c51      	adds	r1, r2, #1
    41f4:	8759      	strh	r1, [r3, #58]	; 0x3a
    41f6:	f242 7110 	movw	r1, #10000	; 0x2710
    41fa:	428a      	cmp	r2, r1
		cnt_2_Hz = 0;
    41fc:	bf84      	itt	hi
    41fe:	2200      	movhi	r2, #0
    4200:	875a      	strhhi	r2, [r3, #58]	; 0x3a

	if (cnt_2_Hz > 5000)
    4202:	4b10      	ldr	r3, [pc, #64]	; (4244 <Blink+0x80>)
    4204:	f241 3288 	movw	r2, #5000	; 0x1388
    4208:	8f59      	ldrh	r1, [r3, #58]	; 0x3a
    420a:	4291      	cmp	r1, r2
    420c:	d901      	bls.n	4212 <Blink+0x4e>
		blink_2_Hz = true;
    420e:	2201      	movs	r2, #1
    4210:	e000      	b.n	4214 <Blink+0x50>
	else
		blink_2_Hz = false;
    4212:	2200      	movs	r2, #0
    4214:	f883 203c 	strb.w	r2, [r3, #60]	; 0x3c
	//
	// 5Hz
	//
	if (cnt_5_Hz++ > 4000)
    4218:	4b0a      	ldr	r3, [pc, #40]	; (4244 <Blink+0x80>)
    421a:	8fda      	ldrh	r2, [r3, #62]	; 0x3e
    421c:	1c51      	adds	r1, r2, #1
    421e:	f5b2 6f7a 	cmp.w	r2, #4000	; 0xfa0
		cnt_5_Hz = 0;
    4222:	bf88      	it	hi
    4224:	2200      	movhi	r2, #0
	else
		blink_2_Hz = false;
	//
	// 5Hz
	//
	if (cnt_5_Hz++ > 4000)
    4226:	87d9      	strh	r1, [r3, #62]	; 0x3e
		cnt_5_Hz = 0;
    4228:	bf88      	it	hi
    422a:	87da      	strhhi	r2, [r3, #62]	; 0x3e

	if (cnt_5_Hz > 2000)
    422c:	4b05      	ldr	r3, [pc, #20]	; (4244 <Blink+0x80>)
    422e:	8fda      	ldrh	r2, [r3, #62]	; 0x3e
    4230:	f5b2 6ffa 	cmp.w	r2, #2000	; 0x7d0
    4234:	d901      	bls.n	423a <Blink+0x76>
		blink_5_Hz = true;
    4236:	2201      	movs	r2, #1
    4238:	e000      	b.n	423c <Blink+0x78>
	else
		blink_5_Hz = false;
    423a:	2200      	movs	r2, #0
    423c:	f883 2040 	strb.w	r2, [r3, #64]	; 0x40
    4240:	4770      	bx	lr
    4242:	bf00      	nop
    4244:	2000012c 	.word	0x2000012c

00004248 <P_Start_P>:
	bool retval = false;

	static byte prev = 0;
	static byte act = 0;

	act = image.i[0] & 0x02;
    4248:	4b09      	ldr	r3, [pc, #36]	; (4270 <P_Start_P+0x28>)
    424a:	4a0a      	ldr	r2, [pc, #40]	; (4274 <P_Start_P+0x2c>)
    424c:	f893 304c 	ldrb.w	r3, [r3, #76]	; 0x4c
    4250:	f003 0302 	and.w	r3, r3, #2
    4254:	f882 3041 	strb.w	r3, [r2, #65]	; 0x41

	if ((prev == 0) && (act > 0))
    4258:	f892 2042 	ldrb.w	r2, [r2, #66]	; 0x42
    425c:	b10a      	cbz	r2, 4262 <P_Start_P+0x1a>
    425e:	2000      	movs	r0, #0
    4260:	e002      	b.n	4268 <P_Start_P+0x20>
    4262:	1e18      	subs	r0, r3, #0
    4264:	bf18      	it	ne
    4266:	2001      	movne	r0, #1
		retval = true;
	else
		retval = false;

	prev = act;
    4268:	4a02      	ldr	r2, [pc, #8]	; (4274 <P_Start_P+0x2c>)
    426a:	f882 3042 	strb.w	r3, [r2, #66]	; 0x42

	return retval;
}
    426e:	4770      	bx	lr
    4270:	20000ee4 	.word	0x20000ee4
    4274:	2000012c 	.word	0x2000012c

00004278 <P_Start>:

bool P_Start(void)
{
	if ((image.i[0] & 0x02) > 0)
    4278:	4b03      	ldr	r3, [pc, #12]	; (4288 <P_Start+0x10>)
    427a:	f893 004c 	ldrb.w	r0, [r3, #76]	; 0x4c
    427e:	0840      	lsrs	r0, r0, #1
		return true;
	else
		return false;
}
    4280:	f000 0001 	and.w	r0, r0, #1
    4284:	4770      	bx	lr
    4286:	bf00      	nop
    4288:	20000ee4 	.word	0x20000ee4

0000428c <ZezwolenieSterowaniaPrzyrzadem>:

}

bool ZezwolenieSterowaniaPrzyrzadem(void)
{
	return P_Start();
    428c:	e7f4      	b.n	4278 <P_Start>

0000428e <SterowaniePrzyrzadem>:
// Odczyt wej procesowych i sterowanie wyjsciami procesowymi
// Zalezny od werji programu
//*****************************************************************************

void SterowaniePrzyrzadem(void)
{
    428e:	b508      	push	{r3, lr}
	if (ZezwolenieSterowaniaPrzyrzadem() && ((par[p_aktualny_program].Wyjscia
    4290:	f7ff fffc 	bl	428c <ZezwolenieSterowaniaPrzyrzadem>
    4294:	b198      	cbz	r0, 42be <SterowaniePrzyrzadem+0x30>
    4296:	4b77      	ldr	r3, [pc, #476]	; (4474 <SterowaniePrzyrzadem+0x1e6>)
    4298:	203c      	movs	r0, #60	; 0x3c
    429a:	f893 2020 	ldrb.w	r2, [r3, #32]
    429e:	f893 1021 	ldrb.w	r1, [r3, #33]	; 0x21
    42a2:	ea42 2201 	orr.w	r2, r2, r1, lsl #8
    42a6:	4974      	ldr	r1, [pc, #464]	; (4478 <SterowaniePrzyrzadem+0x1ea>)
    42a8:	fb00 1202 	mla	r2, r0, r2, r1
    42ac:	8f12      	ldrh	r2, [r2, #56]	; 0x38
    42ae:	f012 0f01 	tst.w	r2, #1
    42b2:	d004      	beq.n	42be <SterowaniePrzyrzadem+0x30>
			& 0x01) > 0))
	{
		image.q[1] |= 0x10;
    42b4:	f893 2041 	ldrb.w	r2, [r3, #65]	; 0x41
    42b8:	f042 0210 	orr.w	r2, r2, #16
    42bc:	e004      	b.n	42c8 <SterowaniePrzyrzadem+0x3a>
	}
	else
		image.q[1] &= ~0x10;
    42be:	4b6d      	ldr	r3, [pc, #436]	; (4474 <SterowaniePrzyrzadem+0x1e6>)
    42c0:	f893 2041 	ldrb.w	r2, [r3, #65]	; 0x41
    42c4:	f002 02ef 	and.w	r2, r2, #239	; 0xef
    42c8:	f883 2041 	strb.w	r2, [r3, #65]	; 0x41

	if (ZezwolenieSterowaniaPrzyrzadem() && ((par[p_aktualny_program].Wyjscia
    42cc:	f7ff ffde 	bl	428c <ZezwolenieSterowaniaPrzyrzadem>
    42d0:	b198      	cbz	r0, 42fa <SterowaniePrzyrzadem+0x6c>
    42d2:	4b68      	ldr	r3, [pc, #416]	; (4474 <SterowaniePrzyrzadem+0x1e6>)
    42d4:	203c      	movs	r0, #60	; 0x3c
    42d6:	f893 2020 	ldrb.w	r2, [r3, #32]
    42da:	f893 1021 	ldrb.w	r1, [r3, #33]	; 0x21
    42de:	ea42 2201 	orr.w	r2, r2, r1, lsl #8
    42e2:	4965      	ldr	r1, [pc, #404]	; (4478 <SterowaniePrzyrzadem+0x1ea>)
    42e4:	fb00 1202 	mla	r2, r0, r2, r1
    42e8:	8f12      	ldrh	r2, [r2, #56]	; 0x38
    42ea:	f012 0f02 	tst.w	r2, #2
    42ee:	d004      	beq.n	42fa <SterowaniePrzyrzadem+0x6c>
			& 0x02) > 0))
	{
		image.q[1] |= 0x20;
    42f0:	f893 2041 	ldrb.w	r2, [r3, #65]	; 0x41
    42f4:	f042 0220 	orr.w	r2, r2, #32
    42f8:	e004      	b.n	4304 <SterowaniePrzyrzadem+0x76>
	}
	else
		image.q[1] &= ~0x20;
    42fa:	4b5e      	ldr	r3, [pc, #376]	; (4474 <SterowaniePrzyrzadem+0x1e6>)
    42fc:	f893 2041 	ldrb.w	r2, [r3, #65]	; 0x41
    4300:	f002 02df 	and.w	r2, r2, #223	; 0xdf
    4304:	f883 2041 	strb.w	r2, [r3, #65]	; 0x41

	if (ZezwolenieSterowaniaPrzyrzadem() && ((par[p_aktualny_program].Wyjscia
    4308:	f7ff ffc0 	bl	428c <ZezwolenieSterowaniaPrzyrzadem>
    430c:	b198      	cbz	r0, 4336 <SterowaniePrzyrzadem+0xa8>
    430e:	4b59      	ldr	r3, [pc, #356]	; (4474 <SterowaniePrzyrzadem+0x1e6>)
    4310:	203c      	movs	r0, #60	; 0x3c
    4312:	f893 2020 	ldrb.w	r2, [r3, #32]
    4316:	f893 1021 	ldrb.w	r1, [r3, #33]	; 0x21
    431a:	ea42 2201 	orr.w	r2, r2, r1, lsl #8
    431e:	4956      	ldr	r1, [pc, #344]	; (4478 <SterowaniePrzyrzadem+0x1ea>)
    4320:	fb00 1202 	mla	r2, r0, r2, r1
    4324:	8f12      	ldrh	r2, [r2, #56]	; 0x38
    4326:	f012 0f04 	tst.w	r2, #4
    432a:	d004      	beq.n	4336 <SterowaniePrzyrzadem+0xa8>
			& 0x04) > 0))
	{
		image.q[1] |= 0x40;
    432c:	f893 2041 	ldrb.w	r2, [r3, #65]	; 0x41
    4330:	f042 0240 	orr.w	r2, r2, #64	; 0x40
    4334:	e004      	b.n	4340 <SterowaniePrzyrzadem+0xb2>
	}
	else
		image.q[1] &= ~0x40;
    4336:	4b4f      	ldr	r3, [pc, #316]	; (4474 <SterowaniePrzyrzadem+0x1e6>)
    4338:	f893 2041 	ldrb.w	r2, [r3, #65]	; 0x41
    433c:	f002 02bf 	and.w	r2, r2, #191	; 0xbf
    4340:	f883 2041 	strb.w	r2, [r3, #65]	; 0x41

	if (ZezwolenieSterowaniaPrzyrzadem() && ((par[p_aktualny_program].Wyjscia
    4344:	f7ff ffa2 	bl	428c <ZezwolenieSterowaniaPrzyrzadem>
    4348:	b198      	cbz	r0, 4372 <SterowaniePrzyrzadem+0xe4>
    434a:	4b4a      	ldr	r3, [pc, #296]	; (4474 <SterowaniePrzyrzadem+0x1e6>)
    434c:	203c      	movs	r0, #60	; 0x3c
    434e:	f893 2020 	ldrb.w	r2, [r3, #32]
    4352:	f893 1021 	ldrb.w	r1, [r3, #33]	; 0x21
    4356:	ea42 2201 	orr.w	r2, r2, r1, lsl #8
    435a:	4947      	ldr	r1, [pc, #284]	; (4478 <SterowaniePrzyrzadem+0x1ea>)
    435c:	fb00 1202 	mla	r2, r0, r2, r1
    4360:	8f12      	ldrh	r2, [r2, #56]	; 0x38
    4362:	f012 0f08 	tst.w	r2, #8
    4366:	d004      	beq.n	4372 <SterowaniePrzyrzadem+0xe4>
			& 0x08) > 0))
	{
		image.q[1] |= 0x80;
    4368:	f893 2041 	ldrb.w	r2, [r3, #65]	; 0x41
    436c:	f042 0280 	orr.w	r2, r2, #128	; 0x80
    4370:	e004      	b.n	437c <SterowaniePrzyrzadem+0xee>
	}
	else
		image.q[1] &= ~0x80;
    4372:	4b40      	ldr	r3, [pc, #256]	; (4474 <SterowaniePrzyrzadem+0x1e6>)
    4374:	f893 2041 	ldrb.w	r2, [r3, #65]	; 0x41
    4378:	f002 027f 	and.w	r2, r2, #127	; 0x7f
    437c:	f883 2041 	strb.w	r2, [r3, #65]	; 0x41

	if (ZezwolenieSterowaniaPrzyrzadem() && ((par[p_aktualny_program].Wyjscia
    4380:	f7ff ff84 	bl	428c <ZezwolenieSterowaniaPrzyrzadem>
    4384:	b198      	cbz	r0, 43ae <SterowaniePrzyrzadem+0x120>
    4386:	4b3b      	ldr	r3, [pc, #236]	; (4474 <SterowaniePrzyrzadem+0x1e6>)
    4388:	203c      	movs	r0, #60	; 0x3c
    438a:	f893 2020 	ldrb.w	r2, [r3, #32]
    438e:	f893 1021 	ldrb.w	r1, [r3, #33]	; 0x21
    4392:	ea42 2201 	orr.w	r2, r2, r1, lsl #8
    4396:	4938      	ldr	r1, [pc, #224]	; (4478 <SterowaniePrzyrzadem+0x1ea>)
    4398:	fb00 1202 	mla	r2, r0, r2, r1
    439c:	8f12      	ldrh	r2, [r2, #56]	; 0x38
    439e:	f012 0f10 	tst.w	r2, #16
    43a2:	d004      	beq.n	43ae <SterowaniePrzyrzadem+0x120>
			& 0x10) > 0))
	{
		image.q[2] |= 0x01;
    43a4:	f893 2042 	ldrb.w	r2, [r3, #66]	; 0x42
    43a8:	f042 0201 	orr.w	r2, r2, #1
    43ac:	e004      	b.n	43b8 <SterowaniePrzyrzadem+0x12a>
	}
	else
		image.q[2] &= ~0x01;
    43ae:	4b31      	ldr	r3, [pc, #196]	; (4474 <SterowaniePrzyrzadem+0x1e6>)
    43b0:	f893 2042 	ldrb.w	r2, [r3, #66]	; 0x42
    43b4:	f002 02fe 	and.w	r2, r2, #254	; 0xfe
    43b8:	f883 2042 	strb.w	r2, [r3, #66]	; 0x42

	if (ZezwolenieSterowaniaPrzyrzadem() && ((par[p_aktualny_program].Wyjscia
    43bc:	f7ff ff66 	bl	428c <ZezwolenieSterowaniaPrzyrzadem>
    43c0:	b198      	cbz	r0, 43ea <SterowaniePrzyrzadem+0x15c>
    43c2:	4b2c      	ldr	r3, [pc, #176]	; (4474 <SterowaniePrzyrzadem+0x1e6>)
    43c4:	203c      	movs	r0, #60	; 0x3c
    43c6:	f893 2020 	ldrb.w	r2, [r3, #32]
    43ca:	f893 1021 	ldrb.w	r1, [r3, #33]	; 0x21
    43ce:	ea42 2201 	orr.w	r2, r2, r1, lsl #8
    43d2:	4929      	ldr	r1, [pc, #164]	; (4478 <SterowaniePrzyrzadem+0x1ea>)
    43d4:	fb00 1202 	mla	r2, r0, r2, r1
    43d8:	8f12      	ldrh	r2, [r2, #56]	; 0x38
    43da:	f012 0f20 	tst.w	r2, #32
    43de:	d004      	beq.n	43ea <SterowaniePrzyrzadem+0x15c>
			& 0x20) > 0))
	{
		image.q[2] |= 0x02;
    43e0:	f893 2042 	ldrb.w	r2, [r3, #66]	; 0x42
    43e4:	f042 0202 	orr.w	r2, r2, #2
    43e8:	e004      	b.n	43f4 <SterowaniePrzyrzadem+0x166>
	}
	else
		image.q[2] &= ~0x02;
    43ea:	4b22      	ldr	r3, [pc, #136]	; (4474 <SterowaniePrzyrzadem+0x1e6>)
    43ec:	f893 2042 	ldrb.w	r2, [r3, #66]	; 0x42
    43f0:	f002 02fd 	and.w	r2, r2, #253	; 0xfd
    43f4:	f883 2042 	strb.w	r2, [r3, #66]	; 0x42

	if (ZezwolenieSterowaniaPrzyrzadem() && ((par[p_aktualny_program].Wyjscia
    43f8:	f7ff ff48 	bl	428c <ZezwolenieSterowaniaPrzyrzadem>
    43fc:	b198      	cbz	r0, 4426 <SterowaniePrzyrzadem+0x198>
    43fe:	4b1d      	ldr	r3, [pc, #116]	; (4474 <SterowaniePrzyrzadem+0x1e6>)
    4400:	203c      	movs	r0, #60	; 0x3c
    4402:	f893 2020 	ldrb.w	r2, [r3, #32]
    4406:	f893 1021 	ldrb.w	r1, [r3, #33]	; 0x21
    440a:	ea42 2201 	orr.w	r2, r2, r1, lsl #8
    440e:	491a      	ldr	r1, [pc, #104]	; (4478 <SterowaniePrzyrzadem+0x1ea>)
    4410:	fb00 1202 	mla	r2, r0, r2, r1
    4414:	8f12      	ldrh	r2, [r2, #56]	; 0x38
    4416:	f012 0f40 	tst.w	r2, #64	; 0x40
    441a:	d004      	beq.n	4426 <SterowaniePrzyrzadem+0x198>
			& 0x40) > 0))
	{
		image.q[2] |= 0x04;
    441c:	f893 2042 	ldrb.w	r2, [r3, #66]	; 0x42
    4420:	f042 0204 	orr.w	r2, r2, #4
    4424:	e004      	b.n	4430 <SterowaniePrzyrzadem+0x1a2>
	}
	else
		image.q[2] &= ~0x04;
    4426:	4b13      	ldr	r3, [pc, #76]	; (4474 <SterowaniePrzyrzadem+0x1e6>)
    4428:	f893 2042 	ldrb.w	r2, [r3, #66]	; 0x42
    442c:	f002 02fb 	and.w	r2, r2, #251	; 0xfb
    4430:	f883 2042 	strb.w	r2, [r3, #66]	; 0x42

	if (ZezwolenieSterowaniaPrzyrzadem() && ((par[p_aktualny_program].Wyjscia
    4434:	f7ff ff2a 	bl	428c <ZezwolenieSterowaniaPrzyrzadem>
    4438:	b198      	cbz	r0, 4462 <SterowaniePrzyrzadem+0x1d4>
    443a:	4b0e      	ldr	r3, [pc, #56]	; (4474 <SterowaniePrzyrzadem+0x1e6>)
    443c:	203c      	movs	r0, #60	; 0x3c
    443e:	f893 2020 	ldrb.w	r2, [r3, #32]
    4442:	f893 1021 	ldrb.w	r1, [r3, #33]	; 0x21
    4446:	ea42 2201 	orr.w	r2, r2, r1, lsl #8
    444a:	490b      	ldr	r1, [pc, #44]	; (4478 <SterowaniePrzyrzadem+0x1ea>)
    444c:	fb00 1202 	mla	r2, r0, r2, r1
    4450:	8f12      	ldrh	r2, [r2, #56]	; 0x38
    4452:	f012 0f80 	tst.w	r2, #128	; 0x80
    4456:	d004      	beq.n	4462 <SterowaniePrzyrzadem+0x1d4>
			& 0x80) > 0))
	{
		image.q[2] |= 0x08;
    4458:	f893 2042 	ldrb.w	r2, [r3, #66]	; 0x42
    445c:	f042 0208 	orr.w	r2, r2, #8
    4460:	e004      	b.n	446c <SterowaniePrzyrzadem+0x1de>
	}
	else
		image.q[2] &= ~0x08;
    4462:	4b04      	ldr	r3, [pc, #16]	; (4474 <SterowaniePrzyrzadem+0x1e6>)
    4464:	f893 2042 	ldrb.w	r2, [r3, #66]	; 0x42
    4468:	f002 02f7 	and.w	r2, r2, #247	; 0xf7
    446c:	f883 2042 	strb.w	r2, [r3, #66]	; 0x42
    4470:	bd08      	pop	{r3, pc}
    4472:	bf00      	nop
    4474:	20000ee4 	.word	0x20000ee4
    4478:	20001b40 	.word	0x20001b40

0000447c <P_DK_P>:
	bool retval = false;

	static byte prev = 0;
	static byte act = 0;

	act = image.i[0] & 0x04;
    447c:	4b09      	ldr	r3, [pc, #36]	; (44a4 <P_DK_P+0x28>)
    447e:	4a0a      	ldr	r2, [pc, #40]	; (44a8 <P_DK_P+0x2c>)
    4480:	f893 304c 	ldrb.w	r3, [r3, #76]	; 0x4c
    4484:	f003 0304 	and.w	r3, r3, #4
    4488:	f882 3043 	strb.w	r3, [r2, #67]	; 0x43

	if ((prev == 0) && (act > 0))
    448c:	f892 2044 	ldrb.w	r2, [r2, #68]	; 0x44
    4490:	b10a      	cbz	r2, 4496 <P_DK_P+0x1a>
    4492:	2000      	movs	r0, #0
    4494:	e002      	b.n	449c <P_DK_P+0x20>
    4496:	1e18      	subs	r0, r3, #0
    4498:	bf18      	it	ne
    449a:	2001      	movne	r0, #1
		retval = true;
	else
		retval = false;

	prev = act;
    449c:	4a02      	ldr	r2, [pc, #8]	; (44a8 <P_DK_P+0x2c>)
    449e:	f882 3044 	strb.w	r3, [r2, #68]	; 0x44

	return retval;
}
    44a2:	4770      	bx	lr
    44a4:	20000ee4 	.word	0x20000ee4
    44a8:	2000012c 	.word	0x2000012c

000044ac <P_DK>:

bool P_DK(void)
{
	if ((image.i[0] & 0x04) > 0)
    44ac:	4b03      	ldr	r3, [pc, #12]	; (44bc <P_DK+0x10>)
    44ae:	f893 004c 	ldrb.w	r0, [r3, #76]	; 0x4c
    44b2:	0880      	lsrs	r0, r0, #2
		return true;
	else
		return false;
}
    44b4:	f000 0001 	and.w	r0, r0, #1
    44b8:	4770      	bx	lr
    44ba:	bf00      	nop
    44bc:	20000ee4 	.word	0x20000ee4

000044c0 <Cisnienie>:
//*****************************************************************************
// WYnik porwnania cinienia zadanego z osignitym
//*****************************************************************************

void Cisnienie(void)
{
    44c0:	e92d 41f0 	stmdb	sp!, {r4, r5, r6, r7, r8, lr}
	word cisnienie_10plus = par[p_aktualny_program].CisnienieZadane
    44c4:	4c4a      	ldr	r4, [pc, #296]	; (45f0 <Cisnienie+0x130>)
			+ par[p_aktualny_program].CisnienieZadane / 20;
    44c6:	223c      	movs	r2, #60	; 0x3c
// WYnik porwnania cinienia zadanego z osignitym
//*****************************************************************************

void Cisnienie(void)
{
	word cisnienie_10plus = par[p_aktualny_program].CisnienieZadane
    44c8:	f894 3020 	ldrb.w	r3, [r4, #32]
    44cc:	f894 1021 	ldrb.w	r1, [r4, #33]	; 0x21
    44d0:	ea43 2101 	orr.w	r1, r3, r1, lsl #8
			+ par[p_aktualny_program].CisnienieZadane / 20;
    44d4:	4b47      	ldr	r3, [pc, #284]	; (45f4 <Cisnienie+0x134>)
    44d6:	fb02 3101 	mla	r1, r2, r1, r3
    44da:	698d      	ldr	r5, [r1, #24]
    44dc:	f894 1020 	ldrb.w	r1, [r4, #32]
    44e0:	f894 0021 	ldrb.w	r0, [r4, #33]	; 0x21
    44e4:	f3c5 250f 	ubfx	r5, r5, #8, #16
    44e8:	ea41 2100 	orr.w	r1, r1, r0, lsl #8
    44ec:	fb02 3101 	mla	r1, r2, r1, r3
    44f0:	698e      	ldr	r6, [r1, #24]
	word cisnienie_10minus = par[p_aktualny_program].CisnienieZadane
    44f2:	f894 1020 	ldrb.w	r1, [r4, #32]
    44f6:	f894 0021 	ldrb.w	r0, [r4, #33]	; 0x21
//*****************************************************************************

void Cisnienie(void)
{
	word cisnienie_10plus = par[p_aktualny_program].CisnienieZadane
			+ par[p_aktualny_program].CisnienieZadane / 20;
    44fa:	f3c6 260f 	ubfx	r6, r6, #8, #16
	word cisnienie_10minus = par[p_aktualny_program].CisnienieZadane
    44fe:	ea41 2100 	orr.w	r1, r1, r0, lsl #8
			- par[p_aktualny_program].CisnienieZadane / 20;
    4502:	fb02 3101 	mla	r1, r2, r1, r3
    4506:	698f      	ldr	r7, [r1, #24]
    4508:	f894 1020 	ldrb.w	r1, [r4, #32]
    450c:	f894 0021 	ldrb.w	r0, [r4, #33]	; 0x21
    4510:	f3c7 270f 	ubfx	r7, r7, #8, #16
    4514:	ea41 2100 	orr.w	r1, r1, r0, lsl #8
    4518:	fb02 3101 	mla	r1, r2, r1, r3
    451c:	6989      	ldr	r1, [r1, #24]
    451e:	f3c1 280f 	ubfx	r8, r1, #8, #16

	image.aout[0] = (par[p_aktualny_program].CisnienieZadane);
    4522:	f894 1020 	ldrb.w	r1, [r4, #32]
    4526:	f894 0021 	ldrb.w	r0, [r4, #33]	; 0x21
    452a:	f894 c044 	ldrb.w	ip, [r4, #68]	; 0x44
    452e:	ea41 2100 	orr.w	r1, r1, r0, lsl #8
    4532:	fb02 3101 	mla	r1, r2, r1, r3
    4536:	6989      	ldr	r1, [r1, #24]
    4538:	f3c1 210f 	ubfx	r1, r1, #8, #16
    453c:	f001 00ff 	and.w	r0, r1, #255	; 0xff
    4540:	f884 0044 	strb.w	r0, [r4, #68]	; 0x44
    4544:	0a09      	lsrs	r1, r1, #8
    4546:	f894 0045 	ldrb.w	r0, [r4, #69]	; 0x45
    454a:	f884 1045 	strb.w	r1, [r4, #69]	; 0x45

	if (par[p_aktualny_program].CisnienieZadane > 0)
    454e:	f894 1020 	ldrb.w	r1, [r4, #32]
    4552:	f894 0021 	ldrb.w	r0, [r4, #33]	; 0x21
    4556:	ea41 2100 	orr.w	r1, r1, r0, lsl #8
    455a:	fb02 3301 	mla	r3, r2, r1, r3
    455e:	699b      	ldr	r3, [r3, #24]
    4560:	f3c3 230f 	ubfx	r3, r3, #8, #16
    4564:	b353      	cbz	r3, 45bc <Cisnienie+0xfc>
	{
		if (P_DK() && (p_cisnienie_akt >= cisnienie_10minus)
    4566:	f7ff ffa1 	bl	44ac <P_DK>
    456a:	b1c8      	cbz	r0, 45a0 <Cisnienie+0xe0>
    456c:	f894 3056 	ldrb.w	r3, [r4, #86]	; 0x56
    4570:	f894 2057 	ldrb.w	r2, [r4, #87]	; 0x57
    4574:	ea43 2202 	orr.w	r2, r3, r2, lsl #8
    4578:	2314      	movs	r3, #20
    457a:	fbb8 f8f3 	udiv	r8, r8, r3
    457e:	ebc8 0707 	rsb	r7, r8, r7
    4582:	b2bf      	uxth	r7, r7
    4584:	42ba      	cmp	r2, r7
    4586:	d30b      	bcc.n	45a0 <Cisnienie+0xe0>
				&& (p_cisnienie_akt <= cisnienie_10plus))
    4588:	f894 2056 	ldrb.w	r2, [r4, #86]	; 0x56

	image.aout[0] = (par[p_aktualny_program].CisnienieZadane);

	if (par[p_aktualny_program].CisnienieZadane > 0)
	{
		if (P_DK() && (p_cisnienie_akt >= cisnienie_10minus)
    458c:	fbb6 f6f3 	udiv	r6, r6, r3
				&& (p_cisnienie_akt <= cisnienie_10plus))
    4590:	f894 1057 	ldrb.w	r1, [r4, #87]	; 0x57

	image.aout[0] = (par[p_aktualny_program].CisnienieZadane);

	if (par[p_aktualny_program].CisnienieZadane > 0)
	{
		if (P_DK() && (p_cisnienie_akt >= cisnienie_10minus)
    4594:	19ad      	adds	r5, r5, r6
				&& (p_cisnienie_akt <= cisnienie_10plus))
    4596:	ea42 2201 	orr.w	r2, r2, r1, lsl #8

	image.aout[0] = (par[p_aktualny_program].CisnienieZadane);

	if (par[p_aktualny_program].CisnienieZadane > 0)
	{
		if (P_DK() && (p_cisnienie_akt >= cisnienie_10minus)
    459a:	b2ad      	uxth	r5, r5
    459c:	42aa      	cmp	r2, r5
    459e:	d910      	bls.n	45c2 <Cisnienie+0x102>
		{
			SET_CISNIENIE_OSIAGNIETE;
		}
		else
		{
			RESET_CISNIENIE_OSIAGNIETE;
    45a0:	4b13      	ldr	r3, [pc, #76]	; (45f0 <Cisnienie+0x130>)
    45a2:	7e1a      	ldrb	r2, [r3, #24]
    45a4:	7e59      	ldrb	r1, [r3, #25]
    45a6:	7e18      	ldrb	r0, [r3, #24]
    45a8:	ea42 2201 	orr.w	r2, r2, r1, lsl #8
    45ac:	f002 01bf 	and.w	r1, r2, #191	; 0xbf
    45b0:	7619      	strb	r1, [r3, #24]
    45b2:	0a12      	lsrs	r2, r2, #8
    45b4:	7e59      	ldrb	r1, [r3, #25]
    45b6:	765a      	strb	r2, [r3, #25]
    45b8:	e8bd 81f0 	ldmia.w	sp!, {r4, r5, r6, r7, r8, pc}
		}
	}
	else
	{
		if (P_DK())
    45bc:	f7ff ff76 	bl	44ac <P_DK>
    45c0:	b140      	cbz	r0, 45d4 <Cisnienie+0x114>
		{
			SET_CISNIENIE_OSIAGNIETE;
    45c2:	7e23      	ldrb	r3, [r4, #24]
    45c4:	7e62      	ldrb	r2, [r4, #25]
    45c6:	ea43 2302 	orr.w	r3, r3, r2, lsl #8
    45ca:	f043 0340 	orr.w	r3, r3, #64	; 0x40
    45ce:	f003 02ff 	and.w	r2, r3, #255	; 0xff
    45d2:	e005      	b.n	45e0 <Cisnienie+0x120>
		}
		else
		{
			RESET_CISNIENIE_OSIAGNIETE;
    45d4:	7e23      	ldrb	r3, [r4, #24]
    45d6:	7e62      	ldrb	r2, [r4, #25]
    45d8:	ea43 2302 	orr.w	r3, r3, r2, lsl #8
    45dc:	f003 02bf 	and.w	r2, r3, #191	; 0xbf
    45e0:	7e21      	ldrb	r1, [r4, #24]
    45e2:	0a1b      	lsrs	r3, r3, #8
    45e4:	7622      	strb	r2, [r4, #24]
    45e6:	7e62      	ldrb	r2, [r4, #25]
    45e8:	7663      	strb	r3, [r4, #25]
    45ea:	e8bd 81f0 	ldmia.w	sp!, {r4, r5, r6, r7, r8, pc}
    45ee:	bf00      	nop
    45f0:	20000ee4 	.word	0x20000ee4
    45f4:	20001b40 	.word	0x20001b40

000045f8 <P_WyblokowanieZezwolenie>:
		return false;
}

bool P_WyblokowanieZezwolenie(void)
{
	if ((image.i[0] & 0x08) > 0)
    45f8:	4b03      	ldr	r3, [pc, #12]	; (4608 <P_WyblokowanieZezwolenie+0x10>)
    45fa:	f893 004c 	ldrb.w	r0, [r3, #76]	; 0x4c
    45fe:	08c0      	lsrs	r0, r0, #3
		return true;
	else
		return false;
}
    4600:	f000 0001 	and.w	r0, r0, #1
    4604:	4770      	bx	lr
    4606:	bf00      	nop
    4608:	20000ee4 	.word	0x20000ee4

0000460c <P_ResetBledu>:
bool P_ResetBledu(void)
{
	static byte prev = 0;
	static byte act = 0;

	act = image.i[0] & 0x10;
    460c:	4b0a      	ldr	r3, [pc, #40]	; (4638 <P_ResetBledu+0x2c>)
    460e:	4a0b      	ldr	r2, [pc, #44]	; (463c <P_ResetBledu+0x30>)
    4610:	f893 304c 	ldrb.w	r3, [r3, #76]	; 0x4c

	if ((prev == 0) && (act > 0))
    4614:	f892 1046 	ldrb.w	r1, [r2, #70]	; 0x46
bool P_ResetBledu(void)
{
	static byte prev = 0;
	static byte act = 0;

	act = image.i[0] & 0x10;
    4618:	f003 0310 	and.w	r3, r3, #16
    461c:	f882 3045 	strb.w	r3, [r2, #69]	; 0x45

	if ((prev == 0) && (act > 0))
    4620:	b919      	cbnz	r1, 462a <P_ResetBledu+0x1e>
    4622:	b113      	cbz	r3, 462a <P_ResetBledu+0x1e>
		kasuj_blad = true;
    4624:	3101      	adds	r1, #1
    4626:	f882 1047 	strb.w	r1, [r2, #71]	; 0x47

	prev = act;
    462a:	4a04      	ldr	r2, [pc, #16]	; (463c <P_ResetBledu+0x30>)
    462c:	f882 3046 	strb.w	r3, [r2, #70]	; 0x46

	return kasuj_blad;
}
    4630:	f892 0047 	ldrb.w	r0, [r2, #71]	; 0x47
    4634:	4770      	bx	lr
    4636:	bf00      	nop
    4638:	20000ee4 	.word	0x20000ee4
    463c:	2000012c 	.word	0x2000012c

00004640 <P_NotAus>:

bool P_NotAus(void)
{
	if ((image.i[0] & 0x20) > 0)
    4640:	4b03      	ldr	r3, [pc, #12]	; (4650 <P_NotAus+0x10>)
    4642:	f893 004c 	ldrb.w	r0, [r3, #76]	; 0x4c
    4646:	0940      	lsrs	r0, r0, #5
		return true;
	else
		return false;
}
    4648:	f000 0001 	and.w	r0, r0, #1
    464c:	4770      	bx	lr
    464e:	bf00      	nop
    4650:	20000ee4 	.word	0x20000ee4

00004654 <P_Woda>:

bool P_Woda(void)
{
	if ((image.i[0] & 0x40) > 0)
    4654:	4b03      	ldr	r3, [pc, #12]	; (4664 <P_Woda+0x10>)
    4656:	f893 004c 	ldrb.w	r0, [r3, #76]	; 0x4c
    465a:	0980      	lsrs	r0, r0, #6
		return true;
	else
		return false;
}
    465c:	f000 0001 	and.w	r0, r0, #1
    4660:	4770      	bx	lr
    4662:	bf00      	nop
    4664:	20000ee4 	.word	0x20000ee4

00004668 <P_TempTrafo>:

bool P_TempTrafo(void)
{
	if ((image.i[0] & 0x80) > 0)
    4668:	4b02      	ldr	r3, [pc, #8]	; (4674 <P_TempTrafo+0xc>)
    466a:	f893 004c 	ldrb.w	r0, [r3, #76]	; 0x4c
		return true;
	else
		return false;
}
    466e:	09c0      	lsrs	r0, r0, #7
    4670:	4770      	bx	lr
    4672:	bf00      	nop
    4674:	20000ee4 	.word	0x20000ee4

00004678 <P_TempTyr>:

bool P_TempTyr(void)
{
	if ((image.i[1] & 0x01) > 0)
    4678:	4b02      	ldr	r3, [pc, #8]	; (4684 <P_TempTyr+0xc>)
    467a:	f893 004d 	ldrb.w	r0, [r3, #77]	; 0x4d
		return true;
	else
		return false;
}
    467e:	f000 0001 	and.w	r0, r0, #1
    4682:	4770      	bx	lr
    4684:	20000ee4 	.word	0x20000ee4

00004688 <P_Hydra>:

bool P_Hydra(void)
{
	if ((image.i[1] & 0x40) > 0)
    4688:	4b03      	ldr	r3, [pc, #12]	; (4698 <P_Hydra+0x10>)
    468a:	f893 004d 	ldrb.w	r0, [r3, #77]	; 0x4d
    468e:	0980      	lsrs	r0, r0, #6
		return true;
	else
		return false;
}
    4690:	f000 0001 	and.w	r0, r0, #1
    4694:	4770      	bx	lr
    4696:	bf00      	nop
    4698:	20000ee4 	.word	0x20000ee4

0000469c <P_ZPradem>:

bool P_ZPradem(void)
{
	if ((image.i[1] & 0x02) > 0)
    469c:	4b03      	ldr	r3, [pc, #12]	; (46ac <P_ZPradem+0x10>)
    469e:	f893 004d 	ldrb.w	r0, [r3, #77]	; 0x4d
    46a2:	0840      	lsrs	r0, r0, #1
		return true;
	else
		return false;
}
    46a4:	f000 0001 	and.w	r0, r0, #1
    46a8:	4770      	bx	lr
    46aa:	bf00      	nop
    46ac:	20000ee4 	.word	0x20000ee4

000046b0 <ProgramKopiuj>:
//*****************************************************************************
// Kopiowanie akualnego programu do struktury tymczasowej
//*****************************************************************************

void ProgramKopiuj(void)
{
    46b0:	b538      	push	{r3, r4, r5, lr}
	prog.CzasDociskuWstepnego = par[p_aktualny_program].CzasDociskuWstepnego;
    46b2:	4beb      	ldr	r3, [pc, #940]	; (4a60 <ProgramKopiuj+0x3b0>)
    46b4:	203c      	movs	r0, #60	; 0x3c
    46b6:	f893 2020 	ldrb.w	r2, [r3, #32]
    46ba:	f893 c021 	ldrb.w	ip, [r3, #33]	; 0x21
    46be:	49e9      	ldr	r1, [pc, #932]	; (4a64 <ProgramKopiuj+0x3b4>)
    46c0:	ea42 2c0c 	orr.w	ip, r2, ip, lsl #8
    46c4:	fb00 fc0c 	mul.w	ip, r0, ip
    46c8:	4ae7      	ldr	r2, [pc, #924]	; (4a68 <ProgramKopiuj+0x3b8>)
    46ca:	f81c c001 	ldrb.w	ip, [ip, r1]
    46ce:	f882 c000 	strb.w	ip, [r2]

	prog.PradPodgrzewaniaWstepnego
			= par[p_aktualny_program].PradPodgrzewaniaWstepnego;
    46d2:	f893 c020 	ldrb.w	ip, [r3, #32]
    46d6:	f893 e021 	ldrb.w	lr, [r3, #33]	; 0x21

void ProgramKopiuj(void)
{
	prog.CzasDociskuWstepnego = par[p_aktualny_program].CzasDociskuWstepnego;

	prog.PradPodgrzewaniaWstepnego
    46da:	6814      	ldr	r4, [r2, #0]
			= par[p_aktualny_program].PradPodgrzewaniaWstepnego;
    46dc:	ea4c 2c0e 	orr.w	ip, ip, lr, lsl #8

void ProgramKopiuj(void)
{
	prog.CzasDociskuWstepnego = par[p_aktualny_program].CzasDociskuWstepnego;

	prog.PradPodgrzewaniaWstepnego
    46e0:	fb00 fc0c 	mul.w	ip, r0, ip
    46e4:	f85c 5001 	ldr.w	r5, [ip, r1]
    46e8:	f3c5 2c0f 	ubfx	ip, r5, #8, #16
    46ec:	f36c 2417 	bfi	r4, ip, #8, #16
    46f0:	6014      	str	r4, [r2, #0]
			= par[p_aktualny_program].PradPodgrzewaniaWstepnego;
	prog.CzasPodgrzewaniaWstepnego
			= par[p_aktualny_program].CzasPodgrzewaniaWstepnego;
    46f2:	f893 c020 	ldrb.w	ip, [r3, #32]
    46f6:	f893 4021 	ldrb.w	r4, [r3, #33]	; 0x21
    46fa:	ea4c 2404 	orr.w	r4, ip, r4, lsl #8
{
	prog.CzasDociskuWstepnego = par[p_aktualny_program].CzasDociskuWstepnego;

	prog.PradPodgrzewaniaWstepnego
			= par[p_aktualny_program].PradPodgrzewaniaWstepnego;
	prog.CzasPodgrzewaniaWstepnego
    46fe:	fb00 1404 	mla	r4, r0, r4, r1
    4702:	f894 c003 	ldrb.w	ip, [r4, #3]
    4706:	f882 c003 	strb.w	ip, [r2, #3]
			= par[p_aktualny_program].CzasPodgrzewaniaWstepnego;
	prog.PauzaPodgrzewaniaWstepnego
			= par[p_aktualny_program].PauzaPodgrzewaniaWstepnego;
    470a:	f893 c020 	ldrb.w	ip, [r3, #32]
    470e:	f893 4021 	ldrb.w	r4, [r3, #33]	; 0x21
    4712:	ea4c 2404 	orr.w	r4, ip, r4, lsl #8

	prog.PradPodgrzewaniaWstepnego
			= par[p_aktualny_program].PradPodgrzewaniaWstepnego;
	prog.CzasPodgrzewaniaWstepnego
			= par[p_aktualny_program].CzasPodgrzewaniaWstepnego;
	prog.PauzaPodgrzewaniaWstepnego
    4716:	fb00 1404 	mla	r4, r0, r4, r1
    471a:	f894 c004 	ldrb.w	ip, [r4, #4]
    471e:	f882 c004 	strb.w	ip, [r2, #4]
			= par[p_aktualny_program].PauzaPodgrzewaniaWstepnego;

	prog.PradZgrzewania = par[p_aktualny_program].PradZgrzewania;
    4722:	f893 c020 	ldrb.w	ip, [r3, #32]
    4726:	f893 4021 	ldrb.w	r4, [r3, #33]	; 0x21
    472a:	ea4c 2404 	orr.w	r4, ip, r4, lsl #8
    472e:	fb00 1404 	mla	r4, r0, r4, r1
    4732:	6865      	ldr	r5, [r4, #4]
    4734:	6854      	ldr	r4, [r2, #4]
    4736:	f3c5 2c0f 	ubfx	ip, r5, #8, #16
    473a:	f36c 2417 	bfi	r4, ip, #8, #16
    473e:	6054      	str	r4, [r2, #4]
	prog.CzasZgrzewania = par[p_aktualny_program].CzasZgrzewania;
    4740:	f893 c020 	ldrb.w	ip, [r3, #32]
    4744:	f893 4021 	ldrb.w	r4, [r3, #33]	; 0x21
    4748:	ea4c 2404 	orr.w	r4, ip, r4, lsl #8
    474c:	fb00 1404 	mla	r4, r0, r4, r1
    4750:	f894 c007 	ldrb.w	ip, [r4, #7]
    4754:	f882 c007 	strb.w	ip, [r2, #7]

	prog.PauzaPodgrzewaniaKoncowego
			= par[p_aktualny_program].PauzaPodgrzewaniaKoncowego;
    4758:	f893 c020 	ldrb.w	ip, [r3, #32]
    475c:	f893 4021 	ldrb.w	r4, [r3, #33]	; 0x21
    4760:	ea4c 2404 	orr.w	r4, ip, r4, lsl #8
			= par[p_aktualny_program].PauzaPodgrzewaniaWstepnego;

	prog.PradZgrzewania = par[p_aktualny_program].PradZgrzewania;
	prog.CzasZgrzewania = par[p_aktualny_program].CzasZgrzewania;

	prog.PauzaPodgrzewaniaKoncowego
    4764:	fb00 1404 	mla	r4, r0, r4, r1
    4768:	f894 c008 	ldrb.w	ip, [r4, #8]
    476c:	f882 c008 	strb.w	ip, [r2, #8]
			= par[p_aktualny_program].PauzaPodgrzewaniaKoncowego;
	prog.PradPodgrzewaniaKoncowego
			= par[p_aktualny_program].PradPodgrzewaniaKoncowego;
    4770:	f893 c020 	ldrb.w	ip, [r3, #32]
    4774:	f893 4021 	ldrb.w	r4, [r3, #33]	; 0x21
    4778:	ea4c 2404 	orr.w	r4, ip, r4, lsl #8
	prog.PradZgrzewania = par[p_aktualny_program].PradZgrzewania;
	prog.CzasZgrzewania = par[p_aktualny_program].CzasZgrzewania;

	prog.PauzaPodgrzewaniaKoncowego
			= par[p_aktualny_program].PauzaPodgrzewaniaKoncowego;
	prog.PradPodgrzewaniaKoncowego
    477c:	fb00 1404 	mla	r4, r0, r4, r1
    4780:	68a5      	ldr	r5, [r4, #8]
    4782:	6894      	ldr	r4, [r2, #8]
    4784:	f3c5 2c0f 	ubfx	ip, r5, #8, #16
    4788:	f36c 2417 	bfi	r4, ip, #8, #16
    478c:	6094      	str	r4, [r2, #8]
			= par[p_aktualny_program].PradPodgrzewaniaKoncowego;
	prog.CzasPodgrzewaniaKoncowego
			= par[p_aktualny_program].CzasPodgrzewaniaKoncowego;
    478e:	f893 c020 	ldrb.w	ip, [r3, #32]
    4792:	f893 4021 	ldrb.w	r4, [r3, #33]	; 0x21
    4796:	ea4c 2404 	orr.w	r4, ip, r4, lsl #8

	prog.PauzaPodgrzewaniaKoncowego
			= par[p_aktualny_program].PauzaPodgrzewaniaKoncowego;
	prog.PradPodgrzewaniaKoncowego
			= par[p_aktualny_program].PradPodgrzewaniaKoncowego;
	prog.CzasPodgrzewaniaKoncowego
    479a:	fb00 1404 	mla	r4, r0, r4, r1
    479e:	f894 c00b 	ldrb.w	ip, [r4, #11]
    47a2:	f882 c00b 	strb.w	ip, [r2, #11]
			= par[p_aktualny_program].CzasPodgrzewaniaKoncowego;

	prog.CzasDociskuKoncowego = par[p_aktualny_program].CzasDociskuKoncowego;
    47a6:	f893 c020 	ldrb.w	ip, [r3, #32]
    47aa:	f893 4021 	ldrb.w	r4, [r3, #33]	; 0x21
    47ae:	ea4c 2404 	orr.w	r4, ip, r4, lsl #8
    47b2:	fb00 1404 	mla	r4, r0, r4, r1
    47b6:	f894 c00c 	ldrb.w	ip, [r4, #12]
    47ba:	f882 c00c 	strb.w	ip, [r2, #12]

	prog.ImpulsyIlosc = par[p_aktualny_program].ImpulsyIlosc;
    47be:	f893 c020 	ldrb.w	ip, [r3, #32]
    47c2:	f893 4021 	ldrb.w	r4, [r3, #33]	; 0x21
    47c6:	ea4c 2404 	orr.w	r4, ip, r4, lsl #8
    47ca:	fb00 1404 	mla	r4, r0, r4, r1
    47ce:	f894 c00d 	ldrb.w	ip, [r4, #13]
    47d2:	f882 c00d 	strb.w	ip, [r2, #13]
	prog.ImpulsyPauza = par[p_aktualny_program].ImpulsyPauza;
    47d6:	f893 c020 	ldrb.w	ip, [r3, #32]
    47da:	f893 4021 	ldrb.w	r4, [r3, #33]	; 0x21
    47de:	ea4c 2404 	orr.w	r4, ip, r4, lsl #8
    47e2:	fb00 1404 	mla	r4, r0, r4, r1
    47e6:	f894 c00e 	ldrb.w	ip, [r4, #14]
    47ea:	f882 c00e 	strb.w	ip, [r2, #14]

	prog.StepperProcent = par[p_aktualny_program].StepperProcent;
    47ee:	f893 c020 	ldrb.w	ip, [r3, #32]
    47f2:	f893 4021 	ldrb.w	r4, [r3, #33]	; 0x21
    47f6:	ea4c 2404 	orr.w	r4, ip, r4, lsl #8
    47fa:	fb00 1404 	mla	r4, r0, r4, r1
    47fe:	f894 c00f 	ldrb.w	ip, [r4, #15]
    4802:	f882 c00f 	strb.w	ip, [r2, #15]
	prog.StepperLicznik = par[p_aktualny_program].StepperLicznik;
    4806:	f893 c020 	ldrb.w	ip, [r3, #32]
    480a:	f893 4021 	ldrb.w	r4, [r3, #33]	; 0x21
    480e:	ea4c 2404 	orr.w	r4, ip, r4, lsl #8
    4812:	fb00 1404 	mla	r4, r0, r4, r1
    4816:	8a24      	ldrh	r4, [r4, #16]
    4818:	8214      	strh	r4, [r2, #16]

	prog.NumerCylindra = par[p_aktualny_program].NumerCylindra;
    481a:	f893 c020 	ldrb.w	ip, [r3, #32]
    481e:	f893 4021 	ldrb.w	r4, [r3, #33]	; 0x21
    4822:	ea4c 2404 	orr.w	r4, ip, r4, lsl #8
    4826:	fb00 1404 	mla	r4, r0, r4, r1
    482a:	f894 c012 	ldrb.w	ip, [r4, #18]
    482e:	f882 c012 	strb.w	ip, [r2, #18]
	prog.PozycjaCylindraDol = par[p_aktualny_program].PozycjaCylindraDol;
    4832:	f893 c020 	ldrb.w	ip, [r3, #32]
    4836:	f893 4021 	ldrb.w	r4, [r3, #33]	; 0x21
    483a:	ea4c 2404 	orr.w	r4, ip, r4, lsl #8
    483e:	fb00 1404 	mla	r4, r0, r4, r1
    4842:	3410      	adds	r4, #16
    4844:	f894 e004 	ldrb.w	lr, [r4, #4]
    4848:	f894 c003 	ldrb.w	ip, [r4, #3]
    484c:	ea4c 2c0e 	orr.w	ip, ip, lr, lsl #8
    4850:	f882 c013 	strb.w	ip, [r2, #19]
    4854:	ea4f 2c1c 	mov.w	ip, ip, lsr #8
    4858:	f882 c014 	strb.w	ip, [r2, #20]
	prog.PozycjaCylindraDolTolerancja
			= par[p_aktualny_program].PozycjaCylindraDolTolerancja;
    485c:	f893 c020 	ldrb.w	ip, [r3, #32]
    4860:	f893 4021 	ldrb.w	r4, [r3, #33]	; 0x21
    4864:	ea4c 2404 	orr.w	r4, ip, r4, lsl #8
	prog.StepperProcent = par[p_aktualny_program].StepperProcent;
	prog.StepperLicznik = par[p_aktualny_program].StepperLicznik;

	prog.NumerCylindra = par[p_aktualny_program].NumerCylindra;
	prog.PozycjaCylindraDol = par[p_aktualny_program].PozycjaCylindraDol;
	prog.PozycjaCylindraDolTolerancja
    4868:	fb00 1404 	mla	r4, r0, r4, r1
    486c:	6965      	ldr	r5, [r4, #20]
    486e:	6954      	ldr	r4, [r2, #20]
    4870:	f3c5 2c0f 	ubfx	ip, r5, #8, #16
    4874:	f36c 2417 	bfi	r4, ip, #8, #16
    4878:	6154      	str	r4, [r2, #20]
			= par[p_aktualny_program].PozycjaCylindraDolTolerancja;
	prog.Wtopienie = par[p_aktualny_program].Wtopienie;
    487a:	f893 c020 	ldrb.w	ip, [r3, #32]
    487e:	f893 4021 	ldrb.w	r4, [r3, #33]	; 0x21
    4882:	ea4c 2404 	orr.w	r4, ip, r4, lsl #8
    4886:	fb00 1404 	mla	r4, r0, r4, r1
    488a:	3410      	adds	r4, #16
    488c:	f894 e008 	ldrb.w	lr, [r4, #8]
    4890:	f894 c007 	ldrb.w	ip, [r4, #7]
    4894:	ea4c 2c0e 	orr.w	ip, ip, lr, lsl #8
    4898:	f882 c017 	strb.w	ip, [r2, #23]
    489c:	ea4f 2c1c 	mov.w	ip, ip, lsr #8
    48a0:	f882 c018 	strb.w	ip, [r2, #24]

	prog.CisnienieZadane = par[p_aktualny_program].CisnienieZadane;
    48a4:	f893 c020 	ldrb.w	ip, [r3, #32]
    48a8:	f893 4021 	ldrb.w	r4, [r3, #33]	; 0x21
    48ac:	ea4c 2404 	orr.w	r4, ip, r4, lsl #8
    48b0:	fb00 1404 	mla	r4, r0, r4, r1
    48b4:	69a5      	ldr	r5, [r4, #24]
    48b6:	6994      	ldr	r4, [r2, #24]
    48b8:	f3c5 2c0f 	ubfx	ip, r5, #8, #16
    48bc:	f36c 2417 	bfi	r4, ip, #8, #16
    48c0:	6194      	str	r4, [r2, #24]
	prog.CisnienieOsiagniete = par[p_aktualny_program].CisnienieOsiagniete;
    48c2:	f893 c020 	ldrb.w	ip, [r3, #32]
    48c6:	f893 4021 	ldrb.w	r4, [r3, #33]	; 0x21
    48ca:	ea4c 2404 	orr.w	r4, ip, r4, lsl #8
    48ce:	fb00 1404 	mla	r4, r0, r4, r1
    48d2:	3418      	adds	r4, #24
    48d4:	f894 e004 	ldrb.w	lr, [r4, #4]
    48d8:	f894 c003 	ldrb.w	ip, [r4, #3]
    48dc:	ea4c 2c0e 	orr.w	ip, ip, lr, lsl #8
    48e0:	f882 c01b 	strb.w	ip, [r2, #27]
    48e4:	ea4f 2c1c 	mov.w	ip, ip, lsr #8
    48e8:	f882 c01c 	strb.w	ip, [r2, #28]

	prog.KontrolaPrzezWydmuch = par[p_aktualny_program].KontrolaPrzezWydmuch;
    48ec:	f893 c020 	ldrb.w	ip, [r3, #32]
    48f0:	f893 4021 	ldrb.w	r4, [r3, #33]	; 0x21
    48f4:	ea4c 2404 	orr.w	r4, ip, r4, lsl #8
    48f8:	fb00 1404 	mla	r4, r0, r4, r1
    48fc:	69e5      	ldr	r5, [r4, #28]
    48fe:	69d4      	ldr	r4, [r2, #28]
    4900:	f3c5 2c0f 	ubfx	ip, r5, #8, #16
    4904:	f36c 2417 	bfi	r4, ip, #8, #16
    4908:	61d4      	str	r4, [r2, #28]
	prog.KontrolaPrzezWydmuchTol
			= par[p_aktualny_program].KontrolaPrzezWydmuchTol;
    490a:	f893 c020 	ldrb.w	ip, [r3, #32]
    490e:	f893 4021 	ldrb.w	r4, [r3, #33]	; 0x21
    4912:	ea4c 2404 	orr.w	r4, ip, r4, lsl #8

	prog.CisnienieZadane = par[p_aktualny_program].CisnienieZadane;
	prog.CisnienieOsiagniete = par[p_aktualny_program].CisnienieOsiagniete;

	prog.KontrolaPrzezWydmuch = par[p_aktualny_program].KontrolaPrzezWydmuch;
	prog.KontrolaPrzezWydmuchTol
    4916:	fb00 1404 	mla	r4, r0, r4, r1
    491a:	3418      	adds	r4, #24
    491c:	f894 e008 	ldrb.w	lr, [r4, #8]
    4920:	f894 c007 	ldrb.w	ip, [r4, #7]
    4924:	ea4c 2c0e 	orr.w	ip, ip, lr, lsl #8
    4928:	f882 c01f 	strb.w	ip, [r2, #31]
    492c:	ea4f 2c1c 	mov.w	ip, ip, lsr #8
    4930:	f882 c020 	strb.w	ip, [r2, #32]
			= par[p_aktualny_program].KontrolaPrzezWydmuchTol;

	prog.Iref = par[p_aktualny_program].Iref;
    4934:	f893 c020 	ldrb.w	ip, [r3, #32]
    4938:	f893 4021 	ldrb.w	r4, [r3, #33]	; 0x21
    493c:	ea4c 2404 	orr.w	r4, ip, r4, lsl #8
    4940:	fb00 1404 	mla	r4, r0, r4, r1
    4944:	6a25      	ldr	r5, [r4, #32]
    4946:	6a14      	ldr	r4, [r2, #32]
    4948:	f3c5 2c0f 	ubfx	ip, r5, #8, #16
    494c:	f36c 2417 	bfi	r4, ip, #8, #16
    4950:	6214      	str	r4, [r2, #32]
	prog.IrefTolerancja = par[p_aktualny_program].IrefTolerancja;
    4952:	f893 c020 	ldrb.w	ip, [r3, #32]
    4956:	f893 4021 	ldrb.w	r4, [r3, #33]	; 0x21
    495a:	ea4c 2404 	orr.w	r4, ip, r4, lsl #8
    495e:	fb00 1404 	mla	r4, r0, r4, r1
    4962:	f894 c023 	ldrb.w	ip, [r4, #35]	; 0x23
    4966:	f882 c023 	strb.w	ip, [r2, #35]	; 0x23
	prog.Iakt = par[p_aktualny_program].CzasDociskuWstepnego;
    496a:	f893 c020 	ldrb.w	ip, [r3, #32]
    496e:	f893 e021 	ldrb.w	lr, [r3, #33]	; 0x21
    4972:	ea4c 2c0e 	orr.w	ip, ip, lr, lsl #8
    4976:	fb00 fc0c 	mul.w	ip, r0, ip
    497a:	f81c c001 	ldrb.w	ip, [ip, r1]
    497e:	f8a2 c024 	strh.w	ip, [r2, #36]	; 0x24
	prog.Uref = par[p_aktualny_program].Iakt;
    4982:	f893 c020 	ldrb.w	ip, [r3, #32]
    4986:	f893 4021 	ldrb.w	r4, [r3, #33]	; 0x21
    498a:	ea4c 2404 	orr.w	r4, ip, r4, lsl #8
    498e:	fb00 1404 	mla	r4, r0, r4, r1
    4992:	8ca4      	ldrh	r4, [r4, #36]	; 0x24
    4994:	84d4      	strh	r4, [r2, #38]	; 0x26
	prog.UrefTolerancja = par[p_aktualny_program].Uref;
    4996:	f893 c020 	ldrb.w	ip, [r3, #32]
    499a:	f893 4021 	ldrb.w	r4, [r3, #33]	; 0x21
    499e:	ea4c 2404 	orr.w	r4, ip, r4, lsl #8
    49a2:	fb00 1404 	mla	r4, r0, r4, r1
    49a6:	f8b4 c026 	ldrh.w	ip, [r4, #38]	; 0x26
    49aa:	f882 c028 	strb.w	ip, [r2, #40]	; 0x28
	prog.Uakt = par[p_aktualny_program].Uakt;
    49ae:	f893 c020 	ldrb.w	ip, [r3, #32]
    49b2:	f893 4021 	ldrb.w	r4, [r3, #33]	; 0x21
    49b6:	ea4c 2404 	orr.w	r4, ip, r4, lsl #8
    49ba:	fb00 1404 	mla	r4, r0, r4, r1
    49be:	6aa5      	ldr	r5, [r4, #40]	; 0x28
    49c0:	6a94      	ldr	r4, [r2, #40]	; 0x28
    49c2:	f3c5 2c0f 	ubfx	ip, r5, #8, #16
    49c6:	f36c 2417 	bfi	r4, ip, #8, #16
    49ca:	6294      	str	r4, [r2, #40]	; 0x28
	prog.Eref = par[p_aktualny_program].Eref;
    49cc:	f893 c020 	ldrb.w	ip, [r3, #32]
    49d0:	f893 4021 	ldrb.w	r4, [r3, #33]	; 0x21
    49d4:	ea4c 2404 	orr.w	r4, ip, r4, lsl #8
    49d8:	fb00 1404 	mla	r4, r0, r4, r1
    49dc:	3428      	adds	r4, #40	; 0x28
    49de:	f894 e004 	ldrb.w	lr, [r4, #4]
    49e2:	f894 c003 	ldrb.w	ip, [r4, #3]
    49e6:	ea4c 2c0e 	orr.w	ip, ip, lr, lsl #8
    49ea:	f882 c02b 	strb.w	ip, [r2, #43]	; 0x2b
    49ee:	ea4f 2c1c 	mov.w	ip, ip, lsr #8
    49f2:	f882 c02c 	strb.w	ip, [r2, #44]	; 0x2c
	prog.ErefTolerancja = par[p_aktualny_program].ErefTolerancja;
    49f6:	f893 c020 	ldrb.w	ip, [r3, #32]
    49fa:	f893 4021 	ldrb.w	r4, [r3, #33]	; 0x21
    49fe:	ea4c 2404 	orr.w	r4, ip, r4, lsl #8
    4a02:	fb00 1404 	mla	r4, r0, r4, r1
    4a06:	f894 c02d 	ldrb.w	ip, [r4, #45]	; 0x2d
    4a0a:	f882 c02d 	strb.w	ip, [r2, #45]	; 0x2d
	prog.Eakt = par[p_aktualny_program].Eakt;
    4a0e:	f893 c020 	ldrb.w	ip, [r3, #32]
    4a12:	f893 4021 	ldrb.w	r4, [r3, #33]	; 0x21
    4a16:	ea4c 2404 	orr.w	r4, ip, r4, lsl #8
    4a1a:	fb00 1404 	mla	r4, r0, r4, r1
    4a1e:	8de4      	ldrh	r4, [r4, #46]	; 0x2e
    4a20:	85d4      	strh	r4, [r2, #46]	; 0x2e

	prog.CzujnikiStartKonfig = par[p_aktualny_program].CzujnikiStartKonfig;
    4a22:	f893 c020 	ldrb.w	ip, [r3, #32]
    4a26:	f893 4021 	ldrb.w	r4, [r3, #33]	; 0x21
    4a2a:	ea4c 2404 	orr.w	r4, ip, r4, lsl #8
    4a2e:	fb00 1404 	mla	r4, r0, r4, r1
    4a32:	8e24      	ldrh	r4, [r4, #48]	; 0x30
    4a34:	8614      	strh	r4, [r2, #48]	; 0x30
	prog.CzujnikiStartSygnaly = par[p_aktualny_program].CzujnikiStartSygnaly;
    4a36:	f893 c020 	ldrb.w	ip, [r3, #32]
    4a3a:	f893 4021 	ldrb.w	r4, [r3, #33]	; 0x21
    4a3e:	ea4c 2404 	orr.w	r4, ip, r4, lsl #8
    4a42:	fb00 1404 	mla	r4, r0, r4, r1
    4a46:	8e64      	ldrh	r4, [r4, #50]	; 0x32
    4a48:	8654      	strh	r4, [r2, #50]	; 0x32
	prog.CzujnikiDKKonfig = par[p_aktualny_program].CzujnikiDKKonfig;
    4a4a:	f893 c020 	ldrb.w	ip, [r3, #32]
    4a4e:	f893 4021 	ldrb.w	r4, [r3, #33]	; 0x21
    4a52:	ea4c 2404 	orr.w	r4, ip, r4, lsl #8
    4a56:	fb00 1404 	mla	r4, r0, r4, r1
    4a5a:	8ea4      	ldrh	r4, [r4, #52]	; 0x34
    4a5c:	8694      	strh	r4, [r2, #52]	; 0x34
    4a5e:	e005      	b.n	4a6c <ProgramKopiuj+0x3bc>
    4a60:	20000ee4 	.word	0x20000ee4
    4a64:	20001b40 	.word	0x20001b40
    4a68:	20001b04 	.word	0x20001b04
	prog.CzujnikiDKSygnaly = par[p_aktualny_program].CzujnikiDKSygnaly;
    4a6c:	f893 c020 	ldrb.w	ip, [r3, #32]
    4a70:	f893 4021 	ldrb.w	r4, [r3, #33]	; 0x21
    4a74:	ea4c 2404 	orr.w	r4, ip, r4, lsl #8
    4a78:	fb00 1404 	mla	r4, r0, r4, r1
    4a7c:	8ee4      	ldrh	r4, [r4, #54]	; 0x36
    4a7e:	86d4      	strh	r4, [r2, #54]	; 0x36

	prog.Wyjscia = par[p_aktualny_program].Wyjscia;
    4a80:	f893 c020 	ldrb.w	ip, [r3, #32]
    4a84:	f893 4021 	ldrb.w	r4, [r3, #33]	; 0x21
    4a88:	ea4c 2404 	orr.w	r4, ip, r4, lsl #8
    4a8c:	fb00 1404 	mla	r4, r0, r4, r1
    4a90:	8f24      	ldrh	r4, [r4, #56]	; 0x38
    4a92:	8714      	strh	r4, [r2, #56]	; 0x38
	prog.Konfig = par[p_aktualny_program].Konfig;
    4a94:	f893 c020 	ldrb.w	ip, [r3, #32]
    4a98:	f893 e021 	ldrb.w	lr, [r3, #33]	; 0x21

	ostatni_program = p_aktualny_program;
    4a9c:	4c07      	ldr	r4, [pc, #28]	; (4abc <ProgramKopiuj+0x40c>)
	prog.CzujnikiStartSygnaly = par[p_aktualny_program].CzujnikiStartSygnaly;
	prog.CzujnikiDKKonfig = par[p_aktualny_program].CzujnikiDKKonfig;
	prog.CzujnikiDKSygnaly = par[p_aktualny_program].CzujnikiDKSygnaly;

	prog.Wyjscia = par[p_aktualny_program].Wyjscia;
	prog.Konfig = par[p_aktualny_program].Konfig;
    4a9e:	ea4c 2c0e 	orr.w	ip, ip, lr, lsl #8
    4aa2:	fb00 110c 	mla	r1, r0, ip, r1
    4aa6:	8f49      	ldrh	r1, [r1, #58]	; 0x3a
    4aa8:	8751      	strh	r1, [r2, #58]	; 0x3a

	ostatni_program = p_aktualny_program;
    4aaa:	f893 2020 	ldrb.w	r2, [r3, #32]
    4aae:	f893 3021 	ldrb.w	r3, [r3, #33]	; 0x21
    4ab2:	70e2      	strb	r2, [r4, #3]

	z_pradem = P_ZPradem();
    4ab4:	f7ff fdf2 	bl	469c <P_ZPradem>
    4ab8:	7420      	strb	r0, [r4, #16]
}
    4aba:	bd38      	pop	{r3, r4, r5, pc}
    4abc:	2000012c 	.word	0x2000012c

00004ac0 <P_ZezwolenieProgramowania>:
		return false;
}

bool P_ZezwolenieProgramowania(void)
{
	if ((image.i[1] & 0x04) > 0)
    4ac0:	4b03      	ldr	r3, [pc, #12]	; (4ad0 <P_ZezwolenieProgramowania+0x10>)
    4ac2:	f893 004d 	ldrb.w	r0, [r3, #77]	; 0x4d
    4ac6:	0880      	lsrs	r0, r0, #2
		return true;
	else
		return false;
}
    4ac8:	f000 0001 	and.w	r0, r0, #1
    4acc:	4770      	bx	lr
    4ace:	bf00      	nop
    4ad0:	20000ee4 	.word	0x20000ee4

00004ad4 <P_KasujLicznik>:
	bool retval = false;

	static byte prev = 0;
	static byte act = 0;

	act = image.i[1] & 0x08;
    4ad4:	4b09      	ldr	r3, [pc, #36]	; (4afc <P_KasujLicznik+0x28>)
    4ad6:	4a0a      	ldr	r2, [pc, #40]	; (4b00 <P_KasujLicznik+0x2c>)
    4ad8:	f893 304d 	ldrb.w	r3, [r3, #77]	; 0x4d
    4adc:	f003 0308 	and.w	r3, r3, #8
    4ae0:	f882 3048 	strb.w	r3, [r2, #72]	; 0x48

	if ((prev == 0) && (act > 0))
    4ae4:	f892 2049 	ldrb.w	r2, [r2, #73]	; 0x49
    4ae8:	b10a      	cbz	r2, 4aee <P_KasujLicznik+0x1a>
    4aea:	2000      	movs	r0, #0
    4aec:	e002      	b.n	4af4 <P_KasujLicznik+0x20>
    4aee:	1e18      	subs	r0, r3, #0
    4af0:	bf18      	it	ne
    4af2:	2001      	movne	r0, #1
		retval = true;
	else
		retval = false;

	prev = act;
    4af4:	4a02      	ldr	r2, [pc, #8]	; (4b00 <P_KasujLicznik+0x2c>)
    4af6:	f882 3049 	strb.w	r3, [r2, #73]	; 0x49

	return retval;
}
    4afa:	4770      	bx	lr
    4afc:	20000ee4 	.word	0x20000ee4
    4b00:	2000012c 	.word	0x2000012c

00004b04 <P_KasujLicznikStepper>:
	bool retval = false;

	static byte prev = 0;
	static byte act = 0;

	act = image.i[1] & 0x10;
    4b04:	4b09      	ldr	r3, [pc, #36]	; (4b2c <P_KasujLicznikStepper+0x28>)
    4b06:	4a0a      	ldr	r2, [pc, #40]	; (4b30 <P_KasujLicznikStepper+0x2c>)
    4b08:	f893 304d 	ldrb.w	r3, [r3, #77]	; 0x4d
    4b0c:	f003 0310 	and.w	r3, r3, #16
    4b10:	f882 304a 	strb.w	r3, [r2, #74]	; 0x4a

	if ((prev == 0) && (act > 0))
    4b14:	f892 204b 	ldrb.w	r2, [r2, #75]	; 0x4b
    4b18:	b10a      	cbz	r2, 4b1e <P_KasujLicznikStepper+0x1a>
    4b1a:	2000      	movs	r0, #0
    4b1c:	e002      	b.n	4b24 <P_KasujLicznikStepper+0x20>
    4b1e:	1e18      	subs	r0, r3, #0
    4b20:	bf18      	it	ne
    4b22:	2001      	movne	r0, #1
		retval = true;
	else
		retval = false;

	prev = act;
    4b24:	4a02      	ldr	r2, [pc, #8]	; (4b30 <P_KasujLicznikStepper+0x2c>)
    4b26:	f882 304b 	strb.w	r3, [r2, #75]	; 0x4b

	return retval;
}
    4b2a:	4770      	bx	lr
    4b2c:	20000ee4 	.word	0x20000ee4
    4b30:	2000012c 	.word	0x2000012c

00004b34 <P_CylinderUGory>:

bool P_CylinderUGory(void)
{
	if ((image.i[1] & 0x20) > 0)
    4b34:	4b03      	ldr	r3, [pc, #12]	; (4b44 <P_CylinderUGory+0x10>)
    4b36:	f893 004d 	ldrb.w	r0, [r3, #77]	; 0x4d
    4b3a:	0940      	lsrs	r0, r0, #5
		return true;
	else
		return false;
}
    4b3c:	f000 0001 	and.w	r0, r0, #1
    4b40:	4770      	bx	lr
    4b42:	bf00      	nop
    4b44:	20000ee4 	.word	0x20000ee4

00004b48 <CylinderUGory>:
//*****************************************************************************
// Wynik porwnania pozycji cylindraq - jeeli w grze to true
//*****************************************************************************

void CylinderUGory(void)
{
    4b48:	b508      	push	{r3, lr}
	if (P_CylinderUGory() || ((p_cylinder_akt > p_cylinder_gora
    4b4a:	f7ff fff3 	bl	4b34 <P_CylinderUGory>
    4b4e:	bb18      	cbnz	r0, 4b98 <CylinderUGory+0x50>
    4b50:	4b1d      	ldr	r3, [pc, #116]	; (4bc8 <CylinderUGory+0x80>)
    4b52:	f893 2058 	ldrb.w	r2, [r3, #88]	; 0x58
    4b56:	f893 1059 	ldrb.w	r1, [r3, #89]	; 0x59
    4b5a:	ea42 2101 	orr.w	r1, r2, r1, lsl #8
    4b5e:	7d9a      	ldrb	r2, [r3, #22]
    4b60:	7dd8      	ldrb	r0, [r3, #23]
    4b62:	ea42 2000 	orr.w	r0, r2, r0, lsl #8
			- p_cylinder_tol) && (p_cylinder_akt < p_cylinder_gora
    4b66:	7f9a      	ldrb	r2, [r3, #30]
    4b68:	f893 c01f 	ldrb.w	ip, [r3, #31]
    4b6c:	ea42 220c 	orr.w	r2, r2, ip, lsl #8
// Wynik porwnania pozycji cylindraq - jeeli w grze to true
//*****************************************************************************

void CylinderUGory(void)
{
	if (P_CylinderUGory() || ((p_cylinder_akt > p_cylinder_gora
    4b70:	1a82      	subs	r2, r0, r2
    4b72:	4291      	cmp	r1, r2
    4b74:	dd1a      	ble.n	4bac <CylinderUGory+0x64>
			- p_cylinder_tol) && (p_cylinder_akt < p_cylinder_gora
    4b76:	f893 2058 	ldrb.w	r2, [r3, #88]	; 0x58
    4b7a:	f893 1059 	ldrb.w	r1, [r3, #89]	; 0x59
    4b7e:	ea42 2201 	orr.w	r2, r2, r1, lsl #8
    4b82:	7d99      	ldrb	r1, [r3, #22]
    4b84:	7dd8      	ldrb	r0, [r3, #23]
    4b86:	ea41 2100 	orr.w	r1, r1, r0, lsl #8
			+ p_cylinder_tol)))
    4b8a:	7f98      	ldrb	r0, [r3, #30]
    4b8c:	7fdb      	ldrb	r3, [r3, #31]
    4b8e:	ea40 2303 	orr.w	r3, r0, r3, lsl #8
// Wynik porwnania pozycji cylindraq - jeeli w grze to true
//*****************************************************************************

void CylinderUGory(void)
{
	if (P_CylinderUGory() || ((p_cylinder_akt > p_cylinder_gora
    4b92:	185b      	adds	r3, r3, r1
    4b94:	429a      	cmp	r2, r3
    4b96:	da09      	bge.n	4bac <CylinderUGory+0x64>
			- p_cylinder_tol) && (p_cylinder_akt < p_cylinder_gora
			+ p_cylinder_tol)))
		SET_CYL_U_GORY;
    4b98:	4b0b      	ldr	r3, [pc, #44]	; (4bc8 <CylinderUGory+0x80>)
    4b9a:	7e1a      	ldrb	r2, [r3, #24]
    4b9c:	7e59      	ldrb	r1, [r3, #25]
    4b9e:	ea42 2201 	orr.w	r2, r2, r1, lsl #8
    4ba2:	f042 0220 	orr.w	r2, r2, #32
    4ba6:	f002 01ff 	and.w	r1, r2, #255	; 0xff
    4baa:	e006      	b.n	4bba <CylinderUGory+0x72>
	else
		RESET_CYL_U_GORY;
    4bac:	4b06      	ldr	r3, [pc, #24]	; (4bc8 <CylinderUGory+0x80>)
    4bae:	7e1a      	ldrb	r2, [r3, #24]
    4bb0:	7e59      	ldrb	r1, [r3, #25]
    4bb2:	ea42 2201 	orr.w	r2, r2, r1, lsl #8
    4bb6:	f002 01df 	and.w	r1, r2, #223	; 0xdf
    4bba:	7e18      	ldrb	r0, [r3, #24]
    4bbc:	0a12      	lsrs	r2, r2, #8
    4bbe:	7619      	strb	r1, [r3, #24]
    4bc0:	7e59      	ldrb	r1, [r3, #25]
    4bc2:	765a      	strb	r2, [r3, #25]
    4bc4:	bd08      	pop	{r3, pc}
    4bc6:	bf00      	nop
    4bc8:	20000ee4 	.word	0x20000ee4

00004bcc <P_SluzaSygnal>:
		return false;
}

bool P_SluzaSygnal(void)
{
	if ((image.i[1] & 0x80) > 0)
    4bcc:	4b02      	ldr	r3, [pc, #8]	; (4bd8 <P_SluzaSygnal+0xc>)
    4bce:	f893 004d 	ldrb.w	r0, [r3, #77]	; 0x4d
		return true;
	else
		return false;
}
    4bd2:	09c0      	lsrs	r0, r0, #7
    4bd4:	4770      	bx	lr
    4bd6:	bf00      	nop
    4bd8:	20000ee4 	.word	0x20000ee4

00004bdc <P_SluzaSygnal_N>:
	bool retval = false;

	static byte prev = 0;
	static byte act = 0;

	act = image.i[1] & 0x80;
    4bdc:	4b09      	ldr	r3, [pc, #36]	; (4c04 <P_SluzaSygnal_N+0x28>)
    4bde:	4a0a      	ldr	r2, [pc, #40]	; (4c08 <P_SluzaSygnal_N+0x2c>)
    4be0:	f893 304d 	ldrb.w	r3, [r3, #77]	; 0x4d

	if ((prev > 0) && (act == 0))
    4be4:	f892 004d 	ldrb.w	r0, [r2, #77]	; 0x4d
	bool retval = false;

	static byte prev = 0;
	static byte act = 0;

	act = image.i[1] & 0x80;
    4be8:	f003 0380 	and.w	r3, r3, #128	; 0x80
    4bec:	f882 304c 	strb.w	r3, [r2, #76]	; 0x4c

	if ((prev > 0) && (act == 0))
    4bf0:	b118      	cbz	r0, 4bfa <P_SluzaSygnal_N+0x1e>
    4bf2:	f1d3 0001 	rsbs	r0, r3, #1
    4bf6:	bf38      	it	cc
    4bf8:	2000      	movcc	r0, #0
		retval = true;
	else
		retval = false;

	prev = act;
    4bfa:	4a03      	ldr	r2, [pc, #12]	; (4c08 <P_SluzaSygnal_N+0x2c>)
    4bfc:	f882 304d 	strb.w	r3, [r2, #77]	; 0x4d

	return retval;
}
    4c00:	4770      	bx	lr
    4c02:	bf00      	nop
    4c04:	20000ee4 	.word	0x20000ee4
    4c08:	2000012c 	.word	0x2000012c

00004c0c <P_Czujniki>:

word P_Czujniki(void)
{
	return (image.i[2] + ((image.i[3] & 0x3f) << 8));
    4c0c:	4b04      	ldr	r3, [pc, #16]	; (4c20 <P_Czujniki+0x14>)
    4c0e:	f893 204e 	ldrb.w	r2, [r3, #78]	; 0x4e
    4c12:	f893 004f 	ldrb.w	r0, [r3, #79]	; 0x4f
    4c16:	f000 003f 	and.w	r0, r0, #63	; 0x3f
}
    4c1a:	eb02 2000 	add.w	r0, r2, r0, lsl #8
    4c1e:	4770      	bx	lr
    4c20:	20000ee4 	.word	0x20000ee4

00004c24 <KontrolaDynamiczna_ZbieranieSygnalow>:
//*****************************************************************************
// Odczyt konfiguracji czujnikw z cyklu i ustawienie zmiennych w celu szukania
// pniejeszego na odpowiednich bitach
//*****************************************************************************
void KontrolaDynamiczna_ZbieranieSygnalow(void)
{
    4c24:	b538      	push	{r3, r4, r5, lr}
	// Kasujemy bit w kontroli 1 jeeli pojawi si 0 na danym bicie
	kontrola_dyn_1 &= P_Czujniki();
    4c26:	4c06      	ldr	r4, [pc, #24]	; (4c40 <KontrolaDynamiczna_ZbieranieSygnalow+0x1c>)
    4c28:	8e25      	ldrh	r5, [r4, #48]	; 0x30
    4c2a:	f7ff ffef 	bl	4c0c <P_Czujniki>
    4c2e:	4028      	ands	r0, r5
    4c30:	8620      	strh	r0, [r4, #48]	; 0x30
	kontrola_dyn_0 &= ~P_Czujniki();
    4c32:	8e65      	ldrh	r5, [r4, #50]	; 0x32
    4c34:	f7ff ffea 	bl	4c0c <P_Czujniki>
    4c38:	ea25 0000 	bic.w	r0, r5, r0
    4c3c:	8660      	strh	r0, [r4, #50]	; 0x32
}
    4c3e:	bd38      	pop	{r3, r4, r5, pc}
    4c40:	2000012c 	.word	0x2000012c

00004c44 <P_CzujnikiZezwoleniePrzyStarcie>:
{
	return (image.i[2] + ((image.i[3] & 0x3f) << 8));
}

bool P_CzujnikiZezwoleniePrzyStarcie(void)
{
    4c44:	b538      	push	{r3, r4, r5, lr}
	if ((prog.CzujnikiStartKonfig & prog.CzujnikiStartSygnaly) == (P_Czujniki()
    4c46:	4c05      	ldr	r4, [pc, #20]	; (4c5c <P_CzujnikiZezwoleniePrzyStarcie+0x18>)
    4c48:	8e65      	ldrh	r5, [r4, #50]	; 0x32
    4c4a:	f7ff ffdf 	bl	4c0c <P_Czujniki>
    4c4e:	8e23      	ldrh	r3, [r4, #48]	; 0x30
    4c50:	4068      	eors	r0, r5
    4c52:	4218      	tst	r0, r3
			& prog.CzujnikiStartKonfig))
		return true;
	else
		return false;
}
    4c54:	bf14      	ite	ne
    4c56:	2000      	movne	r0, #0
    4c58:	2001      	moveq	r0, #1
    4c5a:	bd38      	pop	{r3, r4, r5, pc}
    4c5c:	20001b04 	.word	0x20001b04

00004c60 <P_CzujnikiZezwoleniePrzyDK>:

bool P_CzujnikiZezwoleniePrzyDK(void)
{
    4c60:	b538      	push	{r3, r4, r5, lr}
	if ((prog.CzujnikiDKKonfig & prog.CzujnikiDKSygnaly) == (P_Czujniki()
    4c62:	4c05      	ldr	r4, [pc, #20]	; (4c78 <P_CzujnikiZezwoleniePrzyDK+0x18>)
    4c64:	8ee5      	ldrh	r5, [r4, #54]	; 0x36
    4c66:	f7ff ffd1 	bl	4c0c <P_Czujniki>
    4c6a:	8ea3      	ldrh	r3, [r4, #52]	; 0x34
    4c6c:	4068      	eors	r0, r5
    4c6e:	4218      	tst	r0, r3
			& prog.CzujnikiDKKonfig))
		return true;
	else
		return false;
}
    4c70:	bf14      	ite	ne
    4c72:	2000      	movne	r0, #0
    4c74:	2001      	moveq	r0, #1
    4c76:	bd38      	pop	{r3, r4, r5, pc}
    4c78:	20001b04 	.word	0x20001b04

00004c7c <P_Impuls>:
	else
		ResetHard_Q00();
}

void P_Impuls(bool in)
{
    4c7c:	4b05      	ldr	r3, [pc, #20]	; (4c94 <P_Impuls+0x18>)
	if (in == true)
    4c7e:	2801      	cmp	r0, #1
		image.q[0] |= 0x01;
    4c80:	f893 2040 	ldrb.w	r2, [r3, #64]	; 0x40
    4c84:	bf0c      	ite	eq
    4c86:	f042 0201 	orreq.w	r2, r2, #1
	else
		image.q[0] &= ~0x01;
    4c8a:	f002 02fe 	andne.w	r2, r2, #254	; 0xfe
    4c8e:	f883 2040 	strb.w	r2, [r3, #64]	; 0x40
    4c92:	4770      	bx	lr
    4c94:	20000ee4 	.word	0x20000ee4

00004c98 <P_CylindryStart>:
		image.q[2] &= ~0x40;
}

void P_CylindryStart(bool in)
{
	if (in && ((prog.NumerCylindra & 0x01) > 0))
    4c98:	4603      	mov	r3, r0
    4c9a:	b160      	cbz	r0, 4cb6 <P_CylindryStart+0x1e>
    4c9c:	4a33      	ldr	r2, [pc, #204]	; (4d6c <P_CylindryStart+0xd4>)
    4c9e:	7c92      	ldrb	r2, [r2, #18]
    4ca0:	f012 0f01 	tst.w	r2, #1
    4ca4:	d007      	beq.n	4cb6 <P_CylindryStart+0x1e>
		image.q[0] |= 0x02;
    4ca6:	4a32      	ldr	r2, [pc, #200]	; (4d70 <P_CylindryStart+0xd8>)
    4ca8:	f892 1040 	ldrb.w	r1, [r2, #64]	; 0x40
    4cac:	f041 0102 	orr.w	r1, r1, #2
    4cb0:	f882 1040 	strb.w	r1, [r2, #64]	; 0x40
    4cb4:	e007      	b.n	4cc6 <P_CylindryStart+0x2e>
	else
		image.q[0] &= ~0x02;
    4cb6:	4a2e      	ldr	r2, [pc, #184]	; (4d70 <P_CylindryStart+0xd8>)
    4cb8:	f892 1040 	ldrb.w	r1, [r2, #64]	; 0x40
    4cbc:	f001 01fd 	and.w	r1, r1, #253	; 0xfd
    4cc0:	f882 1040 	strb.w	r1, [r2, #64]	; 0x40

	if (in && ((prog.NumerCylindra & 0x02) > 0))
    4cc4:	b163      	cbz	r3, 4ce0 <P_CylindryStart+0x48>
    4cc6:	4a29      	ldr	r2, [pc, #164]	; (4d6c <P_CylindryStart+0xd4>)
    4cc8:	7c92      	ldrb	r2, [r2, #18]
    4cca:	f012 0f02 	tst.w	r2, #2
    4cce:	d007      	beq.n	4ce0 <P_CylindryStart+0x48>
		image.q[0] |= 0x04;
    4cd0:	4a27      	ldr	r2, [pc, #156]	; (4d70 <P_CylindryStart+0xd8>)
    4cd2:	f892 1040 	ldrb.w	r1, [r2, #64]	; 0x40
    4cd6:	f041 0104 	orr.w	r1, r1, #4
    4cda:	f882 1040 	strb.w	r1, [r2, #64]	; 0x40
    4cde:	e007      	b.n	4cf0 <P_CylindryStart+0x58>
	else
		image.q[0] &= ~0x04;
    4ce0:	4a23      	ldr	r2, [pc, #140]	; (4d70 <P_CylindryStart+0xd8>)
    4ce2:	f892 1040 	ldrb.w	r1, [r2, #64]	; 0x40
    4ce6:	f001 01fb 	and.w	r1, r1, #251	; 0xfb
    4cea:	f882 1040 	strb.w	r1, [r2, #64]	; 0x40

	if (in && ((prog.NumerCylindra & 0x04) > 0))
    4cee:	b163      	cbz	r3, 4d0a <P_CylindryStart+0x72>
    4cf0:	4a1e      	ldr	r2, [pc, #120]	; (4d6c <P_CylindryStart+0xd4>)
    4cf2:	7c92      	ldrb	r2, [r2, #18]
    4cf4:	f012 0f04 	tst.w	r2, #4
    4cf8:	d007      	beq.n	4d0a <P_CylindryStart+0x72>
		image.q[2] |= 0x10;
    4cfa:	4a1d      	ldr	r2, [pc, #116]	; (4d70 <P_CylindryStart+0xd8>)
    4cfc:	f892 1042 	ldrb.w	r1, [r2, #66]	; 0x42
    4d00:	f041 0110 	orr.w	r1, r1, #16
    4d04:	f882 1042 	strb.w	r1, [r2, #66]	; 0x42
    4d08:	e007      	b.n	4d1a <P_CylindryStart+0x82>
	else
		image.q[2] &= ~0x10;
    4d0a:	4a19      	ldr	r2, [pc, #100]	; (4d70 <P_CylindryStart+0xd8>)
    4d0c:	f892 1042 	ldrb.w	r1, [r2, #66]	; 0x42
    4d10:	f001 01ef 	and.w	r1, r1, #239	; 0xef
    4d14:	f882 1042 	strb.w	r1, [r2, #66]	; 0x42

	if (in && ((prog.NumerCylindra & 0x08) > 0))
    4d18:	b163      	cbz	r3, 4d34 <P_CylindryStart+0x9c>
    4d1a:	4a14      	ldr	r2, [pc, #80]	; (4d6c <P_CylindryStart+0xd4>)
    4d1c:	7c92      	ldrb	r2, [r2, #18]
    4d1e:	f012 0f08 	tst.w	r2, #8
    4d22:	d007      	beq.n	4d34 <P_CylindryStart+0x9c>
		image.q[2] |= 0x20;
    4d24:	4b12      	ldr	r3, [pc, #72]	; (4d70 <P_CylindryStart+0xd8>)
    4d26:	f893 2042 	ldrb.w	r2, [r3, #66]	; 0x42
    4d2a:	f042 0220 	orr.w	r2, r2, #32
    4d2e:	f883 2042 	strb.w	r2, [r3, #66]	; 0x42
    4d32:	e007      	b.n	4d44 <P_CylindryStart+0xac>
	else
		image.q[2] &= ~0x20;
    4d34:	4a0e      	ldr	r2, [pc, #56]	; (4d70 <P_CylindryStart+0xd8>)
    4d36:	f892 1042 	ldrb.w	r1, [r2, #66]	; 0x42
    4d3a:	f001 01df 	and.w	r1, r1, #223	; 0xdf
    4d3e:	f882 1042 	strb.w	r1, [r2, #66]	; 0x42

	if (in && ((prog.NumerCylindra & 0x10) > 0))
    4d42:	b153      	cbz	r3, 4d5a <P_CylindryStart+0xc2>
    4d44:	4b09      	ldr	r3, [pc, #36]	; (4d6c <P_CylindryStart+0xd4>)
    4d46:	7c9b      	ldrb	r3, [r3, #18]
    4d48:	f013 0f10 	tst.w	r3, #16
    4d4c:	d005      	beq.n	4d5a <P_CylindryStart+0xc2>
		image.q[2] |= 0x40;
    4d4e:	4b08      	ldr	r3, [pc, #32]	; (4d70 <P_CylindryStart+0xd8>)
    4d50:	f893 2042 	ldrb.w	r2, [r3, #66]	; 0x42
    4d54:	f042 0240 	orr.w	r2, r2, #64	; 0x40
    4d58:	e004      	b.n	4d64 <P_CylindryStart+0xcc>
	else
		image.q[2] &= ~0x40;
    4d5a:	4b05      	ldr	r3, [pc, #20]	; (4d70 <P_CylindryStart+0xd8>)
    4d5c:	f893 2042 	ldrb.w	r2, [r3, #66]	; 0x42
    4d60:	f002 02bf 	and.w	r2, r2, #191	; 0xbf
    4d64:	f883 2042 	strb.w	r2, [r3, #66]	; 0x42
    4d68:	4770      	bx	lr
    4d6a:	bf00      	nop
    4d6c:	20001b04 	.word	0x20001b04
    4d70:	20000ee4 	.word	0x20000ee4

00004d74 <P_ZadanieWyblokowania>:
	else
		ResetHard_Q03();
}

void P_ZadanieWyblokowania(bool in)
{
    4d74:	4b05      	ldr	r3, [pc, #20]	; (4d8c <P_ZadanieWyblokowania+0x18>)
	if (in == true)
    4d76:	2801      	cmp	r0, #1
		image.q[0] |= 0x08;
    4d78:	f893 2040 	ldrb.w	r2, [r3, #64]	; 0x40
    4d7c:	bf0c      	ite	eq
    4d7e:	f042 0208 	orreq.w	r2, r2, #8
	else
		image.q[0] &= ~0x08;
    4d82:	f002 02f7 	andne.w	r2, r2, #247	; 0xf7
    4d86:	f883 2040 	strb.w	r2, [r3, #64]	; 0x40
    4d8a:	4770      	bx	lr
    4d8c:	20000ee4 	.word	0x20000ee4

00004d90 <P_VZ>:
	else
		ResetHard_Q04();
}

void P_VZ(bool in)
{
    4d90:	4b05      	ldr	r3, [pc, #20]	; (4da8 <P_VZ+0x18>)
	if (in == true)
    4d92:	2801      	cmp	r0, #1
		image.q[0] |= 0x10;
    4d94:	f893 2040 	ldrb.w	r2, [r3, #64]	; 0x40
    4d98:	bf0c      	ite	eq
    4d9a:	f042 0210 	orreq.w	r2, r2, #16
	else
		image.q[0] &= ~0x10;
    4d9e:	f002 02ef 	andne.w	r2, r2, #239	; 0xef
    4da2:	f883 2040 	strb.w	r2, [r3, #64]	; 0x40
    4da6:	4770      	bx	lr
    4da8:	20000ee4 	.word	0x20000ee4

00004dac <P_Get_VZ>:
		return false;
}

bool P_Get_VZ(void)
{
	if (image.q[0] & 0x10 > 0)
    4dac:	4b02      	ldr	r3, [pc, #8]	; (4db8 <P_Get_VZ+0xc>)
    4dae:	f893 0040 	ldrb.w	r0, [r3, #64]	; 0x40
		return true;
	else
		return false;
}
    4db2:	f000 0001 	and.w	r0, r0, #1
    4db6:	4770      	bx	lr
    4db8:	20000ee4 	.word	0x20000ee4

00004dbc <P_FK>:
	else
		ResetHard_Q05();
}

void P_FK(bool in)
{
    4dbc:	4b05      	ldr	r3, [pc, #20]	; (4dd4 <P_FK+0x18>)
	if (in == true)
    4dbe:	2801      	cmp	r0, #1
		image.q[0] |= 0x20;
    4dc0:	f893 2040 	ldrb.w	r2, [r3, #64]	; 0x40
    4dc4:	bf0c      	ite	eq
    4dc6:	f042 0220 	orreq.w	r2, r2, #32
	else
		image.q[0] &= ~0x20;
    4dca:	f002 02df 	andne.w	r2, r2, #223	; 0xdf
    4dce:	f883 2040 	strb.w	r2, [r3, #64]	; 0x40
    4dd2:	4770      	bx	lr
    4dd4:	20000ee4 	.word	0x20000ee4

00004dd8 <ProcesReset>:
//*****************************************************************************
// Reset procesu - wszystkie cylindry i inne wyjscia na 0
//*****************************************************************************
void ProcesReset(void)
{
	wyslano_wyniki = false;
    4dd8:	4b07      	ldr	r3, [pc, #28]	; (4df8 <ProcesReset+0x20>)

//*****************************************************************************
// Reset procesu - wszystkie cylindry i inne wyjscia na 0
//*****************************************************************************
void ProcesReset(void)
{
    4dda:	b510      	push	{r4, lr}
	wyslano_wyniki = false;
    4ddc:	2400      	movs	r4, #0
    4dde:	f883 404e 	strb.w	r4, [r3, #78]	; 0x4e
	P_FK(false);
    4de2:	4620      	mov	r0, r4
    4de4:	f7ff ffea 	bl	4dbc <P_FK>
	P_VZ(false);
    4de8:	4620      	mov	r0, r4
    4dea:	f7ff ffd1 	bl	4d90 <P_VZ>

	P_CylindryStart(false);
    4dee:	4620      	mov	r0, r4
}
    4df0:	e8bd 4010 	ldmia.w	sp!, {r4, lr}
{
	wyslano_wyniki = false;
	P_FK(false);
	P_VZ(false);

	P_CylindryStart(false);
    4df4:	e750      	b.n	4c98 <P_CylindryStart>
    4df6:	bf00      	nop
    4df8:	2000012c 	.word	0x2000012c

00004dfc <RozkazBezposredni>:
//*****************************************************************************
// Obsluga rozkazw bezporednich wysanych przez Modbusa
//*****************************************************************************
void RozkazBezposredni(byte rozkaz)
{
	switch (rozkaz)
    4dfc:	3801      	subs	r0, #1

//*****************************************************************************
// Obsluga rozkazw bezporednich wysanych przez Modbusa
//*****************************************************************************
void RozkazBezposredni(byte rozkaz)
{
    4dfe:	b508      	push	{r3, lr}
	switch (rozkaz)
    4e00:	2807      	cmp	r0, #7
    4e02:	d874      	bhi.n	4eee <RozkazBezposredni+0xf2>
    4e04:	e8df f000 	tbb	[pc, r0]
    4e08:	29737304 	.word	0x29737304
    4e0c:	5948413c 	.word	0x5948413c
	{
	//
	// Pozycja wyjciowa
	//
	case 1:
		ProcesReset();
    4e10:	f7ff ffe2 	bl	4dd8 <ProcesReset>
		p_aktualny_program = 0;
    4e14:	4b36      	ldr	r3, [pc, #216]	; (4ef0 <RozkazBezposredni+0xf4>)
    4e16:	f893 2020 	ldrb.w	r2, [r3, #32]
    4e1a:	2200      	movs	r2, #0
    4e1c:	f883 2020 	strb.w	r2, [r3, #32]
    4e20:	f893 1021 	ldrb.w	r1, [r3, #33]	; 0x21
    4e24:	f883 2021 	strb.w	r2, [r3, #33]	; 0x21
		p_stanprocesu = ETPROC_CZEKAM_NA_BRAK_STARTU;
    4e28:	f893 102e 	ldrb.w	r1, [r3, #46]	; 0x2e
    4e2c:	f883 202e 	strb.w	r2, [r3, #46]	; 0x2e
    4e30:	f893 102f 	ldrb.w	r1, [r3, #47]	; 0x2f
		z_pradem_wszystkie = 0;
    4e34:	492f      	ldr	r1, [pc, #188]	; (4ef4 <RozkazBezposredni+0xf8>)
	// Pozycja wyjciowa
	//
	case 1:
		ProcesReset();
		p_aktualny_program = 0;
		p_stanprocesu = ETPROC_CZEKAM_NA_BRAK_STARTU;
    4e36:	f883 202f 	strb.w	r2, [r3, #47]	; 0x2f
		z_pradem_wszystkie = 0;
    4e3a:	f881 2034 	strb.w	r2, [r1, #52]	; 0x34
		sluza_start = false;
    4e3e:	f881 2035 	strb.w	r2, [r1, #53]	; 0x35
		if (p_sluza > 0)
    4e42:	7c9a      	ldrb	r2, [r3, #18]
    4e44:	7cdb      	ldrb	r3, [r3, #19]
    4e46:	ea52 2203 	orrs.w	r2, r2, r3, lsl #8
    4e4a:	d003      	beq.n	4e54 <RozkazBezposredni+0x58>
			sluza_check = true;
    4e4c:	2301      	movs	r3, #1
    4e4e:	f881 304f 	strb.w	r3, [r1, #79]	; 0x4f
    4e52:	bd08      	pop	{r3, pc}
		else
			sluza_check = false;
    4e54:	f881 204f 	strb.w	r2, [r1, #79]	; 0x4f
    4e58:	bd08      	pop	{r3, pc}
		//
		// Start programu - pierwsza aktywacja
		//
	case 4:

		aktywacja_apterminal = true;
    4e5a:	4b26      	ldr	r3, [pc, #152]	; (4ef4 <RozkazBezposredni+0xf8>)
    4e5c:	2201      	movs	r2, #1
		kod_aktywny = kod_podlaczony;
    4e5e:	f8b3 1054 	ldrh.w	r1, [r3, #84]	; 0x54
		if (p_sluza > 0)
    4e62:	4823      	ldr	r0, [pc, #140]	; (4ef0 <RozkazBezposredni+0xf4>)
		//
		// Start programu - pierwsza aktywacja
		//
	case 4:

		aktywacja_apterminal = true;
    4e64:	f883 2050 	strb.w	r2, [r3, #80]	; 0x50
		kod_aktywny = kod_podlaczony;
    4e68:	f8a3 1052 	strh.w	r1, [r3, #82]	; 0x52
		if (p_sluza > 0)
    4e6c:	7c81      	ldrb	r1, [r0, #18]
    4e6e:	7cc0      	ldrb	r0, [r0, #19]
    4e70:	ea51 2100 	orrs.w	r1, r1, r0, lsl #8
			sluza_check = true;
    4e74:	bf14      	ite	ne
    4e76:	f883 204f 	strbne.w	r2, [r3, #79]	; 0x4f
		else
			sluza_check = false;
    4e7a:	f883 104f 	strbeq.w	r1, [r3, #79]	; 0x4f
    4e7e:	bd08      	pop	{r3, pc}

		//
		// Kasowanie bdu z aplikacji
		//
	case 5:
		kasuj_blad = true;
    4e80:	4b1c      	ldr	r3, [pc, #112]	; (4ef4 <RozkazBezposredni+0xf8>)
    4e82:	2201      	movs	r2, #1
    4e84:	f883 2047 	strb.w	r2, [r3, #71]	; 0x47
		break;
    4e88:	bd08      	pop	{r3, pc}

		//
		// Kasowanie aktywnego przyrzdu
		//
	case 6:
		aktywacja_programyzaladowane = false;
    4e8a:	4a1b      	ldr	r2, [pc, #108]	; (4ef8 <RozkazBezposredni+0xfc>)
    4e8c:	2300      	movs	r3, #0
    4e8e:	7013      	strb	r3, [r2, #0]
		aktywacja_apterminal = false;
    4e90:	4a18      	ldr	r2, [pc, #96]	; (4ef4 <RozkazBezposredni+0xf8>)
    4e92:	f882 3050 	strb.w	r3, [r2, #80]	; 0x50
		break;
    4e96:	bd08      	pop	{r3, pc}
		//
		// Wcz/wycz IOTest
		//
	case 7:

		if (GET_IOTEST)
    4e98:	4b15      	ldr	r3, [pc, #84]	; (4ef0 <RozkazBezposredni+0xf4>)
    4e9a:	7e1a      	ldrb	r2, [r3, #24]
    4e9c:	7e59      	ldrb	r1, [r3, #25]
    4e9e:	f012 0f04 	tst.w	r2, #4
			RESET_IOTEST;
    4ea2:	7e1a      	ldrb	r2, [r3, #24]
    4ea4:	7e59      	ldrb	r1, [r3, #25]
    4ea6:	ea42 2201 	orr.w	r2, r2, r1, lsl #8
		else
			SET_IOTEST;
    4eaa:	bf0a      	itet	eq
    4eac:	f042 0204 	orreq.w	r2, r2, #4
		// Wcz/wycz IOTest
		//
	case 7:

		if (GET_IOTEST)
			RESET_IOTEST;
    4eb0:	f002 01fb 	andne.w	r1, r2, #251	; 0xfb
		else
			SET_IOTEST;
    4eb4:	f002 01ff 	andeq.w	r1, r2, #255	; 0xff
    4eb8:	e00a      	b.n	4ed0 <RozkazBezposredni+0xd4>
		//
		// Wcz/wycz POMIAR TOLERANCJI PRZY REFEROWANIU
		//
	case 8:

		if (GET_POMIAR_TOLERANCJI)
    4eba:	4b0d      	ldr	r3, [pc, #52]	; (4ef0 <RozkazBezposredni+0xf4>)
    4ebc:	7e1a      	ldrb	r2, [r3, #24]
    4ebe:	7e59      	ldrb	r1, [r3, #25]
    4ec0:	09d2      	lsrs	r2, r2, #7
			RESET_POMIAR_TOLERANCJI;
    4ec2:	7e1a      	ldrb	r2, [r3, #24]
    4ec4:	7e59      	ldrb	r1, [r3, #25]
    4ec6:	ea42 2201 	orr.w	r2, r2, r1, lsl #8
		//
		// Wcz/wycz POMIAR TOLERANCJI PRZY REFEROWANIU
		//
	case 8:

		if (GET_POMIAR_TOLERANCJI)
    4eca:	d007      	beq.n	4edc <RozkazBezposredni+0xe0>
			RESET_POMIAR_TOLERANCJI;
    4ecc:	f002 017f 	and.w	r1, r2, #127	; 0x7f
    4ed0:	7e18      	ldrb	r0, [r3, #24]
    4ed2:	0a12      	lsrs	r2, r2, #8
    4ed4:	7619      	strb	r1, [r3, #24]
    4ed6:	7e59      	ldrb	r1, [r3, #25]
    4ed8:	765a      	strb	r2, [r3, #25]
    4eda:	bd08      	pop	{r3, pc}
		else
			SET_POMIAR_TOLERANCJI;
    4edc:	f042 0280 	orr.w	r2, r2, #128	; 0x80
    4ee0:	f002 01ff 	and.w	r1, r2, #255	; 0xff
    4ee4:	7e18      	ldrb	r0, [r3, #24]
    4ee6:	0a12      	lsrs	r2, r2, #8
    4ee8:	7619      	strb	r1, [r3, #24]
    4eea:	7e59      	ldrb	r1, [r3, #25]
    4eec:	765a      	strb	r2, [r3, #25]
    4eee:	bd08      	pop	{r3, pc}
    4ef0:	20000ee4 	.word	0x20000ee4
    4ef4:	2000012c 	.word	0x2000012c
    4ef8:	20000126 	.word	0x20000126

00004efc <Rozkaz>:
//*****************************************************************************
void Rozkaz(void)
{
	byte code, address;

	code = (byte) ((rozkaz & 0xff00) >> 8);
    4efc:	4b34      	ldr	r3, [pc, #208]	; (4fd0 <Rozkaz+0xd4>)

//*****************************************************************************
// Obsluga rozkazw przez Modbus'a
//*****************************************************************************
void Rozkaz(void)
{
    4efe:	b510      	push	{r4, lr}
	byte code, address;

	code = (byte) ((rozkaz & 0xff00) >> 8);
    4f00:	881b      	ldrh	r3, [r3, #0]
	address = (byte) (rozkaz & 0xff);

	if (rozkaz)
    4f02:	2b00      	cmp	r3, #0
    4f04:	d063      	beq.n	4fce <Rozkaz+0xd2>
	{
		switch (code)
    4f06:	0a1a      	lsrs	r2, r3, #8
void Rozkaz(void)
{
	byte code, address;

	code = (byte) ((rozkaz & 0xff00) >> 8);
	address = (byte) (rozkaz & 0xff);
    4f08:	b2d8      	uxtb	r0, r3
    4f0a:	4b32      	ldr	r3, [pc, #200]	; (4fd4 <Rozkaz+0xd8>)

	if (rozkaz)
	{
		switch (code)
    4f0c:	2a03      	cmp	r2, #3
    4f0e:	d852      	bhi.n	4fb6 <Rozkaz+0xba>
    4f10:	e8df f002 	tbb	[pc, r2]
    4f14:	401c0502 	.word	0x401c0502
		{
		//
		// rozkazy bezporednie
		//
		case 0:
			RozkazBezposredni(address);
    4f18:	f7ff ff70 	bl	4dfc <RozkazBezposredni>
			break;
    4f1c:	e04b      	b.n	4fb6 <Rozkaz+0xba>

			//
			// dodawanie
			//
		case 1:
			if (image.sm[address] + rozkaz_arg <= 65535)
    4f1e:	f813 1010 	ldrb.w	r1, [r3, r0, lsl #1]
    4f22:	eb03 0340 	add.w	r3, r3, r0, lsl #1
    4f26:	f893 c001 	ldrb.w	ip, [r3, #1]
    4f2a:	4c2b      	ldr	r4, [pc, #172]	; (4fd8 <Rozkaz+0xdc>)
    4f2c:	ea41 210c 	orr.w	r1, r1, ip, lsl #8
    4f30:	f8b4 c000 	ldrh.w	ip, [r4]
    4f34:	4a27      	ldr	r2, [pc, #156]	; (4fd4 <Rozkaz+0xd8>)
    4f36:	4461      	add	r1, ip
    4f38:	f5b1 3f80 	cmp.w	r1, #65536	; 0x10000
    4f3c:	da3b      	bge.n	4fb6 <Rozkaz+0xba>
				image.sm[address] += rozkaz_arg;
    4f3e:	f812 1010 	ldrb.w	r1, [r2, r0, lsl #1]
    4f42:	785c      	ldrb	r4, [r3, #1]
    4f44:	ea41 2104 	orr.w	r1, r1, r4, lsl #8
    4f48:	4461      	add	r1, ip
    4f4a:	e014      	b.n	4f76 <Rozkaz+0x7a>

			//
			// odejmowanie
			//
		case 2:
			if (image.sm[address] >= rozkaz_arg)
    4f4c:	f813 1010 	ldrb.w	r1, [r3, r0, lsl #1]
    4f50:	eb03 0340 	add.w	r3, r3, r0, lsl #1
    4f54:	f893 c001 	ldrb.w	ip, [r3, #1]
    4f58:	4c1f      	ldr	r4, [pc, #124]	; (4fd8 <Rozkaz+0xdc>)
    4f5a:	ea41 210c 	orr.w	r1, r1, ip, lsl #8
    4f5e:	f8b4 c000 	ldrh.w	ip, [r4]
    4f62:	4a1c      	ldr	r2, [pc, #112]	; (4fd4 <Rozkaz+0xd8>)
    4f64:	4561      	cmp	r1, ip
				image.sm[address] -= rozkaz_arg;
    4f66:	f812 1010 	ldrb.w	r1, [r2, r0, lsl #1]

			//
			// odejmowanie
			//
		case 2:
			if (image.sm[address] >= rozkaz_arg)
    4f6a:	d30f      	bcc.n	4f8c <Rozkaz+0x90>
				image.sm[address] -= rozkaz_arg;
    4f6c:	785c      	ldrb	r4, [r3, #1]
    4f6e:	ea41 2104 	orr.w	r1, r1, r4, lsl #8
    4f72:	ebcc 0101 	rsb	r1, ip, r1
    4f76:	b289      	uxth	r1, r1
    4f78:	f001 0cff 	and.w	ip, r1, #255	; 0xff
    4f7c:	f812 4010 	ldrb.w	r4, [r2, r0, lsl #1]
    4f80:	0a09      	lsrs	r1, r1, #8
    4f82:	f802 c010 	strb.w	ip, [r2, r0, lsl #1]
    4f86:	785a      	ldrb	r2, [r3, #1]
    4f88:	7059      	strb	r1, [r3, #1]
    4f8a:	e014      	b.n	4fb6 <Rozkaz+0xba>
			else
				image.sm[address] = 0;
    4f8c:	2100      	movs	r1, #0
    4f8e:	f802 1010 	strb.w	r1, [r2, r0, lsl #1]
    4f92:	e7f8      	b.n	4f86 <Rozkaz+0x8a>

			//
			// wpisywanie
			//
		case 3:
			image.sm[address] = rozkaz_arg;
    4f94:	4a10      	ldr	r2, [pc, #64]	; (4fd8 <Rozkaz+0xdc>)
    4f96:	f813 c010 	ldrb.w	ip, [r3, r0, lsl #1]
    4f9a:	8811      	ldrh	r1, [r2, #0]
    4f9c:	f001 02ff 	and.w	r2, r1, #255	; 0xff
    4fa0:	f803 2010 	strb.w	r2, [r3, r0, lsl #1]
    4fa4:	0a0a      	lsrs	r2, r1, #8
    4fa6:	eb03 0340 	add.w	r3, r3, r0, lsl #1
    4faa:	f893 c001 	ldrb.w	ip, [r3, #1]
			RozkazAkcja(address, rozkaz_arg);
    4fae:	b2c9      	uxtb	r1, r1

			//
			// wpisywanie
			//
		case 3:
			image.sm[address] = rozkaz_arg;
    4fb0:	705a      	strb	r2, [r3, #1]
			RozkazAkcja(address, rozkaz_arg);
    4fb2:	f7fe fbad 	bl	3710 <RozkazAkcja>

		default:
			break;
		}

		rozkaz = 0;
    4fb6:	4b06      	ldr	r3, [pc, #24]	; (4fd0 <Rozkaz+0xd4>)
    4fb8:	2200      	movs	r2, #0
    4fba:	801a      	strh	r2, [r3, #0]
		image.sm[0] = 0;
    4fbc:	4b05      	ldr	r3, [pc, #20]	; (4fd4 <Rozkaz+0xd8>)
    4fbe:	7818      	ldrb	r0, [r3, #0]
    4fc0:	701a      	strb	r2, [r3, #0]
    4fc2:	7859      	ldrb	r1, [r3, #1]
    4fc4:	705a      	strb	r2, [r3, #1]
		image.sm[1] = 0;
    4fc6:	7899      	ldrb	r1, [r3, #2]
    4fc8:	709a      	strb	r2, [r3, #2]
    4fca:	78d9      	ldrb	r1, [r3, #3]
    4fcc:	70da      	strb	r2, [r3, #3]
    4fce:	bd10      	pop	{r4, pc}
    4fd0:	20002172 	.word	0x20002172
    4fd4:	20000ee4 	.word	0x20000ee4
    4fd8:	20001f08 	.word	0x20001f08

00004fdc <Proces>:

//*****************************************************************************
// Proces zgrzewania
//*****************************************************************************
void Proces(void)
{
    4fdc:	b570      	push	{r4, r5, r6, lr}
	// ========================================================================
	switch (p_stanprocesu)
    4fde:	4aa8      	ldr	r2, [pc, #672]	; (5280 <Proces+0x2a4>)
    4fe0:	f892 302e 	ldrb.w	r3, [r2, #46]	; 0x2e
    4fe4:	f892 202f 	ldrb.w	r2, [r2, #47]	; 0x2f
    4fe8:	ea43 2302 	orr.w	r3, r3, r2, lsl #8
    4fec:	2b14      	cmp	r3, #20
    4fee:	f200 8409 	bhi.w	5804 <Proces+0x828>
    4ff2:	e8df f013 	tbh	[pc, r3, lsl #1]
    4ff6:	0015      	.short	0x0015
    4ff8:	003f0024 	.word	0x003f0024
    4ffc:	00f4006a 	.word	0x00f4006a
    5000:	0174012c 	.word	0x0174012c
    5004:	02220199 	.word	0x02220199
    5008:	0269014d 	.word	0x0269014d
    500c:	02c20299 	.word	0x02c20299
    5010:	031a02fd 	.word	0x031a02fd
    5014:	03570333 	.word	0x03570333
    5018:	03ca0380 	.word	0x03ca0380
    501c:	03e603da 	.word	0x03e603da
	{

	case ETPROC_CZEKAM_NA_BRAK_STARTU:
		// ====================================================================

		ProcesReset();
    5020:	f7ff feda 	bl	4dd8 <ProcesReset>

		if (P_Start() == false)
    5024:	f7ff f928 	bl	4278 <P_Start>
    5028:	4603      	mov	r3, r0
    502a:	2800      	cmp	r0, #0
    502c:	f040 83ea 	bne.w	5804 <Proces+0x828>
			p_stanprocesu = ETPROC_CZEKAM_NA_POZWOLENIE_STARTU;
    5030:	4a93      	ldr	r2, [pc, #588]	; (5280 <Proces+0x2a4>)
    5032:	f892 102e 	ldrb.w	r1, [r2, #46]	; 0x2e
    5036:	2101      	movs	r1, #1
    5038:	f882 102e 	strb.w	r1, [r2, #46]	; 0x2e
    503c:	e21e      	b.n	547c <Proces+0x4a0>
	case ETPROC_CZEKAM_NA_POZWOLENIE_STARTU:
		// ====================================================================

		ProcesReset();

		if (p_gotowa && (err1 == 0) && (P_ZezwolenieProgramowania() == false))// ???????????? && (P_DK() == false))
    503e:	4c90      	ldr	r4, [pc, #576]	; (5280 <Proces+0x2a4>)

		// ====================================================================
	case ETPROC_CZEKAM_NA_POZWOLENIE_STARTU:
		// ====================================================================

		ProcesReset();
    5040:	f7ff feca 	bl	4dd8 <ProcesReset>

		if (p_gotowa && (err1 == 0) && (P_ZezwolenieProgramowania() == false))// ???????????? && (P_DK() == false))
    5044:	f894 3041 	ldrb.w	r3, [r4, #65]	; 0x41
    5048:	f013 0f01 	tst.w	r3, #1
    504c:	f000 83da 	beq.w	5804 <Proces+0x828>
    5050:	f894 303e 	ldrb.w	r3, [r4, #62]	; 0x3e
    5054:	f894 203f 	ldrb.w	r2, [r4, #63]	; 0x3f
    5058:	ea53 2202 	orrs.w	r2, r3, r2, lsl #8
    505c:	f040 83d2 	bne.w	5804 <Proces+0x828>
    5060:	f7ff fd2e 	bl	4ac0 <P_ZezwolenieProgramowania>
    5064:	4603      	mov	r3, r0
    5066:	2800      	cmp	r0, #0
    5068:	f040 83cc 	bne.w	5804 <Proces+0x828>
			p_stanprocesu = ETPROC_CZEKAM_NA_CYLINDER_W_GORZE;
    506c:	f894 202e 	ldrb.w	r2, [r4, #46]	; 0x2e
    5070:	2202      	movs	r2, #2
    5072:	e0d0      	b.n	5216 <Proces+0x23a>
	case ETPROC_CZEKAM_NA_CYLINDER_W_GORZE:
		// ====================================================================

		ProcesReset();

		if (GET_CYL_U_GORY)
    5074:	4c82      	ldr	r4, [pc, #520]	; (5280 <Proces+0x2a4>)

		// ====================================================================
	case ETPROC_CZEKAM_NA_CYLINDER_W_GORZE:
		// ====================================================================

		ProcesReset();
    5076:	f7ff feaf 	bl	4dd8 <ProcesReset>

		if (GET_CYL_U_GORY)
    507a:	7e23      	ldrb	r3, [r4, #24]
    507c:	7e62      	ldrb	r2, [r4, #25]
    507e:	f013 0f20 	tst.w	r3, #32
    5082:	f000 83bf 	beq.w	5804 <Proces+0x828>
		{
			UstalLiczbeZgrzewow();
    5086:	f7fe f84b 	bl	3120 <UstalLiczbeZgrzewow>

			if (nast_program == true)
    508a:	4b7e      	ldr	r3, [pc, #504]	; (5284 <Proces+0x2a8>)
    508c:	f893 2056 	ldrb.w	r2, [r3, #86]	; 0x56
    5090:	2a01      	cmp	r2, #1
    5092:	d115      	bne.n	50c0 <Proces+0xe4>
			{
				nast_program = false;
    5094:	3a01      	subs	r2, #1
    5096:	f883 2056 	strb.w	r2, [r3, #86]	; 0x56
				p_aktualny_program++;
    509a:	f894 3020 	ldrb.w	r3, [r4, #32]
    509e:	f894 2021 	ldrb.w	r2, [r4, #33]	; 0x21
    50a2:	f894 1020 	ldrb.w	r1, [r4, #32]
    50a6:	ea43 2302 	orr.w	r3, r3, r2, lsl #8
    50aa:	3301      	adds	r3, #1
    50ac:	b29b      	uxth	r3, r3
    50ae:	f003 02ff 	and.w	r2, r3, #255	; 0xff
    50b2:	f884 2020 	strb.w	r2, [r4, #32]
    50b6:	0a1b      	lsrs	r3, r3, #8
    50b8:	f894 2021 	ldrb.w	r2, [r4, #33]	; 0x21
    50bc:	f884 3021 	strb.w	r3, [r4, #33]	; 0x21
			}

			p_stanprocesu = ETPROC_CZEKAM_NA_START;
    50c0:	4b6f      	ldr	r3, [pc, #444]	; (5280 <Proces+0x2a4>)
    50c2:	f893 202e 	ldrb.w	r2, [r3, #46]	; 0x2e
    50c6:	2203      	movs	r2, #3
    50c8:	e38b      	b.n	57e2 <Proces+0x806>
	case ETPROC_CZEKAM_NA_START:
		// ====================================================================

		ProcesReset();

		if (p_gotowa && P_Start() && err1 == 0)// ?????????????? && (P_DK() == false))
    50ca:	4c6d      	ldr	r4, [pc, #436]	; (5280 <Proces+0x2a4>)

		// ====================================================================
	case ETPROC_CZEKAM_NA_START:
		// ====================================================================

		ProcesReset();
    50cc:	f7ff fe84 	bl	4dd8 <ProcesReset>

		if (p_gotowa && P_Start() && err1 == 0)// ?????????????? && (P_DK() == false))
    50d0:	f894 3041 	ldrb.w	r3, [r4, #65]	; 0x41
    50d4:	f013 0f01 	tst.w	r3, #1
    50d8:	d052      	beq.n	5180 <Proces+0x1a4>
    50da:	f7ff f8cd 	bl	4278 <P_Start>
    50de:	2800      	cmp	r0, #0
    50e0:	d04e      	beq.n	5180 <Proces+0x1a4>
    50e2:	f894 303e 	ldrb.w	r3, [r4, #62]	; 0x3e
    50e6:	f894 503f 	ldrb.w	r5, [r4, #63]	; 0x3f
    50ea:	ea53 2505 	orrs.w	r5, r3, r5, lsl #8
    50ee:	d147      	bne.n	5180 <Proces+0x1a4>
		{
			ProgramKopiuj();
    50f0:	f7ff fade 	bl	46b0 <ProgramKopiuj>
			ObliczParametry();
    50f4:	f7fd fe98 	bl	2e28 <ObliczParametry>

			p_stanprocesu = ETPROC_CZEKAM_NA_CZUJNIKI_START;
    50f8:	f894 302e 	ldrb.w	r3, [r4, #46]	; 0x2e
    50fc:	2304      	movs	r3, #4
    50fe:	f884 302e 	strb.w	r3, [r4, #46]	; 0x2e
    5102:	f894 302f 	ldrb.w	r3, [r4, #47]	; 0x2f
    5106:	f884 502f 	strb.w	r5, [r4, #47]	; 0x2f

			//
			// Brak zezwolenia ze Sluzy
			//
			if ((p_sluza > 0) && (sluza_check == true || sluza_started == true)
    510a:	7ca3      	ldrb	r3, [r4, #18]
    510c:	7ce2      	ldrb	r2, [r4, #19]
    510e:	ea53 2202 	orrs.w	r2, r3, r2, lsl #8
    5112:	d00e      	beq.n	5132 <Proces+0x156>
    5114:	4b5b      	ldr	r3, [pc, #364]	; (5284 <Proces+0x2a8>)
    5116:	f893 204f 	ldrb.w	r2, [r3, #79]	; 0x4f
    511a:	2a01      	cmp	r2, #1
    511c:	d003      	beq.n	5126 <Proces+0x14a>
    511e:	f893 3057 	ldrb.w	r3, [r3, #87]	; 0x57
    5122:	2b01      	cmp	r3, #1
    5124:	d105      	bne.n	5132 <Proces+0x156>
					&& (P_SluzaSygnal() == false))
    5126:	f7ff fd51 	bl	4bcc <P_SluzaSygnal>
			p_stanprocesu = ETPROC_CZEKAM_NA_CZUJNIKI_START;

			//
			// Brak zezwolenia ze Sluzy
			//
			if ((p_sluza > 0) && (sluza_check == true || sluza_started == true)
    512a:	b910      	cbnz	r0, 5132 <Proces+0x156>
					&& (P_SluzaSygnal() == false))
				ZaklocenieSet(ERR_SLUZA);
    512c:	3019      	adds	r0, #25
    512e:	f7fd fe0f 	bl	2d50 <ZaklocenieSet>
			if ((p_sluza > 0) && (sluza_check == true) && (P_SluzaSygnal()
    5132:	4b53      	ldr	r3, [pc, #332]	; (5280 <Proces+0x2a4>)
    5134:	7c9a      	ldrb	r2, [r3, #18]
    5136:	7cdb      	ldrb	r3, [r3, #19]
    5138:	ea52 2303 	orrs.w	r3, r2, r3, lsl #8
    513c:	d00b      	beq.n	5156 <Proces+0x17a>
    513e:	4b51      	ldr	r3, [pc, #324]	; (5284 <Proces+0x2a8>)
    5140:	f893 304f 	ldrb.w	r3, [r3, #79]	; 0x4f
    5144:	2b01      	cmp	r3, #1
    5146:	d106      	bne.n	5156 <Proces+0x17a>
    5148:	f7ff fd40 	bl	4bcc <P_SluzaSygnal>
    514c:	2801      	cmp	r0, #1
    514e:	d102      	bne.n	5156 <Proces+0x17a>
					== true))
				ZaklocenieReset(ERR_SLUZA);
    5150:	3018      	adds	r0, #24
    5152:	f7fd fe33 	bl	2dbc <ZaklocenieReset>

			//
			// Bd sluzy optycznej - nie przeoono detalu
			//
			if ((sluza_opt) && (sluza_check == true) && (licznik_opt == 0))
    5156:	4b4b      	ldr	r3, [pc, #300]	; (5284 <Proces+0x2a8>)
    5158:	f893 2058 	ldrb.w	r2, [r3, #88]	; 0x58
    515c:	b14a      	cbz	r2, 5172 <Proces+0x196>
    515e:	f893 304f 	ldrb.w	r3, [r3, #79]	; 0x4f
    5162:	2b01      	cmp	r3, #1
    5164:	d105      	bne.n	5172 <Proces+0x196>
    5166:	4b48      	ldr	r3, [pc, #288]	; (5288 <Proces+0x2ac>)
    5168:	781b      	ldrb	r3, [r3, #0]
    516a:	b913      	cbnz	r3, 5172 <Proces+0x196>
				ZaklocenieSet(ERR_SLUZA_OPT_ZERO);
    516c:	201a      	movs	r0, #26
    516e:	f7fd fdef 	bl	2d50 <ZaklocenieSet>

			if (KontrolaDynamiczna_Sprawdzenie() == true)
    5172:	f7fe ff77 	bl	4064 <KontrolaDynamiczna_Sprawdzenie>
    5176:	2801      	cmp	r0, #1
    5178:	d102      	bne.n	5180 <Proces+0x1a4>
			{
				ZaklocenieReset(ERR_KONTROLA_CZUJNIKOW);
    517a:	3005      	adds	r0, #5
    517c:	f7fd fe1e 	bl	2dbc <ZaklocenieReset>
			}
		}

		if (p_gotowa == false)
    5180:	4b3f      	ldr	r3, [pc, #252]	; (5280 <Proces+0x2a4>)
    5182:	f893 2041 	ldrb.w	r2, [r3, #65]	; 0x41
    5186:	f012 0201 	ands.w	r2, r2, #1
    518a:	d107      	bne.n	519c <Proces+0x1c0>
			p_stanprocesu = ETPROC_CZEKAM_NA_BRAK_STARTU;
    518c:	f893 102e 	ldrb.w	r1, [r3, #46]	; 0x2e
    5190:	f883 202e 	strb.w	r2, [r3, #46]	; 0x2e
    5194:	f893 102f 	ldrb.w	r1, [r3, #47]	; 0x2f
    5198:	f883 202f 	strb.w	r2, [r3, #47]	; 0x2f

		if (P_ZezwolenieProgramowania() == true)
    519c:	f7ff fc90 	bl	4ac0 <P_ZezwolenieProgramowania>
    51a0:	2801      	cmp	r0, #1
    51a2:	d109      	bne.n	51b8 <Proces+0x1dc>
			p_stanprocesu = ETPROC_CZEKAM_NA_POZWOLENIE_STARTU;
    51a4:	4b36      	ldr	r3, [pc, #216]	; (5280 <Proces+0x2a4>)
    51a6:	f893 202e 	ldrb.w	r2, [r3, #46]	; 0x2e
    51aa:	f883 002e 	strb.w	r0, [r3, #46]	; 0x2e
    51ae:	f893 202f 	ldrb.w	r2, [r3, #47]	; 0x2f
    51b2:	2200      	movs	r2, #0
    51b4:	f883 202f 	strb.w	r2, [r3, #47]	; 0x2f

		if (!GET_CYL_U_GORY)
    51b8:	4b31      	ldr	r3, [pc, #196]	; (5280 <Proces+0x2a4>)
    51ba:	7e1a      	ldrb	r2, [r3, #24]
    51bc:	7e59      	ldrb	r1, [r3, #25]
    51be:	f002 0220 	and.w	r2, r2, #32
    51c2:	1151      	asrs	r1, r2, #5
    51c4:	2a00      	cmp	r2, #0
    51c6:	f040 831d 	bne.w	5804 <Proces+0x828>
		{
			p_stanprocesu = ETPROC_CZEKAM_NA_CYLINDER_W_GORZE;
    51ca:	f893 202e 	ldrb.w	r2, [r3, #46]	; 0x2e
    51ce:	2202      	movs	r2, #2
    51d0:	f883 202e 	strb.w	r2, [r3, #46]	; 0x2e
    51d4:	f893 202f 	ldrb.w	r2, [r3, #47]	; 0x2f
    51d8:	f883 102f 	strb.w	r1, [r3, #47]	; 0x2f
    51dc:	bd70      	pop	{r4, r5, r6, pc}

		// ====================================================================
	case ETPROC_CZEKAM_NA_CZUJNIKI_START:
		// ====================================================================

		if (p_gotowa && P_Start() && P_CzujnikiZezwoleniePrzyStarcie())
    51de:	4c28      	ldr	r4, [pc, #160]	; (5280 <Proces+0x2a4>)
    51e0:	f894 3041 	ldrb.w	r3, [r4, #65]	; 0x41
    51e4:	f013 0f01 	tst.w	r3, #1
    51e8:	d01f      	beq.n	522a <Proces+0x24e>
    51ea:	f7ff f845 	bl	4278 <P_Start>
    51ee:	b1e0      	cbz	r0, 522a <Proces+0x24e>
    51f0:	f7ff fd28 	bl	4c44 <P_CzujnikiZezwoleniePrzyStarcie>
    51f4:	b1c8      	cbz	r0, 522a <Proces+0x24e>
		{
			if (prog.NumerCylindra > 0)
    51f6:	4a25      	ldr	r2, [pc, #148]	; (528c <Proces+0x2b0>)
    51f8:	7c93      	ldrb	r3, [r2, #18]
    51fa:	b11b      	cbz	r3, 5204 <Proces+0x228>
			{
				p_stanprocesu = ETPROC_CZEKAM_NA_WYBLOKOWANIE;
    51fc:	f894 302e 	ldrb.w	r3, [r4, #46]	; 0x2e
    5200:	2308      	movs	r3, #8
    5202:	e089      	b.n	5318 <Proces+0x33c>
			}
			else
			{
				nast_program = true;
    5204:	491f      	ldr	r1, [pc, #124]	; (5284 <Proces+0x2a8>)
    5206:	2001      	movs	r0, #1
    5208:	f881 0056 	strb.w	r0, [r1, #86]	; 0x56

				if ((prog.Konfig & KONFIG_BEZ_STARTU) > 0)
    520c:	8f52      	ldrh	r2, [r2, #58]	; 0x3a
    520e:	4002      	ands	r2, r0
    5210:	b122      	cbz	r2, 521c <Proces+0x240>
					p_stanprocesu = ETPROC_CZEKAM_NA_POZWOLENIE_STARTU;
    5212:	f894 102e 	ldrb.w	r1, [r4, #46]	; 0x2e
    5216:	f884 202e 	strb.w	r2, [r4, #46]	; 0x2e
    521a:	e003      	b.n	5224 <Proces+0x248>
				else
					p_stanprocesu = ETPROC_CZEKAM_NA_BRAK_STARTU;
    521c:	f894 202e 	ldrb.w	r2, [r4, #46]	; 0x2e
    5220:	f884 302e 	strb.w	r3, [r4, #46]	; 0x2e
    5224:	f894 202f 	ldrb.w	r2, [r4, #47]	; 0x2f
    5228:	e07b      	b.n	5322 <Proces+0x346>
			}
		}
		else if (P_Start() == false)
    522a:	f7ff f825 	bl	4278 <P_Start>
    522e:	4b14      	ldr	r3, [pc, #80]	; (5280 <Proces+0x2a4>)
    5230:	4602      	mov	r2, r0
    5232:	b918      	cbnz	r0, 523c <Proces+0x260>
			p_stanprocesu = ETPROC_CZEKAM_NA_START;
    5234:	f893 102e 	ldrb.w	r1, [r3, #46]	; 0x2e
    5238:	2103      	movs	r1, #3
    523a:	e0f6      	b.n	542a <Proces+0x44e>
		else if (p_gotowa == false)
    523c:	f893 2041 	ldrb.w	r2, [r3, #65]	; 0x41
    5240:	f012 0201 	ands.w	r2, r2, #1
    5244:	f040 82de 	bne.w	5804 <Proces+0x828>
			p_stanprocesu = ETPROC_CZEKAM_NA_BRAK_STARTU;
    5248:	f893 102e 	ldrb.w	r1, [r3, #46]	; 0x2e
    524c:	e137      	b.n	54be <Proces+0x4e2>

		// ====================================================================
	case ETPROC_CZEKAM_NA_DK:
		// ====================================================================

		if (p_gotowa && P_Start())
    524e:	4c0c      	ldr	r4, [pc, #48]	; (5280 <Proces+0x2a4>)
    5250:	f894 3041 	ldrb.w	r3, [r4, #65]	; 0x41
    5254:	f013 0f01 	tst.w	r3, #1
    5258:	f000 812a 	beq.w	54b0 <Proces+0x4d4>
    525c:	f7ff f80c 	bl	4278 <P_Start>
    5260:	2800      	cmp	r0, #0
    5262:	f000 8125 	beq.w	54b0 <Proces+0x4d4>
		{
			P_CylindryStart(true);
    5266:	2001      	movs	r0, #1
    5268:	f7ff fd16 	bl	4c98 <P_CylindryStart>

			if (GET_CISNIENIE_OSIAGNIETE)
    526c:	7e23      	ldrb	r3, [r4, #24]
    526e:	7e62      	ldrb	r2, [r4, #25]
    5270:	f013 0f40 	tst.w	r3, #64	; 0x40
    5274:	f000 82c6 	beq.w	5804 <Proces+0x828>
			{
				p_stanprocesu = ETPROC_ZGRZEWANIE_DOCISK_WSTEPNY;
    5278:	f894 302e 	ldrb.w	r3, [r4, #46]	; 0x2e
    527c:	2309      	movs	r3, #9
    527e:	e04b      	b.n	5318 <Proces+0x33c>
    5280:	20000ee4 	.word	0x20000ee4
    5284:	2000012c 	.word	0x2000012c
    5288:	2000011e 	.word	0x2000011e
    528c:	20001b04 	.word	0x20001b04

		// ====================================================================
	case ETPROC_ZGRZEWANIE_DOCISK_WSTEPNY:
		// ====================================================================

		if (p_gotowa && P_Start())
    5290:	4c98      	ldr	r4, [pc, #608]	; (54f4 <Proces+0x518>)
    5292:	f894 3041 	ldrb.w	r3, [r4, #65]	; 0x41
    5296:	f013 0f01 	tst.w	r3, #1
    529a:	f000 8109 	beq.w	54b0 <Proces+0x4d4>
    529e:	f7fe ffeb 	bl	4278 <P_Start>
    52a2:	2800      	cmp	r0, #0
    52a4:	f000 8104 	beq.w	54b0 <Proces+0x4d4>
		{
			P_CylindryStart(true);
    52a8:	2001      	movs	r0, #1
    52aa:	f7ff fcf5 	bl	4c98 <P_CylindryStart>

			if (GET_CISNIENIE_OSIAGNIETE)
    52ae:	7e23      	ldrb	r3, [r4, #24]
    52b0:	7e62      	ldrb	r2, [r4, #25]
    52b2:	f013 0f40 	tst.w	r3, #64	; 0x40
    52b6:	f000 82a5 	beq.w	5804 <Proces+0x828>
			{
				if (czas_docisku_wstepnego > 0)
    52ba:	4b8f      	ldr	r3, [pc, #572]	; (54f8 <Proces+0x51c>)
    52bc:	781a      	ldrb	r2, [r3, #0]
    52be:	b11a      	cbz	r2, 52c8 <Proces+0x2ec>
					czas_docisku_wstepnego--;
    52c0:	781a      	ldrb	r2, [r3, #0]
    52c2:	3a01      	subs	r2, #1
    52c4:	b2d2      	uxtb	r2, r2
    52c6:	701a      	strb	r2, [r3, #0]

				if (czas_docisku_wstepnego == 0)
    52c8:	4b8b      	ldr	r3, [pc, #556]	; (54f8 <Proces+0x51c>)
    52ca:	781b      	ldrb	r3, [r3, #0]
    52cc:	461a      	mov	r2, r3
    52ce:	2b00      	cmp	r3, #0
    52d0:	f040 8298 	bne.w	5804 <Proces+0x828>
				{
					p_stanprocesu = ETPROC_CZEKAM_NA_CZUJNIKI_DK;
    52d4:	4b87      	ldr	r3, [pc, #540]	; (54f4 <Proces+0x518>)
    52d6:	f893 102e 	ldrb.w	r1, [r3, #46]	; 0x2e
    52da:	2106      	movs	r1, #6
    52dc:	e0a5      	b.n	542a <Proces+0x44e>

		// ====================================================================
	case ETPROC_CZEKAM_NA_CZUJNIKI_DK:
		// ====================================================================

		if (p_gotowa && P_Start())
    52de:	4c85      	ldr	r4, [pc, #532]	; (54f4 <Proces+0x518>)
    52e0:	f894 3041 	ldrb.w	r3, [r4, #65]	; 0x41
    52e4:	f013 0f01 	tst.w	r3, #1
    52e8:	f000 80e2 	beq.w	54b0 <Proces+0x4d4>
    52ec:	f7fe ffc4 	bl	4278 <P_Start>
    52f0:	2800      	cmp	r0, #0
    52f2:	f000 80dd 	beq.w	54b0 <Proces+0x4d4>
		{
			P_CylindryStart(true);
    52f6:	2001      	movs	r0, #1
    52f8:	f7ff fcce 	bl	4c98 <P_CylindryStart>

			if (GET_CISNIENIE_OSIAGNIETE)
    52fc:	7e23      	ldrb	r3, [r4, #24]
    52fe:	7e62      	ldrb	r2, [r4, #25]
    5300:	f013 0f40 	tst.w	r3, #64	; 0x40
    5304:	f000 827e 	beq.w	5804 <Proces+0x828>
			{
				if (P_CzujnikiZezwoleniePrzyDK() == true)
    5308:	f7ff fcaa 	bl	4c60 <P_CzujnikiZezwoleniePrzyDK>
    530c:	2801      	cmp	r0, #1
    530e:	f040 8279 	bne.w	5804 <Proces+0x828>
				{
					p_stanprocesu = ETPROC_CZEKAM_NA_KONTROLA_NAKRETKI;
    5312:	f894 302e 	ldrb.w	r3, [r4, #46]	; 0x2e
    5316:	2307      	movs	r3, #7
    5318:	f884 302e 	strb.w	r3, [r4, #46]	; 0x2e
    531c:	f894 302f 	ldrb.w	r3, [r4, #47]	; 0x2f
    5320:	2300      	movs	r3, #0
    5322:	f884 302f 	strb.w	r3, [r4, #47]	; 0x2f
    5326:	bd70      	pop	{r4, r5, r6, pc}

		// ====================================================================
	case ETPROC_CZEKAM_NA_KONTROLA_NAKRETKI:
		// ====================================================================

		if (p_gotowa && P_Start())
    5328:	4c72      	ldr	r4, [pc, #456]	; (54f4 <Proces+0x518>)
    532a:	f894 3041 	ldrb.w	r3, [r4, #65]	; 0x41
    532e:	f013 0f01 	tst.w	r3, #1
    5332:	f000 80bd 	beq.w	54b0 <Proces+0x4d4>
    5336:	f7fe ff9f 	bl	4278 <P_Start>
    533a:	2800      	cmp	r0, #0
    533c:	f000 80b8 	beq.w	54b0 <Proces+0x4d4>
		{
			P_CylindryStart(true);
    5340:	2001      	movs	r0, #1
    5342:	f7ff fca9 	bl	4c98 <P_CylindryStart>

			if (GET_CISNIENIE_OSIAGNIETE && GET_REFERUJ_CYLINDER)
    5346:	7e23      	ldrb	r3, [r4, #24]
    5348:	7e62      	ldrb	r2, [r4, #25]
    534a:	f013 0f40 	tst.w	r3, #64	; 0x40
    534e:	d00c      	beq.n	536a <Proces+0x38e>
    5350:	7e23      	ldrb	r3, [r4, #24]
    5352:	7e62      	ldrb	r2, [r4, #25]
    5354:	f013 0f02 	tst.w	r3, #2
    5358:	d007      	beq.n	536a <Proces+0x38e>
			{
				ReferujCylinder();
    535a:	f7fe fb7b 	bl	3a54 <ReferujCylinder>

				sluza_start = false;
    535e:	4b67      	ldr	r3, [pc, #412]	; (54fc <Proces+0x520>)
    5360:	2200      	movs	r2, #0
    5362:	f883 2035 	strb.w	r2, [r3, #53]	; 0x35
				sluza_check = false;
    5366:	f883 204f 	strb.w	r2, [r3, #79]	; 0x4f
			}

			if (GET_CISNIENIE_OSIAGNIETE && GET_NAKR_POZ && GET_NAKR_WYD)
    536a:	4b62      	ldr	r3, [pc, #392]	; (54f4 <Proces+0x518>)
    536c:	7e1a      	ldrb	r2, [r3, #24]
    536e:	7e59      	ldrb	r1, [r3, #25]
    5370:	f012 0f40 	tst.w	r2, #64	; 0x40
    5374:	f000 8246 	beq.w	5804 <Proces+0x828>
    5378:	7e1a      	ldrb	r2, [r3, #24]
    537a:	7e59      	ldrb	r1, [r3, #25]
    537c:	f012 0f08 	tst.w	r2, #8
    5380:	f000 8240 	beq.w	5804 <Proces+0x828>
    5384:	7e1a      	ldrb	r2, [r3, #24]
    5386:	7e59      	ldrb	r1, [r3, #25]
    5388:	f012 0f10 	tst.w	r2, #16
    538c:	f000 823a 	beq.w	5804 <Proces+0x828>
			{
				// reset wartoci wtopienia
				p_wtopienie_poczatkowe = p_cylinder_akt;
    5390:	f893 2058 	ldrb.w	r2, [r3, #88]	; 0x58
    5394:	f893 1059 	ldrb.w	r1, [r3, #89]	; 0x59
    5398:	ea42 2101 	orr.w	r1, r2, r1, lsl #8
    539c:	f001 00ff 	and.w	r0, r1, #255	; 0xff
    53a0:	f893 2038 	ldrb.w	r2, [r3, #56]	; 0x38
    53a4:	0a09      	lsrs	r1, r1, #8
    53a6:	f883 0038 	strb.w	r0, [r3, #56]	; 0x38
    53aa:	f893 0039 	ldrb.w	r0, [r3, #57]	; 0x39
    53ae:	2200      	movs	r2, #0
    53b0:	f883 1039 	strb.w	r1, [r3, #57]	; 0x39
				p_ostzgrzew_pom_wtop = 0;
    53b4:	f893 102c 	ldrb.w	r1, [r3, #44]	; 0x2c
    53b8:	f883 202c 	strb.w	r2, [r3, #44]	; 0x2c
    53bc:	f893 102d 	ldrb.w	r1, [r3, #45]	; 0x2d
				wtop = 0;
    53c0:	494f      	ldr	r1, [pc, #316]	; (5500 <Proces+0x524>)

			if (GET_CISNIENIE_OSIAGNIETE && GET_NAKR_POZ && GET_NAKR_WYD)
			{
				// reset wartoci wtopienia
				p_wtopienie_poczatkowe = p_cylinder_akt;
				p_ostzgrzew_pom_wtop = 0;
    53c2:	f883 202d 	strb.w	r2, [r3, #45]	; 0x2d
				wtop = 0;
    53c6:	600a      	str	r2, [r1, #0]

				if (czas_podgrzewania > 0 && prad_podgrzewania > 0)
    53c8:	494e      	ldr	r1, [pc, #312]	; (5504 <Proces+0x528>)
    53ca:	7809      	ldrb	r1, [r1, #0]
    53cc:	b131      	cbz	r1, 53dc <Proces+0x400>
    53ce:	494e      	ldr	r1, [pc, #312]	; (5508 <Proces+0x52c>)
    53d0:	8809      	ldrh	r1, [r1, #0]
    53d2:	b119      	cbz	r1, 53dc <Proces+0x400>
					p_stanprocesu = ETPROC_ZGRZEWANIE_PODGRZEWANIE;
    53d4:	f893 102e 	ldrb.w	r1, [r3, #46]	; 0x2e
    53d8:	210a      	movs	r1, #10
    53da:	e026      	b.n	542a <Proces+0x44e>
				else if (czas_pauzy_przed_zgrzewaniem > 0)
    53dc:	4b4b      	ldr	r3, [pc, #300]	; (550c <Proces+0x530>)
    53de:	781b      	ldrb	r3, [r3, #0]
    53e0:	461a      	mov	r2, r3
    53e2:	b123      	cbz	r3, 53ee <Proces+0x412>
					p_stanprocesu = ETPROC_ZGRZEWANIE_PODGRZEWANIE_PAUZA;
    53e4:	4b43      	ldr	r3, [pc, #268]	; (54f4 <Proces+0x518>)
    53e6:	f893 202e 	ldrb.w	r2, [r3, #46]	; 0x2e
    53ea:	220b      	movs	r2, #11
    53ec:	e1f9      	b.n	57e2 <Proces+0x806>
				else if (czas_zgrzewania > 0 && prad_zgrzewania > 0)
    53ee:	4b48      	ldr	r3, [pc, #288]	; (5510 <Proces+0x534>)
    53f0:	781b      	ldrb	r3, [r3, #0]
    53f2:	b13b      	cbz	r3, 5404 <Proces+0x428>
    53f4:	4b47      	ldr	r3, [pc, #284]	; (5514 <Proces+0x538>)
    53f6:	881b      	ldrh	r3, [r3, #0]
    53f8:	b123      	cbz	r3, 5404 <Proces+0x428>
					p_stanprocesu = ETPROC_ZGRZEWANIE_ZGRZEWANIE;
    53fa:	4b3e      	ldr	r3, [pc, #248]	; (54f4 <Proces+0x518>)
    53fc:	f893 102e 	ldrb.w	r1, [r3, #46]	; 0x2e
    5400:	210c      	movs	r1, #12
    5402:	e012      	b.n	542a <Proces+0x44e>
				else if (czas_pauzy_po_zgrzewaniu > 0)
    5404:	4b44      	ldr	r3, [pc, #272]	; (5518 <Proces+0x53c>)
    5406:	781b      	ldrb	r3, [r3, #0]
    5408:	461a      	mov	r2, r3
    540a:	b123      	cbz	r3, 5416 <Proces+0x43a>
					p_stanprocesu = ETPROC_ZGRZEWANIE_DOGRZEWANIE_PAUZA;
    540c:	4b39      	ldr	r3, [pc, #228]	; (54f4 <Proces+0x518>)
    540e:	f893 202e 	ldrb.w	r2, [r3, #46]	; 0x2e
    5412:	220e      	movs	r2, #14
    5414:	e1e5      	b.n	57e2 <Proces+0x806>
				else if (czas_dogrzewania > 0 && prad_dogrzewania > 0)
    5416:	4b41      	ldr	r3, [pc, #260]	; (551c <Proces+0x540>)
    5418:	781b      	ldrb	r3, [r3, #0]
    541a:	b14b      	cbz	r3, 5430 <Proces+0x454>
    541c:	4b40      	ldr	r3, [pc, #256]	; (5520 <Proces+0x544>)
    541e:	881b      	ldrh	r3, [r3, #0]
    5420:	b133      	cbz	r3, 5430 <Proces+0x454>
					p_stanprocesu = ETPROC_ZGRZEWANIE_DOGRZEWANIE;
    5422:	4b34      	ldr	r3, [pc, #208]	; (54f4 <Proces+0x518>)
    5424:	f893 102e 	ldrb.w	r1, [r3, #46]	; 0x2e
    5428:	210f      	movs	r1, #15
    542a:	f883 102e 	strb.w	r1, [r3, #46]	; 0x2e
    542e:	e048      	b.n	54c2 <Proces+0x4e6>
				else
					p_stanprocesu = ETPROC_ZGRZEWANIE_KONIEC;
    5430:	4b30      	ldr	r3, [pc, #192]	; (54f4 <Proces+0x518>)
    5432:	f893 202e 	ldrb.w	r2, [r3, #46]	; 0x2e
    5436:	2211      	movs	r2, #17
    5438:	e1d3      	b.n	57e2 <Proces+0x806>

		// ====================================================================
	case ETPROC_CZEKAM_NA_WYBLOKOWANIE:
		// ====================================================================

		if ((prog.Konfig & KONFIG_WYBLOKOWANIE_GORA) > 0)
    543a:	4b3a      	ldr	r3, [pc, #232]	; (5524 <Proces+0x548>)
    543c:	8f5d      	ldrh	r5, [r3, #58]	; 0x3a
    543e:	f015 0508 	ands.w	r5, r5, #8
    5442:	d020      	beq.n	5486 <Proces+0x4aa>
		{
			if (P_Start() && P_WyblokowanieZezwolenie())
    5444:	f7fe ff18 	bl	4278 <P_Start>
    5448:	b168      	cbz	r0, 5466 <Proces+0x48a>
    544a:	f7ff f8d5 	bl	45f8 <P_WyblokowanieZezwolenie>
    544e:	b150      	cbz	r0, 5466 <Proces+0x48a>
				p_stanprocesu = ETPROC_CZEKAM_NA_DK;
    5450:	4b28      	ldr	r3, [pc, #160]	; (54f4 <Proces+0x518>)
    5452:	f893 202e 	ldrb.w	r2, [r3, #46]	; 0x2e
    5456:	2205      	movs	r2, #5
    5458:	f883 202e 	strb.w	r2, [r3, #46]	; 0x2e
    545c:	f893 202f 	ldrb.w	r2, [r3, #47]	; 0x2f
    5460:	2200      	movs	r2, #0
    5462:	f883 202f 	strb.w	r2, [r3, #47]	; 0x2f

			if (P_Start() == false)
    5466:	f7fe ff07 	bl	4278 <P_Start>
    546a:	4603      	mov	r3, r0
    546c:	2800      	cmp	r0, #0
    546e:	f040 81c9 	bne.w	5804 <Proces+0x828>
				p_stanprocesu = ETPROC_CZEKAM_NA_BRAK_STARTU;
    5472:	4a20      	ldr	r2, [pc, #128]	; (54f4 <Proces+0x518>)
    5474:	f892 102e 	ldrb.w	r1, [r2, #46]	; 0x2e
    5478:	f882 002e 	strb.w	r0, [r2, #46]	; 0x2e
    547c:	f892 102f 	ldrb.w	r1, [r2, #47]	; 0x2f
    5480:	f882 302f 	strb.w	r3, [r2, #47]	; 0x2f
    5484:	bd70      	pop	{r4, r5, r6, pc}
		}
		else
		{
			if (p_gotowa && P_Start())
    5486:	4c1b      	ldr	r4, [pc, #108]	; (54f4 <Proces+0x518>)
    5488:	f894 3041 	ldrb.w	r3, [r4, #65]	; 0x41
    548c:	f013 0f01 	tst.w	r3, #1
    5490:	d00e      	beq.n	54b0 <Proces+0x4d4>
    5492:	f7fe fef1 	bl	4278 <P_Start>
    5496:	b158      	cbz	r0, 54b0 <Proces+0x4d4>
			{
				P_CylindryStart(true);
    5498:	2001      	movs	r0, #1
    549a:	f7ff fbfd 	bl	4c98 <P_CylindryStart>

				if (P_WyblokowanieZezwolenie())
    549e:	f7ff f8ab 	bl	45f8 <P_WyblokowanieZezwolenie>
    54a2:	2800      	cmp	r0, #0
    54a4:	f000 81ae 	beq.w	5804 <Proces+0x828>
				{
					p_stanprocesu = ETPROC_CZEKAM_NA_DK;
    54a8:	f894 302e 	ldrb.w	r3, [r4, #46]	; 0x2e
    54ac:	2305      	movs	r3, #5
    54ae:	e11b      	b.n	56e8 <Proces+0x70c>
				}
			}
			else
			{
				P_CylindryStart(false);
    54b0:	2000      	movs	r0, #0
    54b2:	f7ff fbf1 	bl	4c98 <P_CylindryStart>
				p_stanprocesu = ETPROC_CZEKAM_NA_BRAK_STARTU;
    54b6:	4b0f      	ldr	r3, [pc, #60]	; (54f4 <Proces+0x518>)
    54b8:	f893 202e 	ldrb.w	r2, [r3, #46]	; 0x2e
    54bc:	2200      	movs	r2, #0
    54be:	f883 202e 	strb.w	r2, [r3, #46]	; 0x2e
    54c2:	f893 102f 	ldrb.w	r1, [r3, #47]	; 0x2f
    54c6:	e191      	b.n	57ec <Proces+0x810>

		// ====================================================================
	case ETPROC_ZGRZEWANIE_PODGRZEWANIE:
		// ====================================================================

		if (czas_podgrzewania > 0)
    54c8:	4b0e      	ldr	r3, [pc, #56]	; (5504 <Proces+0x528>)
    54ca:	781a      	ldrb	r2, [r3, #0]
    54cc:	b11a      	cbz	r2, 54d6 <Proces+0x4fa>
		{
			czas_podgrzewania--;
    54ce:	781a      	ldrb	r2, [r3, #0]
    54d0:	3a01      	subs	r2, #1
    54d2:	b2d2      	uxtb	r2, r2
    54d4:	701a      	strb	r2, [r3, #0]
		}

		if (czas_podgrzewania == 0)
    54d6:	4b0b      	ldr	r3, [pc, #44]	; (5504 <Proces+0x528>)
    54d8:	781b      	ldrb	r3, [r3, #0]
    54da:	4619      	mov	r1, r3
    54dc:	2b00      	cmp	r3, #0
    54de:	f040 80f6 	bne.w	56ce <Proces+0x6f2>
		{
			if (czas_pauzy_przed_zgrzewaniem > 0)
    54e2:	4b0a      	ldr	r3, [pc, #40]	; (550c <Proces+0x530>)
    54e4:	781b      	ldrb	r3, [r3, #0]
    54e6:	461a      	mov	r2, r3
    54e8:	b35b      	cbz	r3, 5542 <Proces+0x566>
			{
				p_stanprocesu = ETPROC_ZGRZEWANIE_PODGRZEWANIE_PAUZA;
    54ea:	4b02      	ldr	r3, [pc, #8]	; (54f4 <Proces+0x518>)
    54ec:	f893 202e 	ldrb.w	r2, [r3, #46]	; 0x2e
    54f0:	220b      	movs	r2, #11
    54f2:	e0d0      	b.n	5696 <Proces+0x6ba>
    54f4:	20000ee4 	.word	0x20000ee4
    54f8:	2000216a 	.word	0x2000216a
    54fc:	2000012c 	.word	0x2000012c
    5500:	20002514 	.word	0x20002514
    5504:	2000252c 	.word	0x2000252c
    5508:	2000216c 	.word	0x2000216c
    550c:	20002520 	.word	0x20002520
    5510:	200022e4 	.word	0x200022e4
    5514:	20001694 	.word	0x20001694
    5518:	20002170 	.word	0x20002170
    551c:	200016a2 	.word	0x200016a2
    5520:	20001f1c 	.word	0x20001f1c
    5524:	20001b04 	.word	0x20001b04

		// ====================================================================
	case ETPROC_ZGRZEWANIE_PODGRZEWANIE_PAUZA:
		// ====================================================================

		if (czas_pauzy_przed_zgrzewaniem > 0)
    5528:	4b81      	ldr	r3, [pc, #516]	; (5730 <Proces+0x754>)
    552a:	781a      	ldrb	r2, [r3, #0]
    552c:	b11a      	cbz	r2, 5536 <Proces+0x55a>
		{
			czas_pauzy_przed_zgrzewaniem--;
    552e:	781a      	ldrb	r2, [r3, #0]
    5530:	3a01      	subs	r2, #1
    5532:	b2d2      	uxtb	r2, r2
    5534:	701a      	strb	r2, [r3, #0]
		}

		if (czas_pauzy_przed_zgrzewaniem == 0)
    5536:	4b7e      	ldr	r3, [pc, #504]	; (5730 <Proces+0x754>)
    5538:	781b      	ldrb	r3, [r3, #0]
    553a:	461a      	mov	r2, r3
    553c:	2b00      	cmp	r3, #0
    553e:	f040 80c6 	bne.w	56ce <Proces+0x6f2>
		{
			if (czas_zgrzewania > 0 && prad_zgrzewania > 0)
    5542:	4b7c      	ldr	r3, [pc, #496]	; (5734 <Proces+0x758>)
    5544:	781b      	ldrb	r3, [r3, #0]
    5546:	b13b      	cbz	r3, 5558 <Proces+0x57c>
    5548:	4b7b      	ldr	r3, [pc, #492]	; (5738 <Proces+0x75c>)
    554a:	881b      	ldrh	r3, [r3, #0]
    554c:	b123      	cbz	r3, 5558 <Proces+0x57c>
				p_stanprocesu = ETPROC_ZGRZEWANIE_ZGRZEWANIE;
    554e:	4b7b      	ldr	r3, [pc, #492]	; (573c <Proces+0x760>)
    5550:	f893 102e 	ldrb.w	r1, [r3, #46]	; 0x2e
    5554:	210c      	movs	r1, #12
    5556:	e0b4      	b.n	56c2 <Proces+0x6e6>
			else if (czas_pauzy_po_zgrzewaniu > 0)
    5558:	4b79      	ldr	r3, [pc, #484]	; (5740 <Proces+0x764>)
    555a:	781b      	ldrb	r3, [r3, #0]
    555c:	461a      	mov	r2, r3
    555e:	2b00      	cmp	r3, #0
    5560:	d132      	bne.n	55c8 <Proces+0x5ec>
				p_stanprocesu = ETPROC_ZGRZEWANIE_DOGRZEWANIE_PAUZA;
			else if (czas_dogrzewania > 0 && prad_dogrzewania > 0)
    5562:	4b78      	ldr	r3, [pc, #480]	; (5744 <Proces+0x768>)
    5564:	781b      	ldrb	r3, [r3, #0]
    5566:	b11b      	cbz	r3, 5570 <Proces+0x594>
    5568:	4b77      	ldr	r3, [pc, #476]	; (5748 <Proces+0x76c>)
    556a:	881b      	ldrh	r3, [r3, #0]
    556c:	2b00      	cmp	r3, #0
    556e:	d170      	bne.n	5652 <Proces+0x676>
				p_stanprocesu = ETPROC_ZGRZEWANIE_DOGRZEWANIE;
			else
				p_stanprocesu = ETPROC_ZGRZEWANIE_KONIEC;
    5570:	4b72      	ldr	r3, [pc, #456]	; (573c <Proces+0x760>)
    5572:	f893 202e 	ldrb.w	r2, [r3, #46]	; 0x2e
    5576:	2211      	movs	r2, #17
    5578:	e034      	b.n	55e4 <Proces+0x608>

		// ====================================================================
	case ETPROC_ZGRZEWANIE_ZGRZEWANIE:
		// ====================================================================

		if (czas_zgrzewania > 0)
    557a:	4b6e      	ldr	r3, [pc, #440]	; (5734 <Proces+0x758>)
    557c:	781a      	ldrb	r2, [r3, #0]
    557e:	b11a      	cbz	r2, 5588 <Proces+0x5ac>
		{
			czas_zgrzewania--;
    5580:	781a      	ldrb	r2, [r3, #0]
    5582:	3a01      	subs	r2, #1
    5584:	b2d2      	uxtb	r2, r2
    5586:	701a      	strb	r2, [r3, #0]
		}

		if (czas_zgrzewania == 0)
    5588:	4b6a      	ldr	r3, [pc, #424]	; (5734 <Proces+0x758>)
    558a:	781b      	ldrb	r3, [r3, #0]
    558c:	4619      	mov	r1, r3
    558e:	2b00      	cmp	r3, #0
    5590:	f040 809d 	bne.w	56ce <Proces+0x6f2>
		{
			//
			// Sprawdzenie czy wicej impulsw
			// Jezeli tak to etap Pauza
			//
			if (liczba_impulsow > 1 && pauza_impulsow > 0)
    5594:	4b6d      	ldr	r3, [pc, #436]	; (574c <Proces+0x770>)
    5596:	781b      	ldrb	r3, [r3, #0]
    5598:	2b01      	cmp	r3, #1
    559a:	d910      	bls.n	55be <Proces+0x5e2>
    559c:	4a6c      	ldr	r2, [pc, #432]	; (5750 <Proces+0x774>)
    559e:	7813      	ldrb	r3, [r2, #0]
    55a0:	b16b      	cbz	r3, 55be <Proces+0x5e2>
			{
				p_stanprocesu = ETPROC_ZGRZEWANIE_ZGRZEWANIE_PAUZA;
    55a2:	4b66      	ldr	r3, [pc, #408]	; (573c <Proces+0x760>)
    55a4:	f893 002e 	ldrb.w	r0, [r3, #46]	; 0x2e
    55a8:	200d      	movs	r0, #13
    55aa:	f883 002e 	strb.w	r0, [r3, #46]	; 0x2e
    55ae:	f893 002f 	ldrb.w	r0, [r3, #47]	; 0x2f
    55b2:	f883 102f 	strb.w	r1, [r3, #47]	; 0x2f
				czas_pauzy_impulsow = pauza_impulsow;
    55b6:	7812      	ldrb	r2, [r2, #0]
    55b8:	4b66      	ldr	r3, [pc, #408]	; (5754 <Proces+0x778>)
    55ba:	701a      	strb	r2, [r3, #0]
		{
			//
			// Sprawdzenie czy wicej impulsw
			// Jezeli tak to etap Pauza
			//
			if (liczba_impulsow > 1 && pauza_impulsow > 0)
    55bc:	e087      	b.n	56ce <Proces+0x6f2>
			else
			{
				//
				// Nastepny etap po zgrzaniu wszystkich impulsw
				//
				if (czas_pauzy_po_zgrzewaniu > 0)
    55be:	4b60      	ldr	r3, [pc, #384]	; (5740 <Proces+0x764>)
    55c0:	781b      	ldrb	r3, [r3, #0]
    55c2:	461a      	mov	r2, r3
    55c4:	2b00      	cmp	r3, #0
    55c6:	d03c      	beq.n	5642 <Proces+0x666>
				{
					p_stanprocesu = ETPROC_ZGRZEWANIE_DOGRZEWANIE_PAUZA;
    55c8:	4b5c      	ldr	r3, [pc, #368]	; (573c <Proces+0x760>)
    55ca:	f893 202e 	ldrb.w	r2, [r3, #46]	; 0x2e
    55ce:	220e      	movs	r2, #14
    55d0:	e008      	b.n	55e4 <Proces+0x608>
				}
				else if (czas_dogrzewania > 0 && prad_dogrzewania > 0)
					p_stanprocesu = ETPROC_ZGRZEWANIE_DOGRZEWANIE;
				else if (czas_docisku_koncowego > 0)
    55d2:	4b61      	ldr	r3, [pc, #388]	; (5758 <Proces+0x77c>)
    55d4:	781a      	ldrb	r2, [r3, #0]
    55d6:	4b59      	ldr	r3, [pc, #356]	; (573c <Proces+0x760>)
    55d8:	4611      	mov	r1, r2
    55da:	2a00      	cmp	r2, #0
    55dc:	d058      	beq.n	5690 <Proces+0x6b4>
					p_stanprocesu = ETPROC_ZGRZEWANIE_DOCISK_KONCOWY;
    55de:	f893 202e 	ldrb.w	r2, [r3, #46]	; 0x2e
    55e2:	2210      	movs	r2, #16
    55e4:	f883 202e 	strb.w	r2, [r3, #46]	; 0x2e
    55e8:	f893 202f 	ldrb.w	r2, [r3, #47]	; 0x2f
    55ec:	2200      	movs	r2, #0
    55ee:	e06c      	b.n	56ca <Proces+0x6ee>

		// ====================================================================
	case ETPROC_ZGRZEWANIE_ZGRZEWANIE_PAUZA:
		// ====================================================================

		if (czas_pauzy_impulsow > 0)
    55f0:	4b58      	ldr	r3, [pc, #352]	; (5754 <Proces+0x778>)
    55f2:	781a      	ldrb	r2, [r3, #0]
    55f4:	b11a      	cbz	r2, 55fe <Proces+0x622>
		{
			czas_pauzy_impulsow--;
    55f6:	781a      	ldrb	r2, [r3, #0]
    55f8:	3a01      	subs	r2, #1
    55fa:	b2d2      	uxtb	r2, r2
    55fc:	701a      	strb	r2, [r3, #0]
		}

		if (czas_pauzy_impulsow == 0)
    55fe:	4b55      	ldr	r3, [pc, #340]	; (5754 <Proces+0x778>)
    5600:	781b      	ldrb	r3, [r3, #0]
    5602:	2b00      	cmp	r3, #0
    5604:	d163      	bne.n	56ce <Proces+0x6f2>
		{
			if (liczba_impulsow > 0)
    5606:	4b51      	ldr	r3, [pc, #324]	; (574c <Proces+0x770>)
    5608:	781a      	ldrb	r2, [r3, #0]
    560a:	b11a      	cbz	r2, 5614 <Proces+0x638>
				liczba_impulsow--;
    560c:	781a      	ldrb	r2, [r3, #0]
    560e:	3a01      	subs	r2, #1
    5610:	b2d2      	uxtb	r2, r2
    5612:	701a      	strb	r2, [r3, #0]

			czas_zgrzewania = prog.CzasZgrzewania * 2;
    5614:	4b51      	ldr	r3, [pc, #324]	; (575c <Proces+0x780>)
    5616:	79da      	ldrb	r2, [r3, #7]
    5618:	4b46      	ldr	r3, [pc, #280]	; (5734 <Proces+0x758>)
    561a:	0052      	lsls	r2, r2, #1
    561c:	b2d2      	uxtb	r2, r2
    561e:	701a      	strb	r2, [r3, #0]

			p_stanprocesu = ETPROC_ZGRZEWANIE_ZGRZEWANIE;
    5620:	4b46      	ldr	r3, [pc, #280]	; (573c <Proces+0x760>)
    5622:	f893 202e 	ldrb.w	r2, [r3, #46]	; 0x2e
    5626:	220c      	movs	r2, #12
    5628:	e7dc      	b.n	55e4 <Proces+0x608>

		// ====================================================================
	case ETPROC_ZGRZEWANIE_DOGRZEWANIE_PAUZA:
		// ====================================================================

		if (czas_pauzy_po_zgrzewaniu > 0)
    562a:	4b45      	ldr	r3, [pc, #276]	; (5740 <Proces+0x764>)
    562c:	781a      	ldrb	r2, [r3, #0]
    562e:	b11a      	cbz	r2, 5638 <Proces+0x65c>
		{
			czas_pauzy_po_zgrzewaniu--;
    5630:	781a      	ldrb	r2, [r3, #0]
    5632:	3a01      	subs	r2, #1
    5634:	b2d2      	uxtb	r2, r2
    5636:	701a      	strb	r2, [r3, #0]
		}

		if (czas_pauzy_po_zgrzewaniu == 0)
    5638:	4b41      	ldr	r3, [pc, #260]	; (5740 <Proces+0x764>)
    563a:	781b      	ldrb	r3, [r3, #0]
    563c:	461a      	mov	r2, r3
    563e:	2b00      	cmp	r3, #0
    5640:	d145      	bne.n	56ce <Proces+0x6f2>
		{
			if (czas_dogrzewania > 0 && prad_dogrzewania > 0)
    5642:	4b40      	ldr	r3, [pc, #256]	; (5744 <Proces+0x768>)
    5644:	781b      	ldrb	r3, [r3, #0]
    5646:	2b00      	cmp	r3, #0
    5648:	d0c3      	beq.n	55d2 <Proces+0x5f6>
    564a:	4b3f      	ldr	r3, [pc, #252]	; (5748 <Proces+0x76c>)
    564c:	881b      	ldrh	r3, [r3, #0]
    564e:	2b00      	cmp	r3, #0
    5650:	d0bf      	beq.n	55d2 <Proces+0x5f6>
				p_stanprocesu = ETPROC_ZGRZEWANIE_DOGRZEWANIE;
    5652:	4b3a      	ldr	r3, [pc, #232]	; (573c <Proces+0x760>)
    5654:	f893 102e 	ldrb.w	r1, [r3, #46]	; 0x2e
    5658:	210f      	movs	r1, #15
    565a:	e032      	b.n	56c2 <Proces+0x6e6>

		// ====================================================================
	case ETPROC_ZGRZEWANIE_DOGRZEWANIE:
		// ====================================================================

		if (czas_dogrzewania > 0)
    565c:	4b39      	ldr	r3, [pc, #228]	; (5744 <Proces+0x768>)
    565e:	781a      	ldrb	r2, [r3, #0]
    5660:	b11a      	cbz	r2, 566a <Proces+0x68e>
		{
			czas_dogrzewania--;
    5662:	781a      	ldrb	r2, [r3, #0]
    5664:	3a01      	subs	r2, #1
    5666:	b2d2      	uxtb	r2, r2
    5668:	701a      	strb	r2, [r3, #0]
		}

		if (czas_dogrzewania == 0)
    566a:	4b36      	ldr	r3, [pc, #216]	; (5744 <Proces+0x768>)
    566c:	781b      	ldrb	r3, [r3, #0]
    566e:	4618      	mov	r0, r3
    5670:	bb6b      	cbnz	r3, 56ce <Proces+0x6f2>
		{
			if (czas_docisku_koncowego > 0)
    5672:	4b39      	ldr	r3, [pc, #228]	; (5758 <Proces+0x77c>)
    5674:	781a      	ldrb	r2, [r3, #0]
    5676:	4b31      	ldr	r3, [pc, #196]	; (573c <Proces+0x760>)
    5678:	4611      	mov	r1, r2
    567a:	b14a      	cbz	r2, 5690 <Proces+0x6b4>
				p_stanprocesu = ETPROC_ZGRZEWANIE_DOCISK_KONCOWY;
    567c:	f893 202e 	ldrb.w	r2, [r3, #46]	; 0x2e
    5680:	2210      	movs	r2, #16
    5682:	f883 202e 	strb.w	r2, [r3, #46]	; 0x2e
    5686:	f893 202f 	ldrb.w	r2, [r3, #47]	; 0x2f
    568a:	f883 002f 	strb.w	r0, [r3, #47]	; 0x2f
    568e:	e01e      	b.n	56ce <Proces+0x6f2>
			else
				p_stanprocesu = ETPROC_ZGRZEWANIE_KONIEC;
    5690:	f893 202e 	ldrb.w	r2, [r3, #46]	; 0x2e
    5694:	2211      	movs	r2, #17
    5696:	f883 202e 	strb.w	r2, [r3, #46]	; 0x2e
    569a:	f893 202f 	ldrb.w	r2, [r3, #47]	; 0x2f
    569e:	f883 102f 	strb.w	r1, [r3, #47]	; 0x2f
    56a2:	e014      	b.n	56ce <Proces+0x6f2>

		// ====================================================================
	case ETPROC_ZGRZEWANIE_DOCISK_KONCOWY:
		// ====================================================================

		if (czas_docisku_koncowego > 0)
    56a4:	4b2c      	ldr	r3, [pc, #176]	; (5758 <Proces+0x77c>)
    56a6:	781a      	ldrb	r2, [r3, #0]
    56a8:	b11a      	cbz	r2, 56b2 <Proces+0x6d6>
		{
			czas_docisku_koncowego--;
    56aa:	781a      	ldrb	r2, [r3, #0]
    56ac:	3a01      	subs	r2, #1
    56ae:	b2d2      	uxtb	r2, r2
    56b0:	701a      	strb	r2, [r3, #0]
		}

		if (czas_docisku_koncowego == 0)
    56b2:	4b29      	ldr	r3, [pc, #164]	; (5758 <Proces+0x77c>)
    56b4:	781b      	ldrb	r3, [r3, #0]
    56b6:	461a      	mov	r2, r3
    56b8:	b94b      	cbnz	r3, 56ce <Proces+0x6f2>
		{
			p_stanprocesu = ETPROC_ZGRZEWANIE_KONIEC;
    56ba:	4b20      	ldr	r3, [pc, #128]	; (573c <Proces+0x760>)
    56bc:	f893 102e 	ldrb.w	r1, [r3, #46]	; 0x2e
    56c0:	2111      	movs	r1, #17
    56c2:	f883 102e 	strb.w	r1, [r3, #46]	; 0x2e
    56c6:	f893 102f 	ldrb.w	r1, [r3, #47]	; 0x2f
    56ca:	f883 202f 	strb.w	r2, [r3, #47]	; 0x2f
		}

		if (p_gotowa == false)
    56ce:	4c1b      	ldr	r4, [pc, #108]	; (573c <Proces+0x760>)
    56d0:	f894 5041 	ldrb.w	r5, [r4, #65]	; 0x41
    56d4:	f015 0501 	ands.w	r5, r5, #1
    56d8:	f040 8094 	bne.w	5804 <Proces+0x828>
		{
			ZaklocenieSet(ERR_PROCES_PRZERWANY);
    56dc:	2005      	movs	r0, #5
    56de:	f7fd fb37 	bl	2d50 <ZaklocenieSet>
			p_stanprocesu = ETPROC_ZGRZEWANIE_KONIEC;
    56e2:	f894 302e 	ldrb.w	r3, [r4, #46]	; 0x2e
    56e6:	2311      	movs	r3, #17
    56e8:	f884 302e 	strb.w	r3, [r4, #46]	; 0x2e
    56ec:	f894 302f 	ldrb.w	r3, [r4, #47]	; 0x2f
    56f0:	f884 502f 	strb.w	r5, [r4, #47]	; 0x2f
    56f4:	bd70      	pop	{r4, r5, r6, pc}

		// ====================================================================
	case ETPROC_ZGRZEWANIE_KONIEC:
		// ====================================================================

		if (z_pradem)
    56f6:	4b1a      	ldr	r3, [pc, #104]	; (5760 <Proces+0x784>)
    56f8:	7c1b      	ldrb	r3, [r3, #16]
    56fa:	b16b      	cbz	r3, 5718 <Proces+0x73c>
			p_licznik_steppera_akt++;
    56fc:	4b0f      	ldr	r3, [pc, #60]	; (573c <Proces+0x760>)
    56fe:	7b1a      	ldrb	r2, [r3, #12]
    5700:	7b59      	ldrb	r1, [r3, #13]
    5702:	7b18      	ldrb	r0, [r3, #12]
    5704:	ea42 2201 	orr.w	r2, r2, r1, lsl #8
    5708:	3201      	adds	r2, #1
    570a:	b292      	uxth	r2, r2
    570c:	f002 01ff 	and.w	r1, r2, #255	; 0xff
    5710:	7319      	strb	r1, [r3, #12]
    5712:	0a12      	lsrs	r2, r2, #8
    5714:	7b59      	ldrb	r1, [r3, #13]
    5716:	735a      	strb	r2, [r3, #13]

		if (WynikiZgrzewania() == true || z_pradem == false)
    5718:	f7fe fac2 	bl	3ca0 <WynikiZgrzewania>
    571c:	2801      	cmp	r0, #1
    571e:	d002      	beq.n	5726 <Proces+0x74a>
    5720:	4b0f      	ldr	r3, [pc, #60]	; (5760 <Proces+0x784>)
    5722:	7c1b      	ldrb	r3, [r3, #16]
    5724:	b9f3      	cbnz	r3, 5764 <Proces+0x788>
			p_stanprocesu = ETPROC_ZGRZEW_OK;
    5726:	4b05      	ldr	r3, [pc, #20]	; (573c <Proces+0x760>)
    5728:	f893 202e 	ldrb.w	r2, [r3, #46]	; 0x2e
    572c:	2212      	movs	r2, #18
    572e:	e01d      	b.n	576c <Proces+0x790>
    5730:	20002520 	.word	0x20002520
    5734:	200022e4 	.word	0x200022e4
    5738:	20001694 	.word	0x20001694
    573c:	20000ee4 	.word	0x20000ee4
    5740:	20002170 	.word	0x20002170
    5744:	200016a2 	.word	0x200016a2
    5748:	20001f1c 	.word	0x20001f1c
    574c:	2000252d 	.word	0x2000252d
    5750:	20001696 	.word	0x20001696
    5754:	20001f34 	.word	0x20001f34
    5758:	200019a0 	.word	0x200019a0
    575c:	20001b04 	.word	0x20001b04
    5760:	2000012c 	.word	0x2000012c
		else
			p_stanprocesu = ETPROC_ZGRZEW_NOK;
    5764:	4b28      	ldr	r3, [pc, #160]	; (5808 <Proces+0x82c>)
    5766:	f893 202e 	ldrb.w	r2, [r3, #46]	; 0x2e
    576a:	2213      	movs	r2, #19
    576c:	f883 202e 	strb.w	r2, [r3, #46]	; 0x2e
    5770:	f893 202f 	ldrb.w	r2, [r3, #47]	; 0x2f
    5774:	2200      	movs	r2, #0
    5776:	f883 202f 	strb.w	r2, [r3, #47]	; 0x2f

		P_CylindryStart(false);
    577a:	2000      	movs	r0, #0
    577c:	f7ff fa8c 	bl	4c98 <P_CylindryStart>
		P_FK(true);
    5780:	2001      	movs	r0, #1

		break;

	}

}
    5782:	e8bd 4070 	ldmia.w	sp!, {r4, r5, r6, lr}
			p_stanprocesu = ETPROC_ZGRZEW_OK;
		else
			p_stanprocesu = ETPROC_ZGRZEW_NOK;

		P_CylindryStart(false);
		P_FK(true);
    5786:	f7ff bb19 	b.w	4dbc <P_FK>

		// ====================================================================
	case ETPROC_ZGRZEW_OK:
		// ====================================================================

		P_CylindryStart(false);
    578a:	2000      	movs	r0, #0
    578c:	f7ff fa84 	bl	4c98 <P_CylindryStart>

		nast_program = true;
    5790:	4b1e      	ldr	r3, [pc, #120]	; (580c <Proces+0x830>)
    5792:	2201      	movs	r2, #1
    5794:	f883 2056 	strb.w	r2, [r3, #86]	; 0x56

		if (z_pradem == true)
    5798:	7c1a      	ldrb	r2, [r3, #16]
    579a:	2a01      	cmp	r2, #1
    579c:	d10c      	bne.n	57b8 <Proces+0x7dc>
			z_pradem_wszystkie++;
    579e:	f893 2034 	ldrb.w	r2, [r3, #52]	; 0x34
    57a2:	3201      	adds	r2, #1
    57a4:	f883 2034 	strb.w	r2, [r3, #52]	; 0x34
    57a8:	e006      	b.n	57b8 <Proces+0x7dc>

		// ====================================================================
	case ETPROC_ZGRZEW_NOK:
		// ====================================================================

		P_CylindryStart(false);
    57aa:	2000      	movs	r0, #0
    57ac:	f7ff fa74 	bl	4c98 <P_CylindryStart>

		nast_program = true;
    57b0:	4b16      	ldr	r3, [pc, #88]	; (580c <Proces+0x830>)
    57b2:	2201      	movs	r2, #1
    57b4:	f883 2056 	strb.w	r2, [r3, #86]	; 0x56

		p_stanprocesu = ETPROC_KONIEC_PROCESU;
    57b8:	4b13      	ldr	r3, [pc, #76]	; (5808 <Proces+0x82c>)
    57ba:	f893 202e 	ldrb.w	r2, [r3, #46]	; 0x2e
    57be:	2214      	movs	r2, #20
    57c0:	e00f      	b.n	57e2 <Proces+0x806>

		// ====================================================================
	case ETPROC_KONIEC_PROCESU:
		// ====================================================================

		P_CylindryStart(false);
    57c2:	2000      	movs	r0, #0
    57c4:	f7ff fa68 	bl	4c98 <P_CylindryStart>

		if (wyslano_wyniki == true)
    57c8:	4b10      	ldr	r3, [pc, #64]	; (580c <Proces+0x830>)
    57ca:	f893 304e 	ldrb.w	r3, [r3, #78]	; 0x4e
    57ce:	2b01      	cmp	r3, #1
    57d0:	d118      	bne.n	5804 <Proces+0x828>
		{
			if ((prog.Konfig & KONFIG_BEZ_STARTU) > 0)
    57d2:	4b0f      	ldr	r3, [pc, #60]	; (5810 <Proces+0x834>)
    57d4:	8f5a      	ldrh	r2, [r3, #58]	; 0x3a
    57d6:	4b0c      	ldr	r3, [pc, #48]	; (5808 <Proces+0x82c>)
    57d8:	f002 0201 	and.w	r2, r2, #1
    57dc:	b14a      	cbz	r2, 57f2 <Proces+0x816>
				p_stanprocesu = ETPROC_CZEKAM_NA_POZWOLENIE_STARTU;
    57de:	f893 102e 	ldrb.w	r1, [r3, #46]	; 0x2e
    57e2:	f883 202e 	strb.w	r2, [r3, #46]	; 0x2e
    57e6:	f893 202f 	ldrb.w	r2, [r3, #47]	; 0x2f
    57ea:	2200      	movs	r2, #0
    57ec:	f883 202f 	strb.w	r2, [r3, #47]	; 0x2f
    57f0:	bd70      	pop	{r4, r5, r6, pc}
			else
				p_stanprocesu = ETPROC_CZEKAM_NA_BRAK_STARTU;
    57f2:	f893 202e 	ldrb.w	r2, [r3, #46]	; 0x2e
    57f6:	2200      	movs	r2, #0
    57f8:	f883 202e 	strb.w	r2, [r3, #46]	; 0x2e
    57fc:	f893 102f 	ldrb.w	r1, [r3, #47]	; 0x2f
    5800:	f883 202f 	strb.w	r2, [r3, #47]	; 0x2f
    5804:	bd70      	pop	{r4, r5, r6, pc}
    5806:	bf00      	nop
    5808:	20000ee4 	.word	0x20000ee4
    580c:	2000012c 	.word	0x2000012c
    5810:	20001b04 	.word	0x20001b04

00005814 <P_KoniecCyklu>:
	else
		ResetHard_Q06();
}

void P_KoniecCyklu(bool in)
{
    5814:	4b05      	ldr	r3, [pc, #20]	; (582c <P_KoniecCyklu+0x18>)
	if (in == true)
    5816:	2801      	cmp	r0, #1
		image.q[0] |= 0x40;
    5818:	f893 2040 	ldrb.w	r2, [r3, #64]	; 0x40
    581c:	bf0c      	ite	eq
    581e:	f042 0240 	orreq.w	r2, r2, #64	; 0x40
	else
		image.q[0] &= ~0x40;
    5822:	f002 02bf 	andne.w	r2, r2, #191	; 0xbf
    5826:	f883 2040 	strb.w	r2, [r3, #64]	; 0x40
    582a:	4770      	bx	lr
    582c:	20000ee4 	.word	0x20000ee4

00005830 <Sluza>:

//*****************************************************************************
// Obsuga luzy
//*****************************************************************************
void Sluza(void)
{
    5830:	b538      	push	{r3, r4, r5, lr}
	//
	// Inicjacja sluzy po koncu cyklu
	//
	if (p_sluza == 0)
    5832:	4b51      	ldr	r3, [pc, #324]	; (5978 <Sluza+0x148>)
    5834:	7c9a      	ldrb	r2, [r3, #18]
    5836:	7cd9      	ldrb	r1, [r3, #19]
    5838:	ea52 2201 	orrs.w	r2, r2, r1, lsl #8
    583c:	d106      	bne.n	584c <Sluza+0x1c>
	{
		bez_sluzy = true;
    583e:	4b4f      	ldr	r3, [pc, #316]	; (597c <Sluza+0x14c>)
    5840:	2101      	movs	r1, #1
    5842:	f883 1059 	strb.w	r1, [r3, #89]	; 0x59
		sluza_opt = false;
    5846:	f883 2058 	strb.w	r2, [r3, #88]	; 0x58
    584a:	e018      	b.n	587e <Sluza+0x4e>
		sluza_klt = false;
	}
	else if (p_sluza > 0 && p_sluza < 1000)
    584c:	7c9a      	ldrb	r2, [r3, #18]
    584e:	7cd9      	ldrb	r1, [r3, #19]
    5850:	ea52 2101 	orrs.w	r1, r2, r1, lsl #8
    5854:	d00c      	beq.n	5870 <Sluza+0x40>
    5856:	7c9a      	ldrb	r2, [r3, #18]
    5858:	7cdb      	ldrb	r3, [r3, #19]
    585a:	ea42 2303 	orr.w	r3, r2, r3, lsl #8
    585e:	f5b3 7f7a 	cmp.w	r3, #1000	; 0x3e8
    5862:	d205      	bcs.n	5870 <Sluza+0x40>
	{
		bez_sluzy = false;
    5864:	4b45      	ldr	r3, [pc, #276]	; (597c <Sluza+0x14c>)
    5866:	2200      	movs	r2, #0
    5868:	f883 2059 	strb.w	r2, [r3, #89]	; 0x59
		sluza_opt = true;
    586c:	2101      	movs	r1, #1
    586e:	e004      	b.n	587a <Sluza+0x4a>
		sluza_klt = false;
	}
	else
	{
		bez_sluzy = true;
    5870:	4b42      	ldr	r3, [pc, #264]	; (597c <Sluza+0x14c>)
    5872:	2201      	movs	r2, #1
    5874:	f883 2059 	strb.w	r2, [r3, #89]	; 0x59
		sluza_opt = false;
    5878:	2100      	movs	r1, #0
    587a:	f883 1058 	strb.w	r1, [r3, #88]	; 0x58
		sluza_klt = true;
	}

	if (sluza_start == true && sluza_started == false && P_Start() == false)
    587e:	4c3f      	ldr	r4, [pc, #252]	; (597c <Sluza+0x14c>)
	}
	else
	{
		bez_sluzy = true;
		sluza_opt = false;
		sluza_klt = true;
    5880:	f883 205a 	strb.w	r2, [r3, #90]	; 0x5a
	}

	if (sluza_start == true && sluza_started == false && P_Start() == false)
    5884:	f894 5035 	ldrb.w	r5, [r4, #53]	; 0x35
    5888:	2d01      	cmp	r5, #1
    588a:	d127      	bne.n	58dc <Sluza+0xac>
    588c:	f894 3057 	ldrb.w	r3, [r4, #87]	; 0x57
    5890:	bb23      	cbnz	r3, 58dc <Sluza+0xac>
    5892:	f7fe fcf1 	bl	4278 <P_Start>
    5896:	4603      	mov	r3, r0
    5898:	bb00      	cbnz	r0, 58dc <Sluza+0xac>
	{
		sluza_start = false;
		sluza_started = true;
		sluza_check = true;

		if (p_sluza < 1000)
    589a:	4a37      	ldr	r2, [pc, #220]	; (5978 <Sluza+0x148>)
		sluza_klt = true;
	}

	if (sluza_start == true && sluza_started == false && P_Start() == false)
	{
		sluza_start = false;
    589c:	f884 0035 	strb.w	r0, [r4, #53]	; 0x35
		sluza_started = true;
    58a0:	f884 5057 	strb.w	r5, [r4, #87]	; 0x57
		sluza_check = true;
    58a4:	f884 504f 	strb.w	r5, [r4, #79]	; 0x4f

		if (p_sluza < 1000)
    58a8:	7c91      	ldrb	r1, [r2, #18]
    58aa:	7cd0      	ldrb	r0, [r2, #19]
    58ac:	ea41 2100 	orr.w	r1, r1, r0, lsl #8
    58b0:	f5b1 7f7a 	cmp.w	r1, #1000	; 0x3e8
    58b4:	d206      	bcs.n	58c4 <Sluza+0x94>
		{
			sluza_czas = 50;
    58b6:	f04f 0232 	mov.w	r2, #50	; 0x32
    58ba:	f8a4 205c 	strh.w	r2, [r4, #92]	; 0x5c
			sluza_opt_czas = 0;
    58be:	f8a4 305e 	strh.w	r3, [r4, #94]	; 0x5e
    58c2:	e008      	b.n	58d6 <Sluza+0xa6>
		}
		else
			sluza_czas = p_sluza / 10;
    58c4:	7c93      	ldrb	r3, [r2, #18]
    58c6:	7cd2      	ldrb	r2, [r2, #19]
    58c8:	ea43 2302 	orr.w	r3, r3, r2, lsl #8
    58cc:	220a      	movs	r2, #10
    58ce:	fbb3 f3f2 	udiv	r3, r3, r2
    58d2:	f8a4 305c 	strh.w	r3, [r4, #92]	; 0x5c

		licznik_opt = 0;
    58d6:	4b2a      	ldr	r3, [pc, #168]	; (5980 <Sluza+0x150>)
    58d8:	2200      	movs	r2, #0
    58da:	701a      	strb	r2, [r3, #0]
	}

	//
	// Sterowanie wyjsciem
	//
	if (sluza_czas > 0)
    58dc:	4c27      	ldr	r4, [pc, #156]	; (597c <Sluza+0x14c>)
    58de:	f8b4 305c 	ldrh.w	r3, [r4, #92]	; 0x5c
    58e2:	b123      	cbz	r3, 58ee <Sluza+0xbe>
	{
		sluza_czas--;
    58e4:	3b01      	subs	r3, #1
    58e6:	f8a4 305c 	strh.w	r3, [r4, #92]	; 0x5c
		P_KoniecCyklu(true);
    58ea:	2001      	movs	r0, #1
    58ec:	e011      	b.n	5912 <Sluza+0xe2>
	}
	else
	{
		if (P_SluzaSygnal() == true && sluza_klt && sluza_started == true)
    58ee:	f7ff f96d 	bl	4bcc <P_SluzaSygnal>
    58f2:	2801      	cmp	r0, #1
    58f4:	d109      	bne.n	590a <Sluza+0xda>
    58f6:	f894 305a 	ldrb.w	r3, [r4, #90]	; 0x5a
    58fa:	b133      	cbz	r3, 590a <Sluza+0xda>
    58fc:	f894 3057 	ldrb.w	r3, [r4, #87]	; 0x57
    5900:	2b01      	cmp	r3, #1
    5902:	d102      	bne.n	590a <Sluza+0xda>
			ZaklocenieSet(ERR_SLUZA);
    5904:	3018      	adds	r0, #24
    5906:	f7fd fa23 	bl	2d50 <ZaklocenieSet>

		sluza_started = false;
    590a:	4b1c      	ldr	r3, [pc, #112]	; (597c <Sluza+0x14c>)
    590c:	2000      	movs	r0, #0
    590e:	f883 0057 	strb.w	r0, [r3, #87]	; 0x57
		P_KoniecCyklu(false);
    5912:	f7ff ff7f 	bl	5814 <P_KoniecCyklu>
	}

	//
	// Sluza optyczna
	//
	if (sluza_opt && licznik_opt > 1)
    5916:	4b19      	ldr	r3, [pc, #100]	; (597c <Sluza+0x14c>)
    5918:	f893 3058 	ldrb.w	r3, [r3, #88]	; 0x58
    591c:	b133      	cbz	r3, 592c <Sluza+0xfc>
    591e:	4b18      	ldr	r3, [pc, #96]	; (5980 <Sluza+0x150>)
    5920:	781b      	ldrb	r3, [r3, #0]
    5922:	2b01      	cmp	r3, #1
    5924:	d902      	bls.n	592c <Sluza+0xfc>
	{
		ZaklocenieSet(ERR_SLUZA_OPT_DWA_RAZY);
    5926:	2012      	movs	r0, #18
    5928:	f7fd fa12 	bl	2d50 <ZaklocenieSet>
	}

	if (sluza_opt && P_SluzaSygnal_N() && sluza_opt_czas == 0)
    592c:	4c13      	ldr	r4, [pc, #76]	; (597c <Sluza+0x14c>)
    592e:	f894 3058 	ldrb.w	r3, [r4, #88]	; 0x58
    5932:	b19b      	cbz	r3, 595c <Sluza+0x12c>
    5934:	f7ff f952 	bl	4bdc <P_SluzaSygnal_N>
    5938:	b180      	cbz	r0, 595c <Sluza+0x12c>
    593a:	f8b4 305e 	ldrh.w	r3, [r4, #94]	; 0x5e
    593e:	b96b      	cbnz	r3, 595c <Sluza+0x12c>
	{
		licznik_opt++;
    5940:	4b0f      	ldr	r3, [pc, #60]	; (5980 <Sluza+0x150>)
    5942:	781a      	ldrb	r2, [r3, #0]
    5944:	3201      	adds	r2, #1
    5946:	701a      	strb	r2, [r3, #0]
		sluza_opt_czas = p_sluza / 10;
    5948:	4b0b      	ldr	r3, [pc, #44]	; (5978 <Sluza+0x148>)
    594a:	7c9a      	ldrb	r2, [r3, #18]
    594c:	7cdb      	ldrb	r3, [r3, #19]
    594e:	ea42 2303 	orr.w	r3, r2, r3, lsl #8
    5952:	220a      	movs	r2, #10
    5954:	fbb3 f3f2 	udiv	r3, r3, r2
    5958:	f8a4 305e 	strh.w	r3, [r4, #94]	; 0x5e
	}

	if (sluza_opt && P_SluzaSygnal())
    595c:	4c07      	ldr	r4, [pc, #28]	; (597c <Sluza+0x14c>)
    595e:	f894 3058 	ldrb.w	r3, [r4, #88]	; 0x58
    5962:	b143      	cbz	r3, 5976 <Sluza+0x146>
    5964:	f7ff f932 	bl	4bcc <P_SluzaSygnal>
    5968:	b128      	cbz	r0, 5976 <Sluza+0x146>
	{
		if (sluza_opt_czas > 0)
    596a:	f8b4 305e 	ldrh.w	r3, [r4, #94]	; 0x5e
    596e:	b113      	cbz	r3, 5976 <Sluza+0x146>
			sluza_opt_czas--;
    5970:	3b01      	subs	r3, #1
    5972:	f8a4 305e 	strh.w	r3, [r4, #94]	; 0x5e
    5976:	bd38      	pop	{r3, r4, r5, pc}
    5978:	20000ee4 	.word	0x20000ee4
    597c:	2000012c 	.word	0x2000012c
    5980:	2000011e 	.word	0x2000011e

00005984 <P_Blad>:
	else
		ResetHard_Q07();
}

void P_Blad(bool in)
{
    5984:	4b05      	ldr	r3, [pc, #20]	; (599c <P_Blad+0x18>)
	if (in == true)
    5986:	2801      	cmp	r0, #1
		image.q[0] |= 0x80;
    5988:	f893 2040 	ldrb.w	r2, [r3, #64]	; 0x40
    598c:	bf0c      	ite	eq
    598e:	f042 0280 	orreq.w	r2, r2, #128	; 0x80
	else
		image.q[0] &= ~0x80;
    5992:	f002 027f 	andne.w	r2, r2, #127	; 0x7f
    5996:	f883 2040 	strb.w	r2, [r3, #64]	; 0x40
    599a:	4770      	bx	lr
    599c:	20000ee4 	.word	0x20000ee4

000059a0 <P_Gotowosc>:
	else
		ResetHard_Q10();
}

void P_Gotowosc(bool in)
{
    59a0:	4b05      	ldr	r3, [pc, #20]	; (59b8 <P_Gotowosc+0x18>)
	if (in == true)
    59a2:	2801      	cmp	r0, #1
		image.q[1] |= 0x01;
    59a4:	f893 2041 	ldrb.w	r2, [r3, #65]	; 0x41
    59a8:	bf0c      	ite	eq
    59aa:	f042 0201 	orreq.w	r2, r2, #1
	else
		image.q[1] &= ~0x01;
    59ae:	f002 02fe 	andne.w	r2, r2, #254	; 0xfe
    59b2:	f883 2041 	strb.w	r2, [r3, #65]	; 0x41
    59b6:	4770      	bx	lr
    59b8:	20000ee4 	.word	0x20000ee4

000059bc <P_LicznikOsiagniety>:
	else
		ResetHard_Q11();
}

void P_LicznikOsiagniety(bool in)
{
    59bc:	4b05      	ldr	r3, [pc, #20]	; (59d4 <P_LicznikOsiagniety+0x18>)
	if (in == true)
    59be:	2801      	cmp	r0, #1
		image.q[1] |= 0x02;
    59c0:	f893 2041 	ldrb.w	r2, [r3, #65]	; 0x41
    59c4:	bf0c      	ite	eq
    59c6:	f042 0202 	orreq.w	r2, r2, #2
	else
		image.q[1] &= ~0x02;
    59ca:	f002 02fd 	andne.w	r2, r2, #253	; 0xfd
    59ce:	f883 2041 	strb.w	r2, [r3, #65]	; 0x41
    59d2:	4770      	bx	lr
    59d4:	20000ee4 	.word	0x20000ee4

000059d8 <P_LicznikStepperaOstrzezenie>:
	else
		ResetHard_Q12();
}

void P_LicznikStepperaOstrzezenie(bool in)
{
    59d8:	4b05      	ldr	r3, [pc, #20]	; (59f0 <P_LicznikStepperaOstrzezenie+0x18>)
	if (in == true)
    59da:	2801      	cmp	r0, #1
		image.q[1] |= 0x04;
    59dc:	f893 2041 	ldrb.w	r2, [r3, #65]	; 0x41
    59e0:	bf0c      	ite	eq
    59e2:	f042 0204 	orreq.w	r2, r2, #4
	else
		image.q[1] &= ~0x04;
    59e6:	f002 02fb 	andne.w	r2, r2, #251	; 0xfb
    59ea:	f883 2041 	strb.w	r2, [r3, #65]	; 0x41
    59ee:	4770      	bx	lr
    59f0:	20000ee4 	.word	0x20000ee4

000059f4 <P_LicznikStepperaMax>:
	else
		ResetHard_Q13();
}

void P_LicznikStepperaMax(bool in)
{
    59f4:	4b05      	ldr	r3, [pc, #20]	; (5a0c <P_LicznikStepperaMax+0x18>)
	if (in == true)
    59f6:	2801      	cmp	r0, #1
		image.q[1] |= 0x08;
    59f8:	f893 2041 	ldrb.w	r2, [r3, #65]	; 0x41
    59fc:	bf0c      	ite	eq
    59fe:	f042 0208 	orreq.w	r2, r2, #8
	else
		image.q[1] &= ~0x08;
    5a02:	f002 02f7 	andne.w	r2, r2, #247	; 0xf7
    5a06:	f883 2041 	strb.w	r2, [r3, #65]	; 0x41
    5a0a:	4770      	bx	lr
    5a0c:	20000ee4 	.word	0x20000ee4

00005a10 <P_SterowaniePrzyrzadem_Hard>:
}

void P_SterowaniePrzyrzadem_Hard(void)
{
    5a10:	b508      	push	{r3, lr}
	if (ZezwolenieSterowaniaPrzyrzadem() && ((prog.Wyjscia & 0x01) > 0))
    5a12:	f7fe fc3b 	bl	428c <ZezwolenieSterowaniaPrzyrzadem>
    5a16:	b138      	cbz	r0, 5a28 <P_SterowaniePrzyrzadem_Hard+0x18>
    5a18:	4b42      	ldr	r3, [pc, #264]	; (5b24 <P_SterowaniePrzyrzadem_Hard+0x114>)
    5a1a:	8f1b      	ldrh	r3, [r3, #56]	; 0x38
    5a1c:	f013 0f01 	tst.w	r3, #1
    5a20:	d002      	beq.n	5a28 <P_SterowaniePrzyrzadem_Hard+0x18>
	{
		SetHard_Q14();
    5a22:	f7fb fe93 	bl	174c <SetHard_Q14>
		image.q[1] &= ~0x08;
}

void P_SterowaniePrzyrzadem_Hard(void)
{
	if (ZezwolenieSterowaniaPrzyrzadem() && ((prog.Wyjscia & 0x01) > 0))
    5a26:	e001      	b.n	5a2c <P_SterowaniePrzyrzadem_Hard+0x1c>
	{
		SetHard_Q14();
	}
	else
		ResetHard_Q14();
    5a28:	f7fb fe88 	bl	173c <ResetHard_Q14>

	if (ZezwolenieSterowaniaPrzyrzadem() && ((prog.Wyjscia & 0x02) > 0))
    5a2c:	f7fe fc2e 	bl	428c <ZezwolenieSterowaniaPrzyrzadem>
    5a30:	b138      	cbz	r0, 5a42 <P_SterowaniePrzyrzadem_Hard+0x32>
    5a32:	4b3c      	ldr	r3, [pc, #240]	; (5b24 <P_SterowaniePrzyrzadem_Hard+0x114>)
    5a34:	8f1b      	ldrh	r3, [r3, #56]	; 0x38
    5a36:	f013 0f02 	tst.w	r3, #2
    5a3a:	d002      	beq.n	5a42 <P_SterowaniePrzyrzadem_Hard+0x32>
	{
		SetHard_Q15();
    5a3c:	f7fb fe76 	bl	172c <SetHard_Q15>
		SetHard_Q14();
	}
	else
		ResetHard_Q14();

	if (ZezwolenieSterowaniaPrzyrzadem() && ((prog.Wyjscia & 0x02) > 0))
    5a40:	e001      	b.n	5a46 <P_SterowaniePrzyrzadem_Hard+0x36>
	{
		SetHard_Q15();
	}
	else
		ResetHard_Q15();
    5a42:	f7fb fe6b 	bl	171c <ResetHard_Q15>

	if (ZezwolenieSterowaniaPrzyrzadem() && ((prog.Wyjscia & 0x04) > 0))
    5a46:	f7fe fc21 	bl	428c <ZezwolenieSterowaniaPrzyrzadem>
    5a4a:	b138      	cbz	r0, 5a5c <P_SterowaniePrzyrzadem_Hard+0x4c>
    5a4c:	4b35      	ldr	r3, [pc, #212]	; (5b24 <P_SterowaniePrzyrzadem_Hard+0x114>)
    5a4e:	8f1b      	ldrh	r3, [r3, #56]	; 0x38
    5a50:	f013 0f04 	tst.w	r3, #4
    5a54:	d002      	beq.n	5a5c <P_SterowaniePrzyrzadem_Hard+0x4c>
	{
		SetHard_Q16();
    5a56:	f7fb fe59 	bl	170c <SetHard_Q16>
		SetHard_Q15();
	}
	else
		ResetHard_Q15();

	if (ZezwolenieSterowaniaPrzyrzadem() && ((prog.Wyjscia & 0x04) > 0))
    5a5a:	e001      	b.n	5a60 <P_SterowaniePrzyrzadem_Hard+0x50>
	{
		SetHard_Q16();
	}
	else
		ResetHard_Q16();
    5a5c:	f7fb fe4e 	bl	16fc <ResetHard_Q16>

	if (ZezwolenieSterowaniaPrzyrzadem() && ((prog.Wyjscia & 0x08) > 0))
    5a60:	f7fe fc14 	bl	428c <ZezwolenieSterowaniaPrzyrzadem>
    5a64:	b138      	cbz	r0, 5a76 <P_SterowaniePrzyrzadem_Hard+0x66>
    5a66:	4b2f      	ldr	r3, [pc, #188]	; (5b24 <P_SterowaniePrzyrzadem_Hard+0x114>)
    5a68:	8f1b      	ldrh	r3, [r3, #56]	; 0x38
    5a6a:	f013 0f08 	tst.w	r3, #8
    5a6e:	d002      	beq.n	5a76 <P_SterowaniePrzyrzadem_Hard+0x66>
	{
		SetHard_Q17();
    5a70:	f7fb fe3c 	bl	16ec <SetHard_Q17>
		SetHard_Q16();
	}
	else
		ResetHard_Q16();

	if (ZezwolenieSterowaniaPrzyrzadem() && ((prog.Wyjscia & 0x08) > 0))
    5a74:	e001      	b.n	5a7a <P_SterowaniePrzyrzadem_Hard+0x6a>
	{
		SetHard_Q17();
	}
	else
		ResetHard_Q17();
    5a76:	f7fb fe31 	bl	16dc <ResetHard_Q17>

	if (ZezwolenieSterowaniaPrzyrzadem() && ((prog.Wyjscia & 0x10) > 0))
    5a7a:	f7fe fc07 	bl	428c <ZezwolenieSterowaniaPrzyrzadem>
    5a7e:	b150      	cbz	r0, 5a96 <P_SterowaniePrzyrzadem_Hard+0x86>
    5a80:	4b28      	ldr	r3, [pc, #160]	; (5b24 <P_SterowaniePrzyrzadem_Hard+0x114>)
    5a82:	8f1b      	ldrh	r3, [r3, #56]	; 0x38
    5a84:	f013 0f10 	tst.w	r3, #16
    5a88:	d005      	beq.n	5a96 <P_SterowaniePrzyrzadem_Hard+0x86>
	{
		image.q[2] |= 0x01;
    5a8a:	4b27      	ldr	r3, [pc, #156]	; (5b28 <P_SterowaniePrzyrzadem_Hard+0x118>)
    5a8c:	f893 2042 	ldrb.w	r2, [r3, #66]	; 0x42
    5a90:	f042 0201 	orr.w	r2, r2, #1
    5a94:	e004      	b.n	5aa0 <P_SterowaniePrzyrzadem_Hard+0x90>
	}
	else
		image.q[2] &= ~0x01;
    5a96:	4b24      	ldr	r3, [pc, #144]	; (5b28 <P_SterowaniePrzyrzadem_Hard+0x118>)
    5a98:	f893 2042 	ldrb.w	r2, [r3, #66]	; 0x42
    5a9c:	f002 02fe 	and.w	r2, r2, #254	; 0xfe
    5aa0:	f883 2042 	strb.w	r2, [r3, #66]	; 0x42

	if (ZezwolenieSterowaniaPrzyrzadem() && ((prog.Wyjscia & 0x20) > 0))
    5aa4:	f7fe fbf2 	bl	428c <ZezwolenieSterowaniaPrzyrzadem>
    5aa8:	b150      	cbz	r0, 5ac0 <P_SterowaniePrzyrzadem_Hard+0xb0>
    5aaa:	4b1e      	ldr	r3, [pc, #120]	; (5b24 <P_SterowaniePrzyrzadem_Hard+0x114>)
    5aac:	8f1b      	ldrh	r3, [r3, #56]	; 0x38
    5aae:	f013 0f20 	tst.w	r3, #32
    5ab2:	d005      	beq.n	5ac0 <P_SterowaniePrzyrzadem_Hard+0xb0>
	{
		image.q[2] |= 0x02;
    5ab4:	4b1c      	ldr	r3, [pc, #112]	; (5b28 <P_SterowaniePrzyrzadem_Hard+0x118>)
    5ab6:	f893 2042 	ldrb.w	r2, [r3, #66]	; 0x42
    5aba:	f042 0202 	orr.w	r2, r2, #2
    5abe:	e004      	b.n	5aca <P_SterowaniePrzyrzadem_Hard+0xba>
	}
	else
		image.q[2] &= ~0x02;
    5ac0:	4b19      	ldr	r3, [pc, #100]	; (5b28 <P_SterowaniePrzyrzadem_Hard+0x118>)
    5ac2:	f893 2042 	ldrb.w	r2, [r3, #66]	; 0x42
    5ac6:	f002 02fd 	and.w	r2, r2, #253	; 0xfd
    5aca:	f883 2042 	strb.w	r2, [r3, #66]	; 0x42

	if (ZezwolenieSterowaniaPrzyrzadem() && ((prog.Wyjscia & 0x40) > 0))
    5ace:	f7fe fbdd 	bl	428c <ZezwolenieSterowaniaPrzyrzadem>
    5ad2:	b150      	cbz	r0, 5aea <P_SterowaniePrzyrzadem_Hard+0xda>
    5ad4:	4b13      	ldr	r3, [pc, #76]	; (5b24 <P_SterowaniePrzyrzadem_Hard+0x114>)
    5ad6:	8f1b      	ldrh	r3, [r3, #56]	; 0x38
    5ad8:	f013 0f40 	tst.w	r3, #64	; 0x40
    5adc:	d005      	beq.n	5aea <P_SterowaniePrzyrzadem_Hard+0xda>
	{
		image.q[2] |= 0x04;
    5ade:	4b12      	ldr	r3, [pc, #72]	; (5b28 <P_SterowaniePrzyrzadem_Hard+0x118>)
    5ae0:	f893 2042 	ldrb.w	r2, [r3, #66]	; 0x42
    5ae4:	f042 0204 	orr.w	r2, r2, #4
    5ae8:	e004      	b.n	5af4 <P_SterowaniePrzyrzadem_Hard+0xe4>
	}
	else
		image.q[2] &= ~0x04;
    5aea:	4b0f      	ldr	r3, [pc, #60]	; (5b28 <P_SterowaniePrzyrzadem_Hard+0x118>)
    5aec:	f893 2042 	ldrb.w	r2, [r3, #66]	; 0x42
    5af0:	f002 02fb 	and.w	r2, r2, #251	; 0xfb
    5af4:	f883 2042 	strb.w	r2, [r3, #66]	; 0x42

	if (ZezwolenieSterowaniaPrzyrzadem() && ((prog.Wyjscia & 0x80) > 0))
    5af8:	f7fe fbc8 	bl	428c <ZezwolenieSterowaniaPrzyrzadem>
    5afc:	b150      	cbz	r0, 5b14 <P_SterowaniePrzyrzadem_Hard+0x104>
    5afe:	4b09      	ldr	r3, [pc, #36]	; (5b24 <P_SterowaniePrzyrzadem_Hard+0x114>)
    5b00:	8f1b      	ldrh	r3, [r3, #56]	; 0x38
    5b02:	f013 0f80 	tst.w	r3, #128	; 0x80
    5b06:	d005      	beq.n	5b14 <P_SterowaniePrzyrzadem_Hard+0x104>
	{
		image.q[2] |= 0x08;
    5b08:	4b07      	ldr	r3, [pc, #28]	; (5b28 <P_SterowaniePrzyrzadem_Hard+0x118>)
    5b0a:	f893 2042 	ldrb.w	r2, [r3, #66]	; 0x42
    5b0e:	f042 0208 	orr.w	r2, r2, #8
    5b12:	e004      	b.n	5b1e <P_SterowaniePrzyrzadem_Hard+0x10e>
	}
	else
		image.q[2] &= ~0x08;
    5b14:	4b04      	ldr	r3, [pc, #16]	; (5b28 <P_SterowaniePrzyrzadem_Hard+0x118>)
    5b16:	f893 2042 	ldrb.w	r2, [r3, #66]	; 0x42
    5b1a:	f002 02f7 	and.w	r2, r2, #247	; 0xf7
    5b1e:	f883 2042 	strb.w	r2, [r3, #66]	; 0x42
    5b22:	bd08      	pop	{r3, pc}
    5b24:	20001b04 	.word	0x20001b04
    5b28:	20000ee4 	.word	0x20000ee4

00005b2c <P_LicznikStepperaMax_Hard>:
		image.q[1] &= ~0x04;
}

void P_LicznikStepperaMax_Hard(bool in)
{
	if (in == true)
    5b2c:	2801      	cmp	r0, #1
    5b2e:	d101      	bne.n	5b34 <P_LicznikStepperaMax_Hard+0x8>
		SetHard_Q13();
    5b30:	f7fb be1c 	b.w	176c <SetHard_Q13>
	else
		ResetHard_Q13();
    5b34:	f7fb be12 	b.w	175c <ResetHard_Q13>

00005b38 <P_LicznikStepperaOstrzezenie_Hard>:
		image.q[1] &= ~0x02;
}

void P_LicznikStepperaOstrzezenie_Hard(bool in)
{
	if (in == true)
    5b38:	2801      	cmp	r0, #1
    5b3a:	d101      	bne.n	5b40 <P_LicznikStepperaOstrzezenie_Hard+0x8>
		SetHard_Q12();
    5b3c:	f7fb be26 	b.w	178c <SetHard_Q12>
	else
		ResetHard_Q12();
    5b40:	f7fb be1c 	b.w	177c <ResetHard_Q12>

00005b44 <P_LicznikOsiagniety_Hard>:
		image.q[1] &= ~0x01;
}

void P_LicznikOsiagniety_Hard(bool in)
{
	if (in == true)
    5b44:	2801      	cmp	r0, #1
    5b46:	d101      	bne.n	5b4c <P_LicznikOsiagniety_Hard+0x8>
		SetHard_Q11();
    5b48:	f7fb be30 	b.w	17ac <SetHard_Q11>
	else
		ResetHard_Q11();
    5b4c:	f7fb be26 	b.w	179c <ResetHard_Q11>

00005b50 <P_Gotowosc_Hard>:
		image.q[0] &= ~0x80;
}

void P_Gotowosc_Hard(bool in)
{
	if (in == true)
    5b50:	2801      	cmp	r0, #1
    5b52:	d101      	bne.n	5b58 <P_Gotowosc_Hard+0x8>
		SetHard_Q10();
    5b54:	f7fb be3a 	b.w	17cc <SetHard_Q10>
	else
		ResetHard_Q10();
    5b58:	f7fb be30 	b.w	17bc <ResetHard_Q10>

00005b5c <P_Blad_Hard>:
		image.q[0] &= ~0x40;
}

void P_Blad_Hard(bool in)
{
	if (in == true)
    5b5c:	2801      	cmp	r0, #1
    5b5e:	d101      	bne.n	5b64 <P_Blad_Hard+0x8>
		SetHard_Q07();
    5b60:	f7fb be84 	b.w	186c <SetHard_Q07>
	else
		ResetHard_Q07();
    5b64:	f7fb be7b 	b.w	185e <ResetHard_Q07>

00005b68 <P_KoniecCyklu_Hard>:
		image.q[0] &= ~0x20;
}

void P_KoniecCyklu_Hard(bool in)
{
	if (in == true)
    5b68:	2801      	cmp	r0, #1
    5b6a:	d101      	bne.n	5b70 <P_KoniecCyklu_Hard+0x8>
		SetHard_Q06();
    5b6c:	f7fb be8e 	b.w	188c <SetHard_Q06>
	else
		ResetHard_Q06();
    5b70:	f7fb be84 	b.w	187c <ResetHard_Q06>

00005b74 <P_FK_Hard>:
		return false;
}

void P_FK_Hard(bool in)
{
	if (in == true)
    5b74:	2801      	cmp	r0, #1
    5b76:	d101      	bne.n	5b7c <P_FK_Hard+0x8>
		SetHard_Q05();
    5b78:	f7fb be98 	b.w	18ac <SetHard_Q05>
	else
		ResetHard_Q05();
    5b7c:	f7fb be8e 	b.w	189c <ResetHard_Q05>

00005b80 <P_Get_VZ_Hard>:
	else
		image.q[0] &= ~0x10;
}

bool P_Get_VZ_Hard(void)
{
    5b80:	b508      	push	{r3, lr}
	if (GetHard_Q04() > 0)
    5b82:	f7fb fc31 	bl	13e8 <GetHard_Q04>
		return true;
	else
		return false;
}
    5b86:	3800      	subs	r0, #0
    5b88:	bf18      	it	ne
    5b8a:	2001      	movne	r0, #1
    5b8c:	bd08      	pop	{r3, pc}

00005b8e <P_VZ_Hard>:
		image.q[0] &= ~0x08;
}

void P_VZ_Hard(bool in)
{
	if (in == true)
    5b8e:	2801      	cmp	r0, #1
    5b90:	d101      	bne.n	5b96 <P_VZ_Hard+0x8>
		SetHard_Q04();
    5b92:	f7fb be9b 	b.w	18cc <SetHard_Q04>
	else
		ResetHard_Q04();
    5b96:	f7fb be91 	b.w	18bc <ResetHard_Q04>

00005b9a <P_ZadanieWyblokowania_Hard>:
		return false;
}

void P_ZadanieWyblokowania_Hard(bool in)
{
	if (in == true)
    5b9a:	2801      	cmp	r0, #1
    5b9c:	d101      	bne.n	5ba2 <P_ZadanieWyblokowania_Hard+0x8>
		SetHard_Q03();
    5b9e:	f7fb bea5 	b.w	18ec <SetHard_Q03>
	else
		ResetHard_Q03();
    5ba2:	f7fb be9b 	b.w	18dc <ResetHard_Q03>

00005ba6 <P_CylindryIda>:
	else
		image.q[2] &= ~0x40;
}

bool P_CylindryIda(void)
{
    5ba6:	b508      	push	{r3, lr}
	if ((GetHard_Q01() > 0) || (GetHard_Q02() > 0) || ((image.q[2] & 0x10) > 0)
    5ba8:	f7fb fc42 	bl	1430 <GetHard_Q01>
    5bac:	b998      	cbnz	r0, 5bd6 <P_CylindryIda+0x30>
    5bae:	f7fb fc33 	bl	1418 <GetHard_Q02>
    5bb2:	b980      	cbnz	r0, 5bd6 <P_CylindryIda+0x30>
    5bb4:	4b09      	ldr	r3, [pc, #36]	; (5bdc <P_CylindryIda+0x36>)
    5bb6:	f893 2042 	ldrb.w	r2, [r3, #66]	; 0x42
    5bba:	f012 0f10 	tst.w	r2, #16
    5bbe:	d10a      	bne.n	5bd6 <P_CylindryIda+0x30>
			|| ((image.q[2] & 0x20) > 0) || ((image.q[2] & 0x40) > 0))
    5bc0:	f893 2042 	ldrb.w	r2, [r3, #66]	; 0x42
		image.q[2] &= ~0x40;
}

bool P_CylindryIda(void)
{
	if ((GetHard_Q01() > 0) || (GetHard_Q02() > 0) || ((image.q[2] & 0x10) > 0)
    5bc4:	f012 0f20 	tst.w	r2, #32
    5bc8:	d105      	bne.n	5bd6 <P_CylindryIda+0x30>
			|| ((image.q[2] & 0x20) > 0) || ((image.q[2] & 0x40) > 0))
    5bca:	f893 0042 	ldrb.w	r0, [r3, #66]	; 0x42
    5bce:	0980      	lsrs	r0, r0, #6
    5bd0:	f000 0001 	and.w	r0, r0, #1
    5bd4:	bd08      	pop	{r3, pc}
    5bd6:	2001      	movs	r0, #1
		return true;
	else
		return false;
}
    5bd8:	bd08      	pop	{r3, pc}
    5bda:	bf00      	nop
    5bdc:	20000ee4 	.word	0x20000ee4

00005be0 <Wyblokowanie>:

//*****************************************************************************
// Obsuga wyblokowania
//*****************************************************************************
void Wyblokowanie(void)
{
    5be0:	b510      	push	{r4, lr}
	//
	// Sygna VZ
	//
	if (P_ZPradem() && p_stanprocesu > ETPROC_ZGRZEWANIE_DOCISK_WSTEPNY
    5be2:	f7fe fd5b 	bl	469c <P_ZPradem>
    5be6:	b190      	cbz	r0, 5c0e <Wyblokowanie+0x2e>
    5be8:	4b19      	ldr	r3, [pc, #100]	; (5c50 <Wyblokowanie+0x70>)
    5bea:	f893 202e 	ldrb.w	r2, [r3, #46]	; 0x2e
    5bee:	f893 102f 	ldrb.w	r1, [r3, #47]	; 0x2f
    5bf2:	ea42 2201 	orr.w	r2, r2, r1, lsl #8
    5bf6:	2a09      	cmp	r2, #9
    5bf8:	d909      	bls.n	5c0e <Wyblokowanie+0x2e>
			&& p_stanprocesu < ETPROC_ZGRZEWANIE_KONIEC)
    5bfa:	f893 202e 	ldrb.w	r2, [r3, #46]	; 0x2e
    5bfe:	f893 302f 	ldrb.w	r3, [r3, #47]	; 0x2f
    5c02:	ea42 2303 	orr.w	r3, r2, r3, lsl #8
void Wyblokowanie(void)
{
	//
	// Sygna VZ
	//
	if (P_ZPradem() && p_stanprocesu > ETPROC_ZGRZEWANIE_DOCISK_WSTEPNY
    5c06:	2b10      	cmp	r3, #16
    5c08:	d801      	bhi.n	5c0e <Wyblokowanie+0x2e>
			&& p_stanprocesu < ETPROC_ZGRZEWANIE_KONIEC)
		P_VZ(true);
    5c0a:	2001      	movs	r0, #1
    5c0c:	e000      	b.n	5c10 <Wyblokowanie+0x30>
	else
		P_VZ(false);
    5c0e:	2000      	movs	r0, #0
    5c10:	f7ff f8be 	bl	4d90 <P_VZ>

	//
	// Sygna dania do wyblokowania
	//
	if ((par[p_aktualny_program].Konfig & KONFIG_WYBLOKOWANIE_GORA) > 0)
    5c14:	4b0e      	ldr	r3, [pc, #56]	; (5c50 <Wyblokowanie+0x70>)
    5c16:	213c      	movs	r1, #60	; 0x3c
    5c18:	f893 2020 	ldrb.w	r2, [r3, #32]
    5c1c:	f893 3021 	ldrb.w	r3, [r3, #33]	; 0x21
    5c20:	ea42 2303 	orr.w	r3, r2, r3, lsl #8
    5c24:	4a0b      	ldr	r2, [pc, #44]	; (5c54 <Wyblokowanie+0x74>)
    5c26:	fb01 2303 	mla	r3, r1, r3, r2
    5c2a:	8f5b      	ldrh	r3, [r3, #58]	; 0x3a
    5c2c:	f013 0f08 	tst.w	r3, #8
    5c30:	d102      	bne.n	5c38 <Wyblokowanie+0x58>
		else
			P_ZadanieWyblokowania(false);
	}
	else
	{
		if ((P_CylindryIda() && P_Start()) || P_Get_VZ())
    5c32:	f7ff ffb8 	bl	5ba6 <P_CylindryIda>
    5c36:	b110      	cbz	r0, 5c3e <Wyblokowanie+0x5e>
    5c38:	f7fe fb1e 	bl	4278 <P_Start>
    5c3c:	b910      	cbnz	r0, 5c44 <Wyblokowanie+0x64>
    5c3e:	f7ff f8b5 	bl	4dac <P_Get_VZ>
    5c42:	b100      	cbz	r0, 5c46 <Wyblokowanie+0x66>
			P_ZadanieWyblokowania(true);
    5c44:	2001      	movs	r0, #1
		else
			P_ZadanieWyblokowania(false);
	}
}
    5c46:	e8bd 4010 	ldmia.w	sp!, {r4, lr}
	else
	{
		if ((P_CylindryIda() && P_Start()) || P_Get_VZ())
			P_ZadanieWyblokowania(true);
		else
			P_ZadanieWyblokowania(false);
    5c4a:	f7ff b893 	b.w	4d74 <P_ZadanieWyblokowania>
    5c4e:	bf00      	nop
    5c50:	20000ee4 	.word	0x20000ee4
    5c54:	20001b40 	.word	0x20001b40

00005c58 <P_CylindryStart_Hard>:
	else
		image.q[0] &= ~0x01;
}

void P_CylindryStart_Hard(bool in)
{
    5c58:	b510      	push	{r4, lr}
	if (in && ((prog.NumerCylindra & 0x01) > 0))
    5c5a:	4604      	mov	r4, r0
    5c5c:	b138      	cbz	r0, 5c6e <P_CylindryStart_Hard+0x16>
    5c5e:	4b29      	ldr	r3, [pc, #164]	; (5d04 <P_CylindryStart_Hard+0xac>)
    5c60:	7c9b      	ldrb	r3, [r3, #18]
    5c62:	f013 0f01 	tst.w	r3, #1
    5c66:	d002      	beq.n	5c6e <P_CylindryStart_Hard+0x16>
		SetHard_Q01();
    5c68:	f7fb fe60 	bl	192c <SetHard_Q01>
    5c6c:	e002      	b.n	5c74 <P_CylindryStart_Hard+0x1c>
	else
		ResetHard_Q01();
    5c6e:	f7fb fe55 	bl	191c <ResetHard_Q01>

	if (in && ((prog.NumerCylindra & 0x02) > 0))
    5c72:	b13c      	cbz	r4, 5c84 <P_CylindryStart_Hard+0x2c>
    5c74:	4b23      	ldr	r3, [pc, #140]	; (5d04 <P_CylindryStart_Hard+0xac>)
    5c76:	7c9b      	ldrb	r3, [r3, #18]
    5c78:	f013 0f02 	tst.w	r3, #2
    5c7c:	d002      	beq.n	5c84 <P_CylindryStart_Hard+0x2c>
		SetHard_Q02();
    5c7e:	f7fb fe45 	bl	190c <SetHard_Q02>
    5c82:	e002      	b.n	5c8a <P_CylindryStart_Hard+0x32>
	else
		ResetHard_Q02();
    5c84:	f7fb fe3a 	bl	18fc <ResetHard_Q02>

	if (in && ((prog.NumerCylindra & 0x04) > 0))
    5c88:	b164      	cbz	r4, 5ca4 <P_CylindryStart_Hard+0x4c>
    5c8a:	4b1e      	ldr	r3, [pc, #120]	; (5d04 <P_CylindryStart_Hard+0xac>)
    5c8c:	7c9b      	ldrb	r3, [r3, #18]
    5c8e:	f013 0f04 	tst.w	r3, #4
    5c92:	d007      	beq.n	5ca4 <P_CylindryStart_Hard+0x4c>
		image.q[2] |= 0x10;
    5c94:	4b1c      	ldr	r3, [pc, #112]	; (5d08 <P_CylindryStart_Hard+0xb0>)
    5c96:	f893 2042 	ldrb.w	r2, [r3, #66]	; 0x42
    5c9a:	f042 0210 	orr.w	r2, r2, #16
    5c9e:	f883 2042 	strb.w	r2, [r3, #66]	; 0x42
    5ca2:	e007      	b.n	5cb4 <P_CylindryStart_Hard+0x5c>
	else
		image.q[2] &= ~0x10;
    5ca4:	4b18      	ldr	r3, [pc, #96]	; (5d08 <P_CylindryStart_Hard+0xb0>)
    5ca6:	f893 2042 	ldrb.w	r2, [r3, #66]	; 0x42
    5caa:	f002 02ef 	and.w	r2, r2, #239	; 0xef
    5cae:	f883 2042 	strb.w	r2, [r3, #66]	; 0x42

	if (in && ((prog.NumerCylindra & 0x08) > 0))
    5cb2:	b164      	cbz	r4, 5cce <P_CylindryStart_Hard+0x76>
    5cb4:	4b13      	ldr	r3, [pc, #76]	; (5d04 <P_CylindryStart_Hard+0xac>)
    5cb6:	7c9b      	ldrb	r3, [r3, #18]
    5cb8:	f013 0f08 	tst.w	r3, #8
    5cbc:	d007      	beq.n	5cce <P_CylindryStart_Hard+0x76>
		image.q[2] |= 0x20;
    5cbe:	4b12      	ldr	r3, [pc, #72]	; (5d08 <P_CylindryStart_Hard+0xb0>)
    5cc0:	f893 2042 	ldrb.w	r2, [r3, #66]	; 0x42
    5cc4:	f042 0220 	orr.w	r2, r2, #32
    5cc8:	f883 2042 	strb.w	r2, [r3, #66]	; 0x42
    5ccc:	e007      	b.n	5cde <P_CylindryStart_Hard+0x86>
	else
		image.q[2] &= ~0x20;
    5cce:	4b0e      	ldr	r3, [pc, #56]	; (5d08 <P_CylindryStart_Hard+0xb0>)
    5cd0:	f893 2042 	ldrb.w	r2, [r3, #66]	; 0x42
    5cd4:	f002 02df 	and.w	r2, r2, #223	; 0xdf
    5cd8:	f883 2042 	strb.w	r2, [r3, #66]	; 0x42

	if (in && ((prog.NumerCylindra & 0x10) > 0))
    5cdc:	b154      	cbz	r4, 5cf4 <P_CylindryStart_Hard+0x9c>
    5cde:	4b09      	ldr	r3, [pc, #36]	; (5d04 <P_CylindryStart_Hard+0xac>)
    5ce0:	7c9b      	ldrb	r3, [r3, #18]
    5ce2:	f013 0f10 	tst.w	r3, #16
    5ce6:	d005      	beq.n	5cf4 <P_CylindryStart_Hard+0x9c>
		image.q[2] |= 0x40;
    5ce8:	4b07      	ldr	r3, [pc, #28]	; (5d08 <P_CylindryStart_Hard+0xb0>)
    5cea:	f893 2042 	ldrb.w	r2, [r3, #66]	; 0x42
    5cee:	f042 0240 	orr.w	r2, r2, #64	; 0x40
    5cf2:	e004      	b.n	5cfe <P_CylindryStart_Hard+0xa6>
	else
		image.q[2] &= ~0x40;
    5cf4:	4b04      	ldr	r3, [pc, #16]	; (5d08 <P_CylindryStart_Hard+0xb0>)
    5cf6:	f893 2042 	ldrb.w	r2, [r3, #66]	; 0x42
    5cfa:	f002 02bf 	and.w	r2, r2, #191	; 0xbf
    5cfe:	f883 2042 	strb.w	r2, [r3, #66]	; 0x42
    5d02:	bd10      	pop	{r4, pc}
    5d04:	20001b04 	.word	0x20001b04
    5d08:	20000ee4 	.word	0x20000ee4

00005d0c <P_Impuls_Hard>:
		return false;
}

void P_Impuls_Hard(bool in)
{
	if (in == true)
    5d0c:	2801      	cmp	r0, #1
    5d0e:	d101      	bne.n	5d14 <P_Impuls_Hard+0x8>
		SetHard_Q00();
    5d10:	f7fb be1c 	b.w	194c <SetHard_Q00>
	else
		ResetHard_Q00();
    5d14:	f7fb be12 	b.w	193c <ResetHard_Q00>

00005d18 <Gotowosc>:
	// Sprawdzenie kodowania
	// Sprawdzenie czy si nie zmienilo
	// Tylko przy przeczonym kluczyku
	//
	//if (P_ZezwolenieProgramowania() && (kod_podlaczony != kod_aktywny))
	if (kod_podlaczony != kod_aktywny)
    5d18:	4b7e      	ldr	r3, [pc, #504]	; (5f14 <Gotowosc+0x1fc>)

//*****************************************************************************
// Warunki gotowosci maszyny
//*****************************************************************************
void Gotowosc(void)
{
    5d1a:	b570      	push	{r4, r5, r6, lr}
	// Sprawdzenie kodowania
	// Sprawdzenie czy si nie zmienilo
	// Tylko przy przeczonym kluczyku
	//
	//if (P_ZezwolenieProgramowania() && (kod_podlaczony != kod_aktywny))
	if (kod_podlaczony != kod_aktywny)
    5d1c:	f8b3 1054 	ldrh.w	r1, [r3, #84]	; 0x54
    5d20:	f8b3 2052 	ldrh.w	r2, [r3, #82]	; 0x52
    5d24:	4291      	cmp	r1, r2
    5d26:	d001      	beq.n	5d2c <Gotowosc+0x14>
		zmiana_kodu = true;
    5d28:	2201      	movs	r2, #1
    5d2a:	e000      	b.n	5d2e <Gotowosc+0x16>
	else if (kod_podlaczony == kod_aktywny)
		zmiana_kodu = false;
    5d2c:	2200      	movs	r2, #0
    5d2e:	f883 2060 	strb.w	r2, [r3, #96]	; 0x60

	//
	// Aktywacja OK, jezeli jest rozkaz z APTerminal i otrzymano ostatni program
	//
	if (aktywacja_programyzaladowane == true && aktywacja_apterminal == true
    5d32:	4b79      	ldr	r3, [pc, #484]	; (5f18 <Gotowosc+0x200>)
    5d34:	781b      	ldrb	r3, [r3, #0]
    5d36:	2b01      	cmp	r3, #1
    5d38:	d107      	bne.n	5d4a <Gotowosc+0x32>
    5d3a:	4b76      	ldr	r3, [pc, #472]	; (5f14 <Gotowosc+0x1fc>)
    5d3c:	f893 2050 	ldrb.w	r2, [r3, #80]	; 0x50
    5d40:	2a01      	cmp	r2, #1
    5d42:	d102      	bne.n	5d4a <Gotowosc+0x32>
    5d44:	f893 1060 	ldrb.w	r1, [r3, #96]	; 0x60
    5d48:	b109      	cbz	r1, 5d4e <Gotowosc+0x36>
			&& zmiana_kodu == false)
		aktywacja_ok = true;
	else
		aktywacja_ok = false;
    5d4a:	4b72      	ldr	r3, [pc, #456]	; (5f14 <Gotowosc+0x1fc>)
    5d4c:	2200      	movs	r2, #0
    5d4e:	f883 2061 	strb.w	r2, [r3, #97]	; 0x61

	//
	// Liczba programw musi wiksza od zera i mniejsza od 16
	//
	if (p_liczba_programow == 0 || p_liczba_programow > 16)
    5d52:	4b72      	ldr	r3, [pc, #456]	; (5f1c <Gotowosc+0x204>)
    5d54:	7d1a      	ldrb	r2, [r3, #20]
    5d56:	7d59      	ldrb	r1, [r3, #21]
    5d58:	ea52 2101 	orrs.w	r1, r2, r1, lsl #8
    5d5c:	d005      	beq.n	5d6a <Gotowosc+0x52>
    5d5e:	7d1a      	ldrb	r2, [r3, #20]
    5d60:	7d5b      	ldrb	r3, [r3, #21]
    5d62:	ea42 2303 	orr.w	r3, r2, r3, lsl #8
    5d66:	2b10      	cmp	r3, #16
    5d68:	d906      	bls.n	5d78 <Gotowosc+0x60>
		p_liczba_programow = 1;
    5d6a:	4b6c      	ldr	r3, [pc, #432]	; (5f1c <Gotowosc+0x204>)
    5d6c:	7d1a      	ldrb	r2, [r3, #20]
    5d6e:	2201      	movs	r2, #1
    5d70:	751a      	strb	r2, [r3, #20]
    5d72:	7d5a      	ldrb	r2, [r3, #21]
    5d74:	2200      	movs	r2, #0
    5d76:	755a      	strb	r2, [r3, #21]

	//
	// Sprawdzenie czy jest synchro
	// Jak nie ma to trzeba zasymulowac (time_x) ale blad bedzie nadal
	//
	if (time_index > 220)
    5d78:	4a69      	ldr	r2, [pc, #420]	; (5f20 <Gotowosc+0x208>)
    5d7a:	8813      	ldrh	r3, [r2, #0]
    5d7c:	2bdc      	cmp	r3, #220	; 0xdc
    5d7e:	d931      	bls.n	5de4 <Gotowosc+0xcc>
	{
		image.sm[SM_LICZNIK_PRZERWAN_SYNC]++;
    5d80:	4b66      	ldr	r3, [pc, #408]	; (5f1c <Gotowosc+0x204>)
    5d82:	2400      	movs	r4, #0
    5d84:	f893 1032 	ldrb.w	r1, [r3, #50]	; 0x32
    5d88:	f893 0033 	ldrb.w	r0, [r3, #51]	; 0x33
    5d8c:	f893 c032 	ldrb.w	ip, [r3, #50]	; 0x32
    5d90:	ea41 2100 	orr.w	r1, r1, r0, lsl #8
    5d94:	3101      	adds	r1, #1
    5d96:	b289      	uxth	r1, r1
    5d98:	f001 00ff 	and.w	r0, r1, #255	; 0xff
    5d9c:	f883 0032 	strb.w	r0, [r3, #50]	; 0x32
    5da0:	0a09      	lsrs	r1, r1, #8
    5da2:	f893 0033 	ldrb.w	r0, [r3, #51]	; 0x33
    5da6:	f883 1033 	strb.w	r1, [r3, #51]	; 0x33
		image.sm[SM_INDEX] = time_index;
    5daa:	8811      	ldrh	r1, [r2, #0]

		synchro_jest = false;
    5dac:	4d59      	ldr	r5, [pc, #356]	; (5f14 <Gotowosc+0x1fc>)
	// Jak nie ma to trzeba zasymulowac (time_x) ale blad bedzie nadal
	//
	if (time_index > 220)
	{
		image.sm[SM_LICZNIK_PRZERWAN_SYNC]++;
		image.sm[SM_INDEX] = time_index;
    5dae:	b289      	uxth	r1, r1
    5db0:	f001 00ff 	and.w	r0, r1, #255	; 0xff
    5db4:	f893 c034 	ldrb.w	ip, [r3, #52]	; 0x34
    5db8:	0a09      	lsrs	r1, r1, #8
    5dba:	f883 0034 	strb.w	r0, [r3, #52]	; 0x34
    5dbe:	f893 0035 	ldrb.w	r0, [r3, #53]	; 0x35
    5dc2:	f883 1035 	strb.w	r1, [r3, #53]	; 0x35

		synchro_jest = false;
		time_index = 0;
		time_0 = false;
		time_1 = false;
		P_Impuls_Hard(false);
    5dc6:	4620      	mov	r0, r4
	{
		image.sm[SM_LICZNIK_PRZERWAN_SYNC]++;
		image.sm[SM_INDEX] = time_index;

		synchro_jest = false;
		time_index = 0;
    5dc8:	8014      	strh	r4, [r2, #0]
	if (time_index > 220)
	{
		image.sm[SM_LICZNIK_PRZERWAN_SYNC]++;
		image.sm[SM_INDEX] = time_index;

		synchro_jest = false;
    5dca:	f885 4062 	strb.w	r4, [r5, #98]	; 0x62
		time_index = 0;
		time_0 = false;
    5dce:	f885 4063 	strb.w	r4, [r5, #99]	; 0x63
		time_1 = false;
    5dd2:	f885 4064 	strb.w	r4, [r5, #100]	; 0x64
		P_Impuls_Hard(false);
    5dd6:	f7ff ff99 	bl	5d0c <P_Impuls_Hard>
		P_Impuls(false);
    5dda:	4620      	mov	r0, r4
    5ddc:	f7fe ff4e 	bl	4c7c <P_Impuls>
		impuls = 0;
    5de0:	f885 4065 	strb.w	r4, [r5, #101]	; 0x65
	//	image.q[2] &= ~(0x80);

	//
	// Warunek na ustwienie wyjcia gotowci maszyny
	//
	if (err0 == 0 && ((err1 & 0x0fff) == 0) && synchro_jest
    5de4:	4b4d      	ldr	r3, [pc, #308]	; (5f1c <Gotowosc+0x204>)
    5de6:	f893 203c 	ldrb.w	r2, [r3, #60]	; 0x3c
    5dea:	f893 103d 	ldrb.w	r1, [r3, #61]	; 0x3d
    5dee:	ea52 2101 	orrs.w	r1, r2, r1, lsl #8
    5df2:	d134      	bne.n	5e5e <Gotowosc+0x146>
    5df4:	f893 203e 	ldrb.w	r2, [r3, #62]	; 0x3e
    5df8:	f893 103f 	ldrb.w	r1, [r3, #63]	; 0x3f
    5dfc:	ea42 2201 	orr.w	r2, r2, r1, lsl #8
    5e00:	0512      	lsls	r2, r2, #20
    5e02:	0d12      	lsrs	r2, r2, #20
    5e04:	2a00      	cmp	r2, #0
    5e06:	d12a      	bne.n	5e5e <Gotowosc+0x146>
    5e08:	4a42      	ldr	r2, [pc, #264]	; (5f14 <Gotowosc+0x1fc>)
    5e0a:	f892 2062 	ldrb.w	r2, [r2, #98]	; 0x62
    5e0e:	b332      	cbz	r2, 5e5e <Gotowosc+0x146>
    5e10:	4a41      	ldr	r2, [pc, #260]	; (5f18 <Gotowosc+0x200>)
    5e12:	7812      	ldrb	r2, [r2, #0]
    5e14:	b31a      	cbz	r2, 5e5e <Gotowosc+0x146>
			&& aktywacja_programyzaladowane && ((p_licznik_steppera_akt
    5e16:	7b1a      	ldrb	r2, [r3, #12]
    5e18:	7b59      	ldrb	r1, [r3, #13]
    5e1a:	ea42 2101 	orr.w	r1, r2, r1, lsl #8
			< p_licznik_steppera_max) || (p_licznik_steppera_max == 0))
    5e1e:	7c1a      	ldrb	r2, [r3, #16]
    5e20:	7c58      	ldrb	r0, [r3, #17]
    5e22:	ea42 2200 	orr.w	r2, r2, r0, lsl #8
	//	image.q[2] &= ~(0x80);

	//
	// Warunek na ustwienie wyjcia gotowci maszyny
	//
	if (err0 == 0 && ((err1 & 0x0fff) == 0) && synchro_jest
    5e26:	4291      	cmp	r1, r2
    5e28:	d304      	bcc.n	5e34 <Gotowosc+0x11c>
			&& aktywacja_programyzaladowane && ((p_licznik_steppera_akt
			< p_licznik_steppera_max) || (p_licznik_steppera_max == 0))
    5e2a:	7c1a      	ldrb	r2, [r3, #16]
    5e2c:	7c5b      	ldrb	r3, [r3, #17]
	//	image.q[2] &= ~(0x80);

	//
	// Warunek na ustwienie wyjcia gotowci maszyny
	//
	if (err0 == 0 && ((err1 & 0x0fff) == 0) && synchro_jest
    5e2e:	ea52 2303 	orrs.w	r3, r2, r3, lsl #8
    5e32:	d114      	bne.n	5e5e <Gotowosc+0x146>
			&& aktywacja_programyzaladowane && ((p_licznik_steppera_akt
			< p_licznik_steppera_max) || (p_licznik_steppera_max == 0))
			&& (p_licznik < p_licznik_max || p_licznik_max == 0))
    5e34:	4b39      	ldr	r3, [pc, #228]	; (5f1c <Gotowosc+0x204>)
    5e36:	7a1a      	ldrb	r2, [r3, #8]
    5e38:	7a59      	ldrb	r1, [r3, #9]
    5e3a:	ea42 2101 	orr.w	r1, r2, r1, lsl #8
    5e3e:	7a9a      	ldrb	r2, [r3, #10]
    5e40:	7ad8      	ldrb	r0, [r3, #11]
    5e42:	ea42 2200 	orr.w	r2, r2, r0, lsl #8
	//	image.q[2] &= ~(0x80);

	//
	// Warunek na ustwienie wyjcia gotowci maszyny
	//
	if (err0 == 0 && ((err1 & 0x0fff) == 0) && synchro_jest
    5e46:	4291      	cmp	r1, r2
    5e48:	d304      	bcc.n	5e54 <Gotowosc+0x13c>
			&& aktywacja_programyzaladowane && ((p_licznik_steppera_akt
			< p_licznik_steppera_max) || (p_licznik_steppera_max == 0))
			&& (p_licznik < p_licznik_max || p_licznik_max == 0))
    5e4a:	7a9a      	ldrb	r2, [r3, #10]
    5e4c:	7adb      	ldrb	r3, [r3, #11]
	//	image.q[2] &= ~(0x80);

	//
	// Warunek na ustwienie wyjcia gotowci maszyny
	//
	if (err0 == 0 && ((err1 & 0x0fff) == 0) && synchro_jest
    5e4e:	ea52 2303 	orrs.w	r3, r2, r3, lsl #8
    5e52:	d104      	bne.n	5e5e <Gotowosc+0x146>
			&& aktywacja_programyzaladowane && ((p_licznik_steppera_akt
			< p_licznik_steppera_max) || (p_licznik_steppera_max == 0))
			&& (p_licznik < p_licznik_max || p_licznik_max == 0))
	{
		P_Gotowosc(true);
    5e54:	2001      	movs	r0, #1
    5e56:	f7ff fda3 	bl	59a0 <P_Gotowosc>
		P_Gotowosc_Hard(true);
    5e5a:	2001      	movs	r0, #1
    5e5c:	e003      	b.n	5e66 <Gotowosc+0x14e>
	}
	else
	{
		P_Gotowosc(false);
    5e5e:	2000      	movs	r0, #0
    5e60:	f7ff fd9e 	bl	59a0 <P_Gotowosc>
		P_Gotowosc_Hard(false);
    5e64:	2000      	movs	r0, #0
    5e66:	f7ff fe73 	bl	5b50 <P_Gotowosc_Hard>
	}

	//
	// Obsluga licznika stepper (wymiana elektrod)
	//
	if (P_KasujLicznikStepper() == true)
    5e6a:	f7fe fe4b 	bl	4b04 <P_KasujLicznikStepper>
    5e6e:	2801      	cmp	r0, #1
    5e70:	d105      	bne.n	5e7e <Gotowosc+0x166>
		p_licznik_steppera_akt = 0;
    5e72:	4b2a      	ldr	r3, [pc, #168]	; (5f1c <Gotowosc+0x204>)
    5e74:	7b1a      	ldrb	r2, [r3, #12]
    5e76:	2200      	movs	r2, #0
    5e78:	731a      	strb	r2, [r3, #12]
    5e7a:	7b59      	ldrb	r1, [r3, #13]
    5e7c:	735a      	strb	r2, [r3, #13]

	if (p_licznik_steppera_ost > 0 && p_licznik_steppera_akt
    5e7e:	4b27      	ldr	r3, [pc, #156]	; (5f1c <Gotowosc+0x204>)
    5e80:	7b9a      	ldrb	r2, [r3, #14]
    5e82:	7bd9      	ldrb	r1, [r3, #15]
    5e84:	ea52 2101 	orrs.w	r1, r2, r1, lsl #8
    5e88:	d00b      	beq.n	5ea2 <Gotowosc+0x18a>
    5e8a:	7b1a      	ldrb	r2, [r3, #12]
    5e8c:	7b59      	ldrb	r1, [r3, #13]
    5e8e:	ea42 2201 	orr.w	r2, r2, r1, lsl #8
			>= p_licznik_steppera_ost)
    5e92:	7b99      	ldrb	r1, [r3, #14]
    5e94:	7bdb      	ldrb	r3, [r3, #15]
    5e96:	ea41 2303 	orr.w	r3, r1, r3, lsl #8
	// Obsluga licznika stepper (wymiana elektrod)
	//
	if (P_KasujLicznikStepper() == true)
		p_licznik_steppera_akt = 0;

	if (p_licznik_steppera_ost > 0 && p_licznik_steppera_akt
    5e9a:	429a      	cmp	r2, r3
    5e9c:	d301      	bcc.n	5ea2 <Gotowosc+0x18a>
			>= p_licznik_steppera_ost)
		P_LicznikStepperaOstrzezenie(true);
    5e9e:	2001      	movs	r0, #1
    5ea0:	e000      	b.n	5ea4 <Gotowosc+0x18c>
	else
		P_LicznikStepperaOstrzezenie(false);
    5ea2:	2000      	movs	r0, #0
    5ea4:	f7ff fd98 	bl	59d8 <P_LicznikStepperaOstrzezenie>

	if (p_licznik_steppera_max > 0 && p_licznik_steppera_akt
    5ea8:	4b1c      	ldr	r3, [pc, #112]	; (5f1c <Gotowosc+0x204>)
    5eaa:	7c1a      	ldrb	r2, [r3, #16]
    5eac:	7c59      	ldrb	r1, [r3, #17]
    5eae:	ea52 2101 	orrs.w	r1, r2, r1, lsl #8
    5eb2:	d00b      	beq.n	5ecc <Gotowosc+0x1b4>
    5eb4:	7b1a      	ldrb	r2, [r3, #12]
    5eb6:	7b59      	ldrb	r1, [r3, #13]
    5eb8:	ea42 2201 	orr.w	r2, r2, r1, lsl #8
			>= p_licznik_steppera_max)
    5ebc:	7c19      	ldrb	r1, [r3, #16]
    5ebe:	7c5b      	ldrb	r3, [r3, #17]
    5ec0:	ea41 2303 	orr.w	r3, r1, r3, lsl #8
			>= p_licznik_steppera_ost)
		P_LicznikStepperaOstrzezenie(true);
	else
		P_LicznikStepperaOstrzezenie(false);

	if (p_licznik_steppera_max > 0 && p_licznik_steppera_akt
    5ec4:	429a      	cmp	r2, r3
    5ec6:	d301      	bcc.n	5ecc <Gotowosc+0x1b4>
			>= p_licznik_steppera_max)
		P_LicznikStepperaMax(true);
    5ec8:	2001      	movs	r0, #1
    5eca:	e000      	b.n	5ece <Gotowosc+0x1b6>
	else
		P_LicznikStepperaMax(false);
    5ecc:	2000      	movs	r0, #0
    5ece:	f7ff fd91 	bl	59f4 <P_LicznikStepperaMax>

	//
	// Obsluga licznika uytkownika
	//
	if (P_KasujLicznik() == true)
    5ed2:	f7fe fdff 	bl	4ad4 <P_KasujLicznik>
    5ed6:	2801      	cmp	r0, #1
    5ed8:	d105      	bne.n	5ee6 <Gotowosc+0x1ce>
		p_licznik = 0;
    5eda:	4b10      	ldr	r3, [pc, #64]	; (5f1c <Gotowosc+0x204>)
    5edc:	7a1a      	ldrb	r2, [r3, #8]
    5ede:	2200      	movs	r2, #0
    5ee0:	721a      	strb	r2, [r3, #8]
    5ee2:	7a59      	ldrb	r1, [r3, #9]
    5ee4:	725a      	strb	r2, [r3, #9]

	if (p_licznik_max > 0 && p_licznik >= p_licznik_max)
    5ee6:	4b0d      	ldr	r3, [pc, #52]	; (5f1c <Gotowosc+0x204>)
    5ee8:	7a9a      	ldrb	r2, [r3, #10]
    5eea:	7ad9      	ldrb	r1, [r3, #11]
    5eec:	ea52 2101 	orrs.w	r1, r2, r1, lsl #8
    5ef0:	d00b      	beq.n	5f0a <Gotowosc+0x1f2>
    5ef2:	7a1a      	ldrb	r2, [r3, #8]
    5ef4:	7a59      	ldrb	r1, [r3, #9]
    5ef6:	ea42 2201 	orr.w	r2, r2, r1, lsl #8
    5efa:	7a99      	ldrb	r1, [r3, #10]
    5efc:	7adb      	ldrb	r3, [r3, #11]
    5efe:	ea41 2303 	orr.w	r3, r1, r3, lsl #8
    5f02:	429a      	cmp	r2, r3
    5f04:	d301      	bcc.n	5f0a <Gotowosc+0x1f2>
		P_LicznikOsiagniety(true);
    5f06:	2001      	movs	r0, #1
    5f08:	e000      	b.n	5f0c <Gotowosc+0x1f4>
	else
		P_LicznikOsiagniety(false);
    5f0a:	2000      	movs	r0, #0

}
    5f0c:	e8bd 4070 	ldmia.w	sp!, {r4, r5, r6, lr}
		p_licznik = 0;

	if (p_licznik_max > 0 && p_licznik >= p_licznik_max)
		P_LicznikOsiagniety(true);
	else
		P_LicznikOsiagniety(false);
    5f10:	e554      	b.n	59bc <P_LicznikOsiagniety>
    5f12:	bf00      	nop
    5f14:	2000012c 	.word	0x2000012c
    5f18:	20000126 	.word	0x20000126
    5f1c:	20000ee4 	.word	0x20000ee4
    5f20:	20002518 	.word	0x20002518

00005f24 <Zaklocenia>:
	if (nr < 32 && nr >= 16)
		err1 &= ~(1 << (nr - 16));
}

void Zaklocenia(void)
{
    5f24:	b510      	push	{r4, lr}
	//
	// Brak synchronizacji z sieci zasilajc
	//
	if (synchro_jest == false)
    5f26:	4b88      	ldr	r3, [pc, #544]	; (6148 <Zaklocenia+0x224>)
    5f28:	f893 0062 	ldrb.w	r0, [r3, #98]	; 0x62
    5f2c:	b908      	cbnz	r0, 5f32 <Zaklocenia+0xe>
		ZaklocenieSet(ERR_SYNCHRO);
    5f2e:	f7fc ff0f 	bl	2d50 <ZaklocenieSet>
	if (synchro_jest == true && reset_bledu)
    5f32:	4b85      	ldr	r3, [pc, #532]	; (6148 <Zaklocenia+0x224>)
    5f34:	f893 2062 	ldrb.w	r2, [r3, #98]	; 0x62
    5f38:	2a01      	cmp	r2, #1
    5f3a:	d106      	bne.n	5f4a <Zaklocenia+0x26>
    5f3c:	f893 3047 	ldrb.w	r3, [r3, #71]	; 0x47
    5f40:	2b01      	cmp	r3, #1
    5f42:	d102      	bne.n	5f4a <Zaklocenia+0x26>
		ZaklocenieReset(ERR_SYNCHRO);
    5f44:	2000      	movs	r0, #0
    5f46:	f7fc ff39 	bl	2dbc <ZaklocenieReset>

	//
	// Zwarcie na tyrystorze
	//
	if ((image.ain[1] > (GRANICA_ZWARCIE_TYRYSTOROW)) && p_stanprocesu
    5f4a:	4b80      	ldr	r3, [pc, #512]	; (614c <Zaklocenia+0x228>)
    5f4c:	f893 2054 	ldrb.w	r2, [r3, #84]	; 0x54
    5f50:	f893 1055 	ldrb.w	r1, [r3, #85]	; 0x55
    5f54:	ea42 2201 	orr.w	r2, r2, r1, lsl #8
    5f58:	f5b2 7ffa 	cmp.w	r2, #500	; 0x1f4
    5f5c:	d90b      	bls.n	5f76 <Zaklocenia+0x52>
    5f5e:	f893 202e 	ldrb.w	r2, [r3, #46]	; 0x2e
    5f62:	f893 302f 	ldrb.w	r3, [r3, #47]	; 0x2f
    5f66:	ea42 2303 	orr.w	r3, r2, r3, lsl #8
    5f6a:	2b09      	cmp	r3, #9
    5f6c:	d803      	bhi.n	5f76 <Zaklocenia+0x52>
			< ETPROC_ZGRZEWANIE_PODGRZEWANIE)
		licznik_zwarcie++;
    5f6e:	4b78      	ldr	r3, [pc, #480]	; (6150 <Zaklocenia+0x22c>)
    5f70:	881a      	ldrh	r2, [r3, #0]
    5f72:	3201      	adds	r2, #1
    5f74:	e002      	b.n	5f7c <Zaklocenia+0x58>
	else
		licznik_zwarcie = 0;
    5f76:	4b76      	ldr	r3, [pc, #472]	; (6150 <Zaklocenia+0x22c>)
    5f78:	f04f 0200 	mov.w	r2, #0
    5f7c:	801a      	strh	r2, [r3, #0]

	if ((licznik_zwarcie > LICZNIK_ZWARCIE) && (p_stanprocesu
    5f7e:	4b74      	ldr	r3, [pc, #464]	; (6150 <Zaklocenia+0x22c>)
    5f80:	881a      	ldrh	r2, [r3, #0]
    5f82:	f242 7310 	movw	r3, #10000	; 0x2710
    5f86:	429a      	cmp	r2, r3
    5f88:	d90b      	bls.n	5fa2 <Zaklocenia+0x7e>
    5f8a:	4b70      	ldr	r3, [pc, #448]	; (614c <Zaklocenia+0x228>)
    5f8c:	f893 202e 	ldrb.w	r2, [r3, #46]	; 0x2e
    5f90:	f893 302f 	ldrb.w	r3, [r3, #47]	; 0x2f
    5f94:	ea42 2303 	orr.w	r3, r2, r3, lsl #8
    5f98:	2b09      	cmp	r3, #9
    5f9a:	d802      	bhi.n	5fa2 <Zaklocenia+0x7e>
			< ETPROC_ZGRZEWANIE_PODGRZEWANIE))
		ZaklocenieSet(ERR_ZWARCIE_TYR);
    5f9c:	200d      	movs	r0, #13
    5f9e:	f7fc fed7 	bl	2d50 <ZaklocenieSet>

	//
	// Przerwa w obwodzie bezpieczestwa
	//
	if (P_NotAus() == false)
    5fa2:	f7fe fb4d 	bl	4640 <P_NotAus>
    5fa6:	4604      	mov	r4, r0
    5fa8:	b958      	cbnz	r0, 5fc2 <Zaklocenia+0x9e>
	{
		ZaklocenieSet(ERR_NOTAUS);
    5faa:	3001      	adds	r0, #1
    5fac:	f7fc fed0 	bl	2d50 <ZaklocenieSet>
		P_CylindryStart(false);
    5fb0:	4620      	mov	r0, r4
    5fb2:	f7fe fe71 	bl	4c98 <P_CylindryStart>
		P_Impuls_Hard(false);
    5fb6:	4620      	mov	r0, r4
    5fb8:	f7ff fea8 	bl	5d0c <P_Impuls_Hard>
		P_Impuls(false);
    5fbc:	4620      	mov	r0, r4
    5fbe:	f7fe fe5d 	bl	4c7c <P_Impuls>
	}
	if ((P_NotAus() == true) && reset_bledu)
    5fc2:	f7fe fb3d 	bl	4640 <P_NotAus>
    5fc6:	2801      	cmp	r0, #1
    5fc8:	d106      	bne.n	5fd8 <Zaklocenia+0xb4>
    5fca:	4b5f      	ldr	r3, [pc, #380]	; (6148 <Zaklocenia+0x224>)
    5fcc:	f893 3047 	ldrb.w	r3, [r3, #71]	; 0x47
    5fd0:	2b01      	cmp	r3, #1
    5fd2:	d101      	bne.n	5fd8 <Zaklocenia+0xb4>
		ZaklocenieReset(ERR_NOTAUS);
    5fd4:	f7fc fef2 	bl	2dbc <ZaklocenieReset>

	//
	// Brak przepywu wody chodzcej
	//
	if (P_Woda() == false && (p_stanprocesu < ETPROC_ZGRZEWANIE_PODGRZEWANIE))
    5fd8:	f7fe fb3c 	bl	4654 <P_Woda>
    5fdc:	b958      	cbnz	r0, 5ff6 <Zaklocenia+0xd2>
    5fde:	4b5b      	ldr	r3, [pc, #364]	; (614c <Zaklocenia+0x228>)
    5fe0:	f893 202e 	ldrb.w	r2, [r3, #46]	; 0x2e
    5fe4:	f893 302f 	ldrb.w	r3, [r3, #47]	; 0x2f
    5fe8:	ea42 2303 	orr.w	r3, r2, r3, lsl #8
    5fec:	2b09      	cmp	r3, #9
    5fee:	d802      	bhi.n	5ff6 <Zaklocenia+0xd2>
		ZaklocenieSet(ERR_WODA);
    5ff0:	3002      	adds	r0, #2
    5ff2:	f7fc fead 	bl	2d50 <ZaklocenieSet>
	if (P_Woda() == true)// && reset_bledu)
    5ff6:	f7fe fb2d 	bl	4654 <P_Woda>
    5ffa:	2801      	cmp	r0, #1
    5ffc:	d102      	bne.n	6004 <Zaklocenia+0xe0>
		ZaklocenieReset(ERR_WODA);
    5ffe:	3001      	adds	r0, #1
    6000:	f7fc fedc 	bl	2dbc <ZaklocenieReset>

	//
	// Przekroczona temperatura transformatora zgrzewalniczego
	//
	if (P_TempTrafo() == false)
    6004:	f7fe fb30 	bl	4668 <P_TempTrafo>
    6008:	b910      	cbnz	r0, 6010 <Zaklocenia+0xec>
		ZaklocenieSet(ERR_TEMP_TRAFO);
    600a:	3003      	adds	r0, #3
    600c:	f7fc fea0 	bl	2d50 <ZaklocenieSet>
	if (P_TempTrafo() == true && reset_bledu)
    6010:	f7fe fb2a 	bl	4668 <P_TempTrafo>
    6014:	2801      	cmp	r0, #1
    6016:	d107      	bne.n	6028 <Zaklocenia+0x104>
    6018:	4b4b      	ldr	r3, [pc, #300]	; (6148 <Zaklocenia+0x224>)
    601a:	f893 3047 	ldrb.w	r3, [r3, #71]	; 0x47
    601e:	2b01      	cmp	r3, #1
    6020:	d102      	bne.n	6028 <Zaklocenia+0x104>
		ZaklocenieReset(ERR_TEMP_TRAFO);
    6022:	3002      	adds	r0, #2
    6024:	f7fc feca 	bl	2dbc <ZaklocenieReset>

	//
	// Przekroczona temperatura tyrystorw
	//
	if (P_TempTyr() == false)
    6028:	f7fe fb26 	bl	4678 <P_TempTyr>
    602c:	b910      	cbnz	r0, 6034 <Zaklocenia+0x110>
		ZaklocenieSet(ERR_TEMP_TYR);
    602e:	3004      	adds	r0, #4
    6030:	f7fc fe8e 	bl	2d50 <ZaklocenieSet>
	if (P_TempTyr() == true && reset_bledu)
    6034:	f7fe fb20 	bl	4678 <P_TempTyr>
    6038:	2801      	cmp	r0, #1
    603a:	d107      	bne.n	604c <Zaklocenia+0x128>
    603c:	4b42      	ldr	r3, [pc, #264]	; (6148 <Zaklocenia+0x224>)
    603e:	f893 3047 	ldrb.w	r3, [r3, #71]	; 0x47
    6042:	2b01      	cmp	r3, #1
    6044:	d102      	bne.n	604c <Zaklocenia+0x128>
		ZaklocenieReset(ERR_TEMP_TYR);
    6046:	3003      	adds	r0, #3
    6048:	f7fc feb8 	bl	2dbc <ZaklocenieReset>

	//
	// Brak aktywacja przyrzdu
	//

	if (aktywacja_ok == false || zmiana_kodu)
    604c:	4b3e      	ldr	r3, [pc, #248]	; (6148 <Zaklocenia+0x224>)
    604e:	f893 2061 	ldrb.w	r2, [r3, #97]	; 0x61
    6052:	b112      	cbz	r2, 605a <Zaklocenia+0x136>
    6054:	f893 3060 	ldrb.w	r3, [r3, #96]	; 0x60
    6058:	b11b      	cbz	r3, 6062 <Zaklocenia+0x13e>
		ZaklocenieSet(ERR_BRAK_AKTYWACJI);
    605a:	2011      	movs	r0, #17
    605c:	f7fc fe78 	bl	2d50 <ZaklocenieSet>

	//
	// Brak aktywacja przyrzdu
	//

	if (aktywacja_ok == false || zmiana_kodu)
    6060:	e002      	b.n	6068 <Zaklocenia+0x144>
		ZaklocenieSet(ERR_BRAK_AKTYWACJI);
	else
		ZaklocenieReset(ERR_BRAK_AKTYWACJI);
    6062:	2011      	movs	r0, #17
    6064:	f7fc feaa 	bl	2dbc <ZaklocenieReset>

	//
	// Brak zezwolenia z Hydry
	//
	if (P_Hydra() == true && (p_stanprocesu < ETPROC_ZGRZEWANIE_PODGRZEWANIE))
    6068:	f7fe fb0e 	bl	4688 <P_Hydra>
    606c:	2801      	cmp	r0, #1
    606e:	d10b      	bne.n	6088 <Zaklocenia+0x164>
    6070:	4b36      	ldr	r3, [pc, #216]	; (614c <Zaklocenia+0x228>)
    6072:	f893 202e 	ldrb.w	r2, [r3, #46]	; 0x2e
    6076:	f893 302f 	ldrb.w	r3, [r3, #47]	; 0x2f
    607a:	ea42 2303 	orr.w	r3, r2, r3, lsl #8
    607e:	2b09      	cmp	r3, #9
    6080:	d802      	bhi.n	6088 <Zaklocenia+0x164>
		ZaklocenieSet(ERR_HYDRA);
    6082:	3017      	adds	r0, #23
    6084:	f7fc fe64 	bl	2d50 <ZaklocenieSet>
	if (P_Hydra() == false && (reset_bledu || (P_Start() == true)))
    6088:	f7fe fafe 	bl	4688 <P_Hydra>
    608c:	b958      	cbnz	r0, 60a6 <Zaklocenia+0x182>
    608e:	4b2e      	ldr	r3, [pc, #184]	; (6148 <Zaklocenia+0x224>)
    6090:	f893 3047 	ldrb.w	r3, [r3, #71]	; 0x47
    6094:	2b01      	cmp	r3, #1
    6096:	d003      	beq.n	60a0 <Zaklocenia+0x17c>
    6098:	f7fe f8ee 	bl	4278 <P_Start>
    609c:	2801      	cmp	r0, #1
    609e:	d102      	bne.n	60a6 <Zaklocenia+0x182>
		ZaklocenieReset(ERR_HYDRA);
    60a0:	2018      	movs	r0, #24
    60a2:	f7fc fe8b 	bl	2dbc <ZaklocenieReset>

	//
	// Kasowanie pozostalych bledow
	//
	if (reset_bledu)
    60a6:	4b28      	ldr	r3, [pc, #160]	; (6148 <Zaklocenia+0x224>)
    60a8:	f893 4047 	ldrb.w	r4, [r3, #71]	; 0x47
    60ac:	2c01      	cmp	r4, #1
    60ae:	d131      	bne.n	6114 <Zaklocenia+0x1f0>
	{
		ZaklocenieReset(ERR_PROCES_PRZERWANY);
    60b0:	2005      	movs	r0, #5
    60b2:	f7fc fe83 	bl	2dbc <ZaklocenieReset>
		ZaklocenieReset(ERR_PRAD_DUZO);
    60b6:	200a      	movs	r0, #10
    60b8:	f7fc fe80 	bl	2dbc <ZaklocenieReset>
		ZaklocenieReset(ERR_PRAD_MALO);
    60bc:	2009      	movs	r0, #9
    60be:	f7fc fe7d 	bl	2dbc <ZaklocenieReset>
		ZaklocenieReset(ERR_NAP_DUZO);
    60c2:	200c      	movs	r0, #12
    60c4:	f7fc fe7a 	bl	2dbc <ZaklocenieReset>
		ZaklocenieReset(ERR_NAP_MALO);
    60c8:	200b      	movs	r0, #11
    60ca:	f7fc fe77 	bl	2dbc <ZaklocenieReset>
		ZaklocenieReset(ERR_ENERGIA_DUZO);
    60ce:	2008      	movs	r0, #8
    60d0:	f7fc fe74 	bl	2dbc <ZaklocenieReset>
		ZaklocenieReset(ERR_ENERGIA_MALO);
    60d4:	2007      	movs	r0, #7
    60d6:	f7fc fe71 	bl	2dbc <ZaklocenieReset>
		ZaklocenieReset(ERR_SLUZA);
    60da:	2019      	movs	r0, #25
    60dc:	f7fc fe6e 	bl	2dbc <ZaklocenieReset>
		ZaklocenieReset(ERR_SLUZA_OPT_DWA_RAZY);
    60e0:	2012      	movs	r0, #18
    60e2:	f7fc fe6b 	bl	2dbc <ZaklocenieReset>
		ZaklocenieReset(ERR_SLUZA_OPT_ZERO);
    60e6:	201a      	movs	r0, #26
    60e8:	f7fc fe68 	bl	2dbc <ZaklocenieReset>
		ZaklocenieReset(ERR_KONTROLA_CZUJNIKOW);
    60ec:	2006      	movs	r0, #6
    60ee:	f7fc fe65 	bl	2dbc <ZaklocenieReset>
		ZaklocenieReset(ERR_BRAK_PRZEPYWU_PRADU);
    60f2:	200f      	movs	r0, #15
    60f4:	f7fc fe62 	bl	2dbc <ZaklocenieReset>
		ZaklocenieReset(ERR_BRAK_NAP_WTORNEGO);
    60f8:	200e      	movs	r0, #14
    60fa:	f7fc fe5f 	bl	2dbc <ZaklocenieReset>
		ZaklocenieReset(ERR_PRZEKROCZONA_GRANICA_REGULACJI);
    60fe:	2013      	movs	r0, #19
    6100:	f7fc fe5c 	bl	2dbc <ZaklocenieReset>
		ZaklocenieReset(ERR_BRAK_WTOPIENIA);
    6104:	2010      	movs	r0, #16
    6106:	f7fc fe59 	bl	2dbc <ZaklocenieReset>
		ZaklocenieReset(ERR_ZWARCIE_TYR);
    610a:	200d      	movs	r0, #13
    610c:	f7fc fe56 	bl	2dbc <ZaklocenieReset>
		licznik_opt = 1;
    6110:	4b10      	ldr	r3, [pc, #64]	; (6154 <Zaklocenia+0x230>)
    6112:	701c      	strb	r4, [r3, #0]
	}

	if (err0 > 0 || err1 > 0)
    6114:	4b0d      	ldr	r3, [pc, #52]	; (614c <Zaklocenia+0x228>)
    6116:	f893 203c 	ldrb.w	r2, [r3, #60]	; 0x3c
    611a:	f893 103d 	ldrb.w	r1, [r3, #61]	; 0x3d
    611e:	ea52 2101 	orrs.w	r1, r2, r1, lsl #8
    6122:	d106      	bne.n	6132 <Zaklocenia+0x20e>
    6124:	f893 203e 	ldrb.w	r2, [r3, #62]	; 0x3e
    6128:	f893 003f 	ldrb.w	r0, [r3, #63]	; 0x3f
    612c:	ea52 2000 	orrs.w	r0, r2, r0, lsl #8
    6130:	d002      	beq.n	6138 <Zaklocenia+0x214>
		P_Blad(blink_1_Hz);
    6132:	4b05      	ldr	r3, [pc, #20]	; (6148 <Zaklocenia+0x224>)
    6134:	f893 0038 	ldrb.w	r0, [r3, #56]	; 0x38
	else
		P_Blad(false);
    6138:	f7ff fc24 	bl	5984 <P_Blad>

	kasuj_blad = false;
    613c:	4b02      	ldr	r3, [pc, #8]	; (6148 <Zaklocenia+0x224>)
    613e:	2200      	movs	r2, #0
    6140:	f883 2047 	strb.w	r2, [r3, #71]	; 0x47
}
    6144:	bd10      	pop	{r4, pc}
    6146:	bf00      	nop
    6148:	2000012c 	.word	0x2000012c
    614c:	20000ee4 	.word	0x20000ee4
    6150:	20002164 	.word	0x20002164
    6154:	2000011e 	.word	0x2000011e

00006158 <Pomiar3>:
// Naprzemiennie seq 1 i seq 2
// W kazdym seq odczyt pomiarw i 2 analogw, w sumie 4 pomiary
//*****************************************************************************

void Pomiar3(void)
{
    6158:	e92d 45f8 	stmdb	sp!, {r3, r4, r5, r6, r7, r8, sl, lr}
	static bool seq = false;

	if (seq == false)
    615c:	f8df a0ec 	ldr.w	sl, [pc, #236]	; 624c <Pomiar3+0xf4>
    6160:	4c2e      	ldr	r4, [pc, #184]	; (621c <Pomiar3+0xc4>)
    6162:	f89a 3066 	ldrb.w	r3, [sl, #102]	; 0x66
    6166:	f8df 80e8 	ldr.w	r8, [pc, #232]	; 6250 <Pomiar3+0xf8>
    616a:	4f2d      	ldr	r7, [pc, #180]	; (6220 <Pomiar3+0xc8>)
    616c:	4e2d      	ldr	r6, [pc, #180]	; (6224 <Pomiar3+0xcc>)
    616e:	4d2e      	ldr	r5, [pc, #184]	; (6228 <Pomiar3+0xd0>)
    6170:	bb3b      	cbnz	r3, 61c2 <Pomiar3+0x6a>
	{
		ADC_Odczyt2(adc_bufor);
    6172:	4620      	mov	r0, r4
    6174:	f7fb fc4a 	bl	1a0c <ADC_Odczyt2>
		ADC_Start1();
    6178:	f7fb fc70 	bl	1a5c <ADC_Start1>
		seq = true;
    617c:	2301      	movs	r3, #1
		adc0_suma += adc_bufor[0];
    617e:	6822      	ldr	r2, [r4, #0]

	if (seq == false)
	{
		ADC_Odczyt2(adc_bufor);
		ADC_Start1();
		seq = true;
    6180:	f88a 3066 	strb.w	r3, [sl, #102]	; 0x66
		adc0_suma += adc_bufor[0];
    6184:	f8d8 3000 	ldr.w	r3, [r8]
    6188:	18d3      	adds	r3, r2, r3
    618a:	f8c8 3000 	str.w	r3, [r8]
		adc1_suma += adc_bufor[1];
    618e:	6862      	ldr	r2, [r4, #4]
    6190:	683b      	ldr	r3, [r7, #0]
		adc4_suma += adc_bufor[2];
    6192:	68a1      	ldr	r1, [r4, #8]
	{
		ADC_Odczyt2(adc_bufor);
		ADC_Start1();
		seq = true;
		adc0_suma += adc_bufor[0];
		adc1_suma += adc_bufor[1];
    6194:	18d3      	adds	r3, r2, r3
    6196:	603b      	str	r3, [r7, #0]
		adc4_suma += adc_bufor[2];
    6198:	4b24      	ldr	r3, [pc, #144]	; (622c <Pomiar3+0xd4>)
    619a:	681a      	ldr	r2, [r3, #0]
    619c:	188a      	adds	r2, r1, r2
    619e:	601a      	str	r2, [r3, #0]
		adct_suma += adc_bufor[3];
    61a0:	4b23      	ldr	r3, [pc, #140]	; (6230 <Pomiar3+0xd8>)
    61a2:	68e1      	ldr	r1, [r4, #12]
    61a4:	681a      	ldr	r2, [r3, #0]
    61a6:	188a      	adds	r2, r1, r2
    61a8:	601a      	str	r2, [r3, #0]
		adc0_index++;
    61aa:	8833      	ldrh	r3, [r6, #0]
    61ac:	3301      	adds	r3, #1
    61ae:	8033      	strh	r3, [r6, #0]
		adc1_index++;
    61b0:	882b      	ldrh	r3, [r5, #0]
    61b2:	3301      	adds	r3, #1
    61b4:	802b      	strh	r3, [r5, #0]
		adc4_index++;
    61b6:	4b1f      	ldr	r3, [pc, #124]	; (6234 <Pomiar3+0xdc>)
    61b8:	881a      	ldrh	r2, [r3, #0]
    61ba:	3201      	adds	r2, #1
    61bc:	801a      	strh	r2, [r3, #0]
		adct_index++;
    61be:	4b1e      	ldr	r3, [pc, #120]	; (6238 <Pomiar3+0xe0>)
    61c0:	e026      	b.n	6210 <Pomiar3+0xb8>
	}
	else
	{
		ADC_Odczyt1(adc_bufor);
    61c2:	4620      	mov	r0, r4
    61c4:	f7fb fc2a 	bl	1a1c <ADC_Odczyt1>
		ADC_Start2();
    61c8:	f7fb fc42 	bl	1a50 <ADC_Start2>
		seq = false;
    61cc:	2300      	movs	r3, #0
		adc0_suma += adc_bufor[0];
    61ce:	6822      	ldr	r2, [r4, #0]
	}
	else
	{
		ADC_Odczyt1(adc_bufor);
		ADC_Start2();
		seq = false;
    61d0:	f88a 3066 	strb.w	r3, [sl, #102]	; 0x66
		adc0_suma += adc_bufor[0];
    61d4:	f8d8 3000 	ldr.w	r3, [r8]
    61d8:	18d3      	adds	r3, r2, r3
    61da:	f8c8 3000 	str.w	r3, [r8]
		adc1_suma += adc_bufor[1];
    61de:	6862      	ldr	r2, [r4, #4]
    61e0:	683b      	ldr	r3, [r7, #0]
		adc2_suma += adc_bufor[2];
    61e2:	68a1      	ldr	r1, [r4, #8]
	{
		ADC_Odczyt1(adc_bufor);
		ADC_Start2();
		seq = false;
		adc0_suma += adc_bufor[0];
		adc1_suma += adc_bufor[1];
    61e4:	18d3      	adds	r3, r2, r3
    61e6:	603b      	str	r3, [r7, #0]
		adc2_suma += adc_bufor[2];
    61e8:	4b14      	ldr	r3, [pc, #80]	; (623c <Pomiar3+0xe4>)
    61ea:	681a      	ldr	r2, [r3, #0]
    61ec:	188a      	adds	r2, r1, r2
    61ee:	601a      	str	r2, [r3, #0]
		adc3_suma += adc_bufor[3];
    61f0:	4b13      	ldr	r3, [pc, #76]	; (6240 <Pomiar3+0xe8>)
    61f2:	68e1      	ldr	r1, [r4, #12]
    61f4:	681a      	ldr	r2, [r3, #0]
    61f6:	188a      	adds	r2, r1, r2
    61f8:	601a      	str	r2, [r3, #0]
		adc0_index++;
    61fa:	8833      	ldrh	r3, [r6, #0]
    61fc:	3301      	adds	r3, #1
    61fe:	8033      	strh	r3, [r6, #0]
		adc1_index++;
    6200:	882b      	ldrh	r3, [r5, #0]
    6202:	3301      	adds	r3, #1
    6204:	802b      	strh	r3, [r5, #0]
		adc2_index++;
    6206:	4b0f      	ldr	r3, [pc, #60]	; (6244 <Pomiar3+0xec>)
    6208:	881a      	ldrh	r2, [r3, #0]
    620a:	3201      	adds	r2, #1
    620c:	801a      	strh	r2, [r3, #0]
		adc3_index++;
    620e:	4b0e      	ldr	r3, [pc, #56]	; (6248 <Pomiar3+0xf0>)
    6210:	881a      	ldrh	r2, [r3, #0]
    6212:	3201      	adds	r2, #1
    6214:	801a      	strh	r2, [r3, #0]
    6216:	e8bd 85f8 	ldmia.w	sp!, {r3, r4, r5, r6, r7, r8, sl, pc}
    621a:	bf00      	nop
    621c:	20000f64 	.word	0x20000f64
    6220:	20001f10 	.word	0x20001f10
    6224:	2000176c 	.word	0x2000176c
    6228:	2000216e 	.word	0x2000216e
    622c:	2000169c 	.word	0x2000169c
    6230:	20002524 	.word	0x20002524
    6234:	200016a0 	.word	0x200016a0
    6238:	20001f14 	.word	0x20001f14
    623c:	20001f28 	.word	0x20001f28
    6240:	200022d8 	.word	0x200022d8
    6244:	20002690 	.word	0x20002690
    6248:	20002166 	.word	0x20002166
    624c:	2000012c 	.word	0x2000012c
    6250:	20001f20 	.word	0x20001f20

00006254 <ProcesIO>:

//*****************************************************************************
// Odczyt obrazu IO i zapis obrazu wyjsc na hardware
//*****************************************************************************
void ProcesIO(void)
{
    6254:	b510      	push	{r4, lr}
	if (GET_IOTEST)
    6256:	4b14      	ldr	r3, [pc, #80]	; (62a8 <ProcesIO+0x54>)
    6258:	7e1a      	ldrb	r2, [r3, #24]
    625a:	7e59      	ldrb	r1, [r3, #25]
    625c:	f012 0f04 	tst.w	r2, #4
    6260:	d00f      	beq.n	6282 <ProcesIO+0x2e>
	{
		image.q[0] = image.i[0] | image.i[2];
    6262:	f893 204c 	ldrb.w	r2, [r3, #76]	; 0x4c
    6266:	f893 104e 	ldrb.w	r1, [r3, #78]	; 0x4e
    626a:	ea41 0202 	orr.w	r2, r1, r2
    626e:	f883 2040 	strb.w	r2, [r3, #64]	; 0x40
		image.q[1] = image.i[1] | image.i[3];
    6272:	f893 204d 	ldrb.w	r2, [r3, #77]	; 0x4d
    6276:	f893 104f 	ldrb.w	r1, [r3, #79]	; 0x4f
    627a:	ea41 0202 	orr.w	r2, r1, r2
    627e:	f883 2041 	strb.w	r2, [r3, #65]	; 0x41
	 image.q[0] = GetHard_Q0();
	 image.q[1] = GetHard_Q1();
	 }
	 */

	SetHard_Q0(image.q[0]);
    6282:	4c09      	ldr	r4, [pc, #36]	; (62a8 <ProcesIO+0x54>)
    6284:	f894 0040 	ldrb.w	r0, [r4, #64]	; 0x40
    6288:	f7fb fb68 	bl	195c <SetHard_Q0>
	SetHard_Q1(image.q[1]);
    628c:	f894 0041 	ldrb.w	r0, [r4, #65]	; 0x41
    6290:	f7fb faa4 	bl	17dc <SetHard_Q1>

	image.i[0] = GetHard_I0();
    6294:	f7fb f9d0 	bl	1638 <GetHard_I0>
    6298:	f884 004c 	strb.w	r0, [r4, #76]	; 0x4c
	image.i[1] = GetHard_I1();
    629c:	f7fb f952 	bl	1544 <GetHard_I1>
    62a0:	f884 004d 	strb.w	r0, [r4, #77]	; 0x4d
}
    62a4:	bd10      	pop	{r4, pc}
    62a6:	bf00      	nop
    62a8:	20000ee4 	.word	0x20000ee4

000062ac <ProcesInt>:

//*****************************************************************************
// Przerwanie zegara 20kHz
//*****************************************************************************
void ProcesInt(void)
{
    62ac:	b508      	push	{r3, lr}
	//
	// Potwierdzenie przerwania
	//
	TimerIntClear(TIMER0_BASE, TIMER_TIMA_TIMEOUT);
    62ae:	2101      	movs	r1, #1
    62b0:	4894      	ldr	r0, [pc, #592]	; (6504 <ProcesInt+0x258>)
    62b2:	f001 fe39 	bl	7f28 <TimerIntClear>
	//P_Impuls(false);

	//
	// Zmienne procesowe
	//
	tick++;
    62b6:	4b94      	ldr	r3, [pc, #592]	; (6508 <ProcesInt+0x25c>)
    62b8:	681a      	ldr	r2, [r3, #0]
    62ba:	3201      	adds	r2, #1
    62bc:	601a      	str	r2, [r3, #0]
	time_index++;
    62be:	4b93      	ldr	r3, [pc, #588]	; (650c <ProcesInt+0x260>)
    62c0:	881a      	ldrh	r2, [r3, #0]
    62c2:	3201      	adds	r2, #1
    62c4:	b292      	uxth	r2, r2
    62c6:	801a      	strh	r2, [r3, #0]

	//
	// Obsuga wej wyj i obrazu IO
	//
	ProcesIO();
    62c8:	f7ff ffc4 	bl	6254 <ProcesIO>

	if (GET_IOTEST == false)
    62cc:	4b90      	ldr	r3, [pc, #576]	; (6510 <ProcesInt+0x264>)
    62ce:	7e1a      	ldrb	r2, [r3, #24]
    62d0:	7e5b      	ldrb	r3, [r3, #25]
    62d2:	f012 0f04 	tst.w	r2, #4
    62d6:	d109      	bne.n	62ec <ProcesInt+0x40>
	{
		//
		// Badanie zbocza restu bledu
		//
		P_ResetBledu();
    62d8:	f7fe f998 	bl	460c <P_ResetBledu>

		//
		// Sprawdzenie gotowci maszyny i ustawienie bitw zakce
		//
		Zaklocenia();
    62dc:	f7ff fe22 	bl	5f24 <Zaklocenia>
		Gotowosc();
    62e0:	f7ff fd1a 	bl	5d18 <Gotowosc>

		//
		// Pomiary analogw
		//
		Pomiar3();
    62e4:	f7ff ff38 	bl	6158 <Pomiar3>

		//
		// Blink
		//
		Blink();
    62e8:	f7fd ff6c 	bl	41c4 <Blink>
	}

	//
	// Tutaj raz na okres obsuga procesu i pomiary analogowe
	//
	if (time_index >= INDEX_0 && time_0 == false)
    62ec:	4b87      	ldr	r3, [pc, #540]	; (650c <ProcesInt+0x260>)
    62ee:	881b      	ldrh	r3, [r3, #0]
    62f0:	2b31      	cmp	r3, #49	; 0x31
    62f2:	f240 809e 	bls.w	6432 <ProcesInt+0x186>
    62f6:	4a87      	ldr	r2, [pc, #540]	; (6514 <ProcesInt+0x268>)
    62f8:	f892 3063 	ldrb.w	r3, [r2, #99]	; 0x63
    62fc:	2b00      	cmp	r3, #0
    62fe:	f040 8098 	bne.w	6432 <ProcesInt+0x186>
	{
		time_0 = true;
    6302:	3301      	adds	r3, #1
    6304:	f882 3063 	strb.w	r3, [r2, #99]	; 0x63
		//mess2 = us;

		kod_podlaczony = (((image.i[3] & 0xc0) >> 6) + (image.i[4] << 2));
    6308:	4b81      	ldr	r3, [pc, #516]	; (6510 <ProcesInt+0x264>)
    630a:	f893 104f 	ldrb.w	r1, [r3, #79]	; 0x4f
    630e:	f893 0050 	ldrb.w	r0, [r3, #80]	; 0x50
    6312:	0989      	lsrs	r1, r1, #6
    6314:	eb01 0180 	add.w	r1, r1, r0, lsl #2
    6318:	f8a2 1054 	strh.w	r1, [r2, #84]	; 0x54

		if (GET_IOTEST == false)
    631c:	7e1a      	ldrb	r2, [r3, #24]
    631e:	7e59      	ldrb	r1, [r3, #25]
    6320:	f012 0f04 	tst.w	r2, #4
    6324:	d114      	bne.n	6350 <ProcesInt+0xa4>
		{
			// Pomiar dotyczy zawsze poprzedniego okresu i musi by na pocztku, gdy tutaj wyliczane s
			// wartoci do obrazu AIN
			Pomiar_Obliczenia();
    6326:	f7fc ff29 	bl	317c <Pomiar_Obliczenia>

			SterowaniePrzyrzadem();
    632a:	f7fd ffb0 	bl	428e <SterowaniePrzyrzadem>
			Sluza();
    632e:	f7ff fa7f 	bl	5830 <Sluza>
			KontrolaNakretki();
    6332:	f7fd f905 	bl	3540 <KontrolaNakretki>
			Cisnienie();
    6336:	f7fe f8c3 	bl	44c0 <Cisnienie>
			CylinderUGory();
    633a:	f7fe fc05 	bl	4b48 <CylinderUGory>
			Wyblokowanie();
    633e:	f7ff fc4f 	bl	5be0 <Wyblokowanie>
			KontrolaDynamiczna_ZbieranieSygnalow();
    6342:	f7fe fc6f 	bl	4c24 <KontrolaDynamiczna_ZbieranieSygnalow>
			Proces();
    6346:	f7fe fe49 	bl	4fdc <Proces>
			// Wana kolejno - zeby nie przechodzil do nowego programu
			Cykl();
    634a:	f7fd fe99 	bl	4080 <Cykl>
    634e:	e070      	b.n	6432 <ProcesInt+0x186>
		}
		else
		{
			image.ain[0] = (adc0_suma / adc0_index) - adc0_offset;
    6350:	4a71      	ldr	r2, [pc, #452]	; (6518 <ProcesInt+0x26c>)
    6352:	4972      	ldr	r1, [pc, #456]	; (651c <ProcesInt+0x270>)
    6354:	8812      	ldrh	r2, [r2, #0]
    6356:	6809      	ldr	r1, [r1, #0]
    6358:	f893 0052 	ldrb.w	r0, [r3, #82]	; 0x52
    635c:	fbb1 f2f2 	udiv	r2, r1, r2
    6360:	3a05      	subs	r2, #5
    6362:	b292      	uxth	r2, r2
    6364:	f002 01ff 	and.w	r1, r2, #255	; 0xff
    6368:	f883 1052 	strb.w	r1, [r3, #82]	; 0x52
    636c:	0a12      	lsrs	r2, r2, #8
    636e:	f893 1053 	ldrb.w	r1, [r3, #83]	; 0x53
    6372:	f883 2053 	strb.w	r2, [r3, #83]	; 0x53
			image.ain[1] = (adc1_suma / adc1_index) - adc1_offset;
    6376:	496a      	ldr	r1, [pc, #424]	; (6520 <ProcesInt+0x274>)
    6378:	4a6a      	ldr	r2, [pc, #424]	; (6524 <ProcesInt+0x278>)
    637a:	6809      	ldr	r1, [r1, #0]
    637c:	8812      	ldrh	r2, [r2, #0]
    637e:	f893 0054 	ldrb.w	r0, [r3, #84]	; 0x54
    6382:	fbb1 f2f2 	udiv	r2, r1, r2
    6386:	3a05      	subs	r2, #5
    6388:	b292      	uxth	r2, r2
    638a:	f002 01ff 	and.w	r1, r2, #255	; 0xff
    638e:	f883 1054 	strb.w	r1, [r3, #84]	; 0x54
    6392:	0a12      	lsrs	r2, r2, #8
    6394:	f893 1055 	ldrb.w	r1, [r3, #85]	; 0x55
    6398:	f883 2055 	strb.w	r2, [r3, #85]	; 0x55
			image.ain[2] = (adc2_suma / adc2_index) - adc2_offset;
    639c:	4962      	ldr	r1, [pc, #392]	; (6528 <ProcesInt+0x27c>)
    639e:	4a63      	ldr	r2, [pc, #396]	; (652c <ProcesInt+0x280>)
    63a0:	6809      	ldr	r1, [r1, #0]
    63a2:	8812      	ldrh	r2, [r2, #0]
    63a4:	f893 0056 	ldrb.w	r0, [r3, #86]	; 0x56
    63a8:	fbb1 f2f2 	udiv	r2, r1, r2
    63ac:	3a0a      	subs	r2, #10
    63ae:	b292      	uxth	r2, r2
    63b0:	f002 01ff 	and.w	r1, r2, #255	; 0xff
    63b4:	f883 1056 	strb.w	r1, [r3, #86]	; 0x56
    63b8:	0a12      	lsrs	r2, r2, #8
    63ba:	f893 1057 	ldrb.w	r1, [r3, #87]	; 0x57
    63be:	f883 2057 	strb.w	r2, [r3, #87]	; 0x57
			image.ain[3] = (adc3_suma / adc3_index) - adc3_offset;
    63c2:	495b      	ldr	r1, [pc, #364]	; (6530 <ProcesInt+0x284>)
    63c4:	4a5b      	ldr	r2, [pc, #364]	; (6534 <ProcesInt+0x288>)
    63c6:	6809      	ldr	r1, [r1, #0]
    63c8:	8812      	ldrh	r2, [r2, #0]
    63ca:	f893 0058 	ldrb.w	r0, [r3, #88]	; 0x58
    63ce:	fbb1 f2f2 	udiv	r2, r1, r2
    63d2:	3a0a      	subs	r2, #10
    63d4:	b292      	uxth	r2, r2
    63d6:	f002 01ff 	and.w	r1, r2, #255	; 0xff
    63da:	f883 1058 	strb.w	r1, [r3, #88]	; 0x58
    63de:	0a12      	lsrs	r2, r2, #8
    63e0:	f893 1059 	ldrb.w	r1, [r3, #89]	; 0x59
    63e4:	f883 2059 	strb.w	r2, [r3, #89]	; 0x59
			image.ain[4] = (adc4_suma / adc4_index) - adc4_offset;
    63e8:	4953      	ldr	r1, [pc, #332]	; (6538 <ProcesInt+0x28c>)
    63ea:	4a54      	ldr	r2, [pc, #336]	; (653c <ProcesInt+0x290>)
    63ec:	6809      	ldr	r1, [r1, #0]
    63ee:	8812      	ldrh	r2, [r2, #0]
    63f0:	f893 005a 	ldrb.w	r0, [r3, #90]	; 0x5a
    63f4:	fbb1 f2f2 	udiv	r2, r1, r2
    63f8:	3a0a      	subs	r2, #10
    63fa:	b292      	uxth	r2, r2
    63fc:	f002 01ff 	and.w	r1, r2, #255	; 0xff
    6400:	f883 105a 	strb.w	r1, [r3, #90]	; 0x5a
    6404:	0a12      	lsrs	r2, r2, #8
    6406:	f893 105b 	ldrb.w	r1, [r3, #91]	; 0x5b
    640a:	f883 205b 	strb.w	r2, [r3, #91]	; 0x5b
			image.ain[5] = (adct_suma / adct_index) - adct_offset;
    640e:	494c      	ldr	r1, [pc, #304]	; (6540 <ProcesInt+0x294>)
    6410:	4a4c      	ldr	r2, [pc, #304]	; (6544 <ProcesInt+0x298>)
    6412:	6809      	ldr	r1, [r1, #0]
    6414:	8812      	ldrh	r2, [r2, #0]
    6416:	f893 005c 	ldrb.w	r0, [r3, #92]	; 0x5c
    641a:	fbb1 f2f2 	udiv	r2, r1, r2
    641e:	b292      	uxth	r2, r2
    6420:	f002 01ff 	and.w	r1, r2, #255	; 0xff
    6424:	0a12      	lsrs	r2, r2, #8
    6426:	f883 105c 	strb.w	r1, [r3, #92]	; 0x5c
    642a:	f893 105d 	ldrb.w	r1, [r3, #93]	; 0x5d
    642e:	f883 205d 	strb.w	r2, [r3, #93]	; 0x5d
		//
		//P_FK(false);
		//p_test2 = mess2 - us;
	}

	if (p_stanprocesu == ETPROC_ZGRZEWANIE_PODGRZEWANIE)
    6432:	4b37      	ldr	r3, [pc, #220]	; (6510 <ProcesInt+0x264>)
    6434:	f893 202e 	ldrb.w	r2, [r3, #46]	; 0x2e
    6438:	f893 102f 	ldrb.w	r1, [r3, #47]	; 0x2f
    643c:	ea42 2201 	orr.w	r2, r2, r1, lsl #8
    6440:	2a0a      	cmp	r2, #10
    6442:	d101      	bne.n	6448 <ProcesInt+0x19c>
		kat = kat_podgrzewanie;
    6444:	4b40      	ldr	r3, [pc, #256]	; (6548 <ProcesInt+0x29c>)
    6446:	e008      	b.n	645a <ProcesInt+0x1ae>
	else if (p_stanprocesu == ETPROC_ZGRZEWANIE_ZGRZEWANIE)
    6448:	f893 202e 	ldrb.w	r2, [r3, #46]	; 0x2e
    644c:	f893 102f 	ldrb.w	r1, [r3, #47]	; 0x2f
    6450:	ea42 2201 	orr.w	r2, r2, r1, lsl #8
    6454:	2a0c      	cmp	r2, #12
    6456:	d104      	bne.n	6462 <ProcesInt+0x1b6>
		kat = kat_zgrzewanie;
    6458:	4b3c      	ldr	r3, [pc, #240]	; (654c <ProcesInt+0x2a0>)
    645a:	881a      	ldrh	r2, [r3, #0]
    645c:	4b3c      	ldr	r3, [pc, #240]	; (6550 <ProcesInt+0x2a4>)
    645e:	b292      	uxth	r2, r2
    6460:	e00e      	b.n	6480 <ProcesInt+0x1d4>
	else if (p_stanprocesu == ETPROC_ZGRZEWANIE_DOGRZEWANIE)
    6462:	f893 202e 	ldrb.w	r2, [r3, #46]	; 0x2e
    6466:	f893 302f 	ldrb.w	r3, [r3, #47]	; 0x2f
    646a:	ea42 2303 	orr.w	r3, r2, r3, lsl #8
    646e:	2b0f      	cmp	r3, #15
		kat = kat_dogrzewanie;
    6470:	bf08      	it	eq
    6472:	4a38      	ldreq	r2, [pc, #224]	; (6554 <ProcesInt+0x2a8>)
    6474:	4b36      	ldr	r3, [pc, #216]	; (6550 <ProcesInt+0x2a4>)
    6476:	bf0a      	itet	eq
    6478:	8812      	ldrheq	r2, [r2, #0]
	else
		kat = 0xffff;
    647a:	f04f 32ff 	movne.w	r2, #4294967295
	if (p_stanprocesu == ETPROC_ZGRZEWANIE_PODGRZEWANIE)
		kat = kat_podgrzewanie;
	else if (p_stanprocesu == ETPROC_ZGRZEWANIE_ZGRZEWANIE)
		kat = kat_zgrzewanie;
	else if (p_stanprocesu == ETPROC_ZGRZEWANIE_DOGRZEWANIE)
		kat = kat_dogrzewanie;
    647e:	b292      	uxtheq	r2, r2
	else
		kat = 0xffff;
    6480:	801a      	strh	r2, [r3, #0]

	//
	// Zapon tyrystorw
	//
	if (time_1 == false && time_index >= kat && z_pradem && p_gotowa
    6482:	4b24      	ldr	r3, [pc, #144]	; (6514 <ProcesInt+0x268>)
    6484:	f893 2064 	ldrb.w	r2, [r3, #100]	; 0x64
    6488:	bb42      	cbnz	r2, 64dc <ProcesInt+0x230>
    648a:	4a20      	ldr	r2, [pc, #128]	; (650c <ProcesInt+0x260>)
    648c:	4930      	ldr	r1, [pc, #192]	; (6550 <ProcesInt+0x2a4>)
    648e:	8812      	ldrh	r2, [r2, #0]
    6490:	8809      	ldrh	r1, [r1, #0]
    6492:	4291      	cmp	r1, r2
    6494:	d822      	bhi.n	64dc <ProcesInt+0x230>
    6496:	7c1b      	ldrb	r3, [r3, #16]
    6498:	b303      	cbz	r3, 64dc <ProcesInt+0x230>
    649a:	4b1d      	ldr	r3, [pc, #116]	; (6510 <ProcesInt+0x264>)
    649c:	f893 2041 	ldrb.w	r2, [r3, #65]	; 0x41
    64a0:	f012 0f01 	tst.w	r2, #1
    64a4:	d01a      	beq.n	64dc <ProcesInt+0x230>
			&& (p_stanprocesu == ETPROC_ZGRZEWANIE_DOGRZEWANIE || p_stanprocesu
    64a6:	f893 202e 	ldrb.w	r2, [r3, #46]	; 0x2e
    64aa:	f893 102f 	ldrb.w	r1, [r3, #47]	; 0x2f
    64ae:	ea42 2201 	orr.w	r2, r2, r1, lsl #8
		kat = 0xffff;

	//
	// Zapon tyrystorw
	//
	if (time_1 == false && time_index >= kat && z_pradem && p_gotowa
    64b2:	2a0f      	cmp	r2, #15
    64b4:	d00f      	beq.n	64d6 <ProcesInt+0x22a>
			&& (p_stanprocesu == ETPROC_ZGRZEWANIE_DOGRZEWANIE || p_stanprocesu
    64b6:	f893 202e 	ldrb.w	r2, [r3, #46]	; 0x2e
    64ba:	f893 102f 	ldrb.w	r1, [r3, #47]	; 0x2f
    64be:	ea42 2201 	orr.w	r2, r2, r1, lsl #8
		kat = 0xffff;

	//
	// Zapon tyrystorw
	//
	if (time_1 == false && time_index >= kat && z_pradem && p_gotowa
    64c2:	2a0a      	cmp	r2, #10
    64c4:	d007      	beq.n	64d6 <ProcesInt+0x22a>
			&& (p_stanprocesu == ETPROC_ZGRZEWANIE_DOGRZEWANIE || p_stanprocesu
					== ETPROC_ZGRZEWANIE_PODGRZEWANIE || p_stanprocesu
    64c6:	f893 202e 	ldrb.w	r2, [r3, #46]	; 0x2e
    64ca:	f893 302f 	ldrb.w	r3, [r3, #47]	; 0x2f
    64ce:	ea42 2303 	orr.w	r3, r2, r3, lsl #8
		kat = 0xffff;

	//
	// Zapon tyrystorw
	//
	if (time_1 == false && time_index >= kat && z_pradem && p_gotowa
    64d2:	2b0c      	cmp	r3, #12
    64d4:	d102      	bne.n	64dc <ProcesInt+0x230>
			&& (p_stanprocesu == ETPROC_ZGRZEWANIE_DOGRZEWANIE || p_stanprocesu
					== ETPROC_ZGRZEWANIE_PODGRZEWANIE || p_stanprocesu
					== ETPROC_ZGRZEWANIE_ZGRZEWANIE))
	{
		P_Impuls(true);
    64d6:	2001      	movs	r0, #1
    64d8:	f7fe fbd0 	bl	4c7c <P_Impuls>
	}

	// Wylaczenie tyrystorow
	if (time_index >= INDEX_1000 + IMPULS_TIME)
    64dc:	4b0b      	ldr	r3, [pc, #44]	; (650c <ProcesInt+0x260>)
    64de:	881b      	ldrh	r3, [r3, #0]
    64e0:	2bb8      	cmp	r3, #184	; 0xb8
    64e2:	d902      	bls.n	64ea <ProcesInt+0x23e>
	{
		P_Impuls(false);
    64e4:	2000      	movs	r0, #0
    64e6:	f7fe fbc9 	bl	4c7c <P_Impuls>
	}

	//
	// Obsuga RSow
	//
	Uart0_GetBytes();
    64ea:	f7fa fd23 	bl	f34 <Uart0_GetBytes>
	Uart1_GetBytes();
    64ee:	f7fa fcf5 	bl	edc <Uart1_GetBytes>
	Uart2_GetBytes();
    64f2:	f7fa fcc7 	bl	e84 <Uart2_GetBytes>

	// Obsluga rozkazw z Modbusa
	//
	Rozkaz();
    64f6:	f7fe fd01 	bl	4efc <Rozkaz>
	//p_test1 = mess1 - us;

	//
	// Semafor dla ptli gwnej
	//
	semaphore = false;
    64fa:	4b17      	ldr	r3, [pc, #92]	; (6558 <ProcesInt+0x2ac>)
    64fc:	2200      	movs	r2, #0
    64fe:	701a      	strb	r2, [r3, #0]
}
    6500:	bd08      	pop	{r3, pc}
    6502:	bf00      	nop
    6504:	40030000 	.word	0x40030000
    6508:	20002694 	.word	0x20002694
    650c:	20002518 	.word	0x20002518
    6510:	20000ee4 	.word	0x20000ee4
    6514:	2000012c 	.word	0x2000012c
    6518:	2000176c 	.word	0x2000176c
    651c:	20001f20 	.word	0x20001f20
    6520:	20001f10 	.word	0x20001f10
    6524:	2000216e 	.word	0x2000216e
    6528:	20001f28 	.word	0x20001f28
    652c:	20002690 	.word	0x20002690
    6530:	200022d8 	.word	0x200022d8
    6534:	20002166 	.word	0x20002166
    6538:	2000169c 	.word	0x2000169c
    653c:	200016a0 	.word	0x200016a0
    6540:	20002524 	.word	0x20002524
    6544:	20001f14 	.word	0x20001f14
    6548:	200022dc 	.word	0x200022dc
    654c:	20002168 	.word	0x20002168
    6550:	20001698 	.word	0x20001698
    6554:	20001f00 	.word	0x20001f00
    6558:	20000128 	.word	0x20000128

0000655c <SynchroInt>:

//*****************************************************************************
// Przerwanie od wejcia synchronizujcego
//*****************************************************************************
void SynchroInt(void)
{
    655c:	b570      	push	{r4, r5, r6, lr}

	//P_FK(true);

	GPIOPinIntClear(GPIO_PORTD_BASE, GPIO_PIN_0);

	image.sm[SM_LICZNIK_PRZERWAN_SYNC]++;
    655e:	4c2e      	ldr	r4, [pc, #184]	; (6618 <SynchroInt+0xbc>)
	// FK na testy
	//

	//P_FK(true);

	GPIOPinIntClear(GPIO_PORTD_BASE, GPIO_PIN_0);
    6560:	2101      	movs	r1, #1
    6562:	482e      	ldr	r0, [pc, #184]	; (661c <SynchroInt+0xc0>)
    6564:	f000 fcc7 	bl	6ef6 <GPIOPinIntClear>

	image.sm[SM_LICZNIK_PRZERWAN_SYNC]++;
    6568:	f894 3032 	ldrb.w	r3, [r4, #50]	; 0x32
    656c:	f894 2033 	ldrb.w	r2, [r4, #51]	; 0x33
    6570:	f894 1032 	ldrb.w	r1, [r4, #50]	; 0x32
    6574:	ea43 2302 	orr.w	r3, r3, r2, lsl #8
    6578:	3301      	adds	r3, #1
    657a:	b29b      	uxth	r3, r3
    657c:	f003 02ff 	and.w	r2, r3, #255	; 0xff
    6580:	f884 2032 	strb.w	r2, [r4, #50]	; 0x32
    6584:	0a1b      	lsrs	r3, r3, #8
    6586:	f894 2033 	ldrb.w	r2, [r4, #51]	; 0x33
    658a:	f884 3033 	strb.w	r3, [r4, #51]	; 0x33
	image.sm[SM_INDEX] = time_index;
    658e:	4b24      	ldr	r3, [pc, #144]	; (6620 <SynchroInt+0xc4>)

	//P_FK(true);

	GPIOPinIntClear(GPIO_PORTD_BASE, GPIO_PIN_0);

	image.sm[SM_LICZNIK_PRZERWAN_SYNC]++;
    6590:	2600      	movs	r6, #0
	image.sm[SM_INDEX] = time_index;
    6592:	881a      	ldrh	r2, [r3, #0]
	time_index = 0;
	time_0 = false;
    6594:	4d23      	ldr	r5, [pc, #140]	; (6624 <SynchroInt+0xc8>)
	//P_FK(true);

	GPIOPinIntClear(GPIO_PORTD_BASE, GPIO_PIN_0);

	image.sm[SM_LICZNIK_PRZERWAN_SYNC]++;
	image.sm[SM_INDEX] = time_index;
    6596:	b292      	uxth	r2, r2
    6598:	f002 01ff 	and.w	r1, r2, #255	; 0xff
    659c:	f894 0034 	ldrb.w	r0, [r4, #52]	; 0x34
    65a0:	0a12      	lsrs	r2, r2, #8
    65a2:	f884 1034 	strb.w	r1, [r4, #52]	; 0x34
    65a6:	f894 1035 	ldrb.w	r1, [r4, #53]	; 0x35
	synchro_jest = true;

	//
	// Wyczamy zapon tyrystorw - dadatkowo dla bezpieczenstwa
	//
	P_Impuls_Hard(false);
    65aa:	4630      	mov	r0, r6
	//P_FK(true);

	GPIOPinIntClear(GPIO_PORTD_BASE, GPIO_PIN_0);

	image.sm[SM_LICZNIK_PRZERWAN_SYNC]++;
	image.sm[SM_INDEX] = time_index;
    65ac:	f884 2035 	strb.w	r2, [r4, #53]	; 0x35
	time_index = 0;
    65b0:	801e      	strh	r6, [r3, #0]
	time_0 = false;
	time_1 = false;

	synchro_jest = true;
    65b2:	2301      	movs	r3, #1
    65b4:	f885 3062 	strb.w	r3, [r5, #98]	; 0x62
	GPIOPinIntClear(GPIO_PORTD_BASE, GPIO_PIN_0);

	image.sm[SM_LICZNIK_PRZERWAN_SYNC]++;
	image.sm[SM_INDEX] = time_index;
	time_index = 0;
	time_0 = false;
    65b8:	f885 6063 	strb.w	r6, [r5, #99]	; 0x63
	time_1 = false;
    65bc:	f885 6064 	strb.w	r6, [r5, #100]	; 0x64
	synchro_jest = true;

	//
	// Wyczamy zapon tyrystorw - dadatkowo dla bezpieczenstwa
	//
	P_Impuls_Hard(false);
    65c0:	f7ff fba4 	bl	5d0c <P_Impuls_Hard>
	P_Impuls(false);
    65c4:	4630      	mov	r0, r6
    65c6:	f7fe fb59 	bl	4c7c <P_Impuls>

	//
	// Testy sycnhro
	//

	if (image.sm[SM_INDEX] > sync_long)
    65ca:	f894 3034 	ldrb.w	r3, [r4, #52]	; 0x34
    65ce:	f894 2035 	ldrb.w	r2, [r4, #53]	; 0x35
	//
	// Wyczamy zapon tyrystorw - dadatkowo dla bezpieczenstwa
	//
	P_Impuls_Hard(false);
	P_Impuls(false);
	impuls = 0;
    65d2:	f885 6065 	strb.w	r6, [r5, #101]	; 0x65

	//
	// Testy sycnhro
	//

	if (image.sm[SM_INDEX] > sync_long)
    65d6:	ea43 2302 	orr.w	r3, r3, r2, lsl #8
    65da:	f8b5 2068 	ldrh.w	r2, [r5, #104]	; 0x68
    65de:	429a      	cmp	r2, r3
    65e0:	d207      	bcs.n	65f2 <SynchroInt+0x96>
		sync_long = image.sm[SM_INDEX];
    65e2:	f894 3034 	ldrb.w	r3, [r4, #52]	; 0x34
    65e6:	f894 2035 	ldrb.w	r2, [r4, #53]	; 0x35
    65ea:	ea43 2302 	orr.w	r3, r3, r2, lsl #8
    65ee:	f8a5 3068 	strh.w	r3, [r5, #104]	; 0x68

	if (image.sm[SM_INDEX] < sync_short)
    65f2:	4b09      	ldr	r3, [pc, #36]	; (6618 <SynchroInt+0xbc>)
    65f4:	f893 2034 	ldrb.w	r2, [r3, #52]	; 0x34
    65f8:	f893 1035 	ldrb.w	r1, [r3, #53]	; 0x35
    65fc:	ea42 2101 	orr.w	r1, r2, r1, lsl #8
    6600:	4a09      	ldr	r2, [pc, #36]	; (6628 <SynchroInt+0xcc>)
    6602:	8850      	ldrh	r0, [r2, #2]
    6604:	4288      	cmp	r0, r1
    6606:	d906      	bls.n	6616 <SynchroInt+0xba>
		sync_short = image.sm[SM_INDEX];
    6608:	f893 1034 	ldrb.w	r1, [r3, #52]	; 0x34
    660c:	f893 3035 	ldrb.w	r3, [r3, #53]	; 0x35
    6610:	ea41 2303 	orr.w	r3, r1, r3, lsl #8
    6614:	8053      	strh	r3, [r2, #2]
    6616:	bd70      	pop	{r4, r5, r6, pc}
    6618:	20000ee4 	.word	0x20000ee4
    661c:	40007000 	.word	0x40007000
    6620:	20002518 	.word	0x20002518
    6624:	2000012c 	.word	0x2000012c
    6628:	2000011e 	.word	0x2000011e

0000662c <ProcesInit>:

//*****************************************************************************
// Inicjacja przerwa procesowych
//*****************************************************************************
void ProcesInit(void)
{
    662c:	b510      	push	{r4, lr}
	//
	// Inicjacja Timera0
	// Podstawowy Timer do obsugi procesu
	// 2500 - ilo cykli na przerwanie 50.000.000 Hz / 2500 = 20 kHz = 200 przerwa na jeden pokres
	//
	SysCtlPeripheralEnable(SYSCTL_PERIPH_TIMER0);
    662e:	481e      	ldr	r0, [pc, #120]	; (66a8 <ProcesInit+0x7c>)
    6630:	f000 fffc 	bl	762c <SysCtlPeripheralEnable>
	TimerConfigure(TIMER0_BASE, TIMER_CFG_32_BIT_PER);
    6634:	2102      	movs	r1, #2
    6636:	481d      	ldr	r0, [pc, #116]	; (66ac <ProcesInit+0x80>)
    6638:	f001 fbe0 	bl	7dfc <TimerConfigure>
	TimerLoadSet(TIMER0_BASE, TIMER_A, PROCES_INT);
    663c:	f640 12c4 	movw	r2, #2500	; 0x9c4
    6640:	21ff      	movs	r1, #255	; 0xff
    6642:	481a      	ldr	r0, [pc, #104]	; (66ac <ProcesInit+0x80>)
    6644:	f001 fc41 	bl	7eca <TimerLoadSet>
	IntEnable(INT_TIMER0A);
    6648:	2023      	movs	r0, #35	; 0x23
    664a:	f000 fdc9 	bl	71e0 <IntEnable>
	TimerIntEnable(TIMER0_BASE, TIMER_TIMA_TIMEOUT);
    664e:	2101      	movs	r1, #1
    6650:	4816      	ldr	r0, [pc, #88]	; (66ac <ProcesInit+0x80>)
    6652:	f001 fc5b 	bl	7f0c <TimerIntEnable>
	TimerEnable(TIMER0_BASE, TIMER_A);
    6656:	21ff      	movs	r1, #255	; 0xff
    6658:	4814      	ldr	r0, [pc, #80]	; (66ac <ProcesInit+0x80>)
    665a:	f001 fbbd 	bl	7dd8 <TimerEnable>

	//
	// Inicjacja Timera1
	// Timer do obliczania czasw
	//
	SysCtlPeripheralEnable(SYSCTL_PERIPH_TIMER1);
    665e:	4814      	ldr	r0, [pc, #80]	; (66b0 <ProcesInit+0x84>)
    6660:	f000 ffe4 	bl	762c <SysCtlPeripheralEnable>
	TimerConfigure(TIMER1_BASE, TIMER_CFG_16_BIT_PAIR | TIMER_CFG_A_PERIODIC);
    6664:	4813      	ldr	r0, [pc, #76]	; (66b4 <ProcesInit+0x88>)
    6666:	4914      	ldr	r1, [pc, #80]	; (66b8 <ProcesInit+0x8c>)
    6668:	f001 fbc8 	bl	7dfc <TimerConfigure>
	TimerPrescaleSet(TIMER1_BASE, TIMER_A, 50);
    666c:	21ff      	movs	r1, #255	; 0xff
    666e:	2232      	movs	r2, #50	; 0x32
    6670:	4810      	ldr	r0, [pc, #64]	; (66b4 <ProcesInit+0x88>)
    6672:	f001 fc1c 	bl	7eae <TimerPrescaleSet>
	TimerLoadSet(TIMER1_BASE, TIMER_A, 0xffff);
    6676:	f64f 72ff 	movw	r2, #65535	; 0xffff
    667a:	21ff      	movs	r1, #255	; 0xff
    667c:	480d      	ldr	r0, [pc, #52]	; (66b4 <ProcesInit+0x88>)
    667e:	f001 fc24 	bl	7eca <TimerLoadSet>
	TimerEnable(TIMER1_BASE, TIMER_A);
    6682:	21ff      	movs	r1, #255	; 0xff
    6684:	480b      	ldr	r0, [pc, #44]	; (66b4 <ProcesInit+0x88>)
    6686:	f001 fba7 	bl	7dd8 <TimerEnable>

	//
	// Inicjacja przaerwania od wejcia synchronizujego
	//
	GPIOPinIntEnable(GPIO_PORTD_BASE, GPIO_PIN_0);
    668a:	2101      	movs	r1, #1
    668c:	480b      	ldr	r0, [pc, #44]	; (66bc <ProcesInit+0x90>)
    668e:	f000 fc1e 	bl	6ece <GPIOPinIntEnable>
	GPIOIntTypeSet(GPIO_PORTD_BASE, GPIO_PIN_0, GPIO_FALLING_EDGE);
    6692:	480a      	ldr	r0, [pc, #40]	; (66bc <ProcesInit+0x90>)
    6694:	2101      	movs	r1, #1
    6696:	2200      	movs	r2, #0
    6698:	f000 fb1e 	bl	6cd8 <GPIOIntTypeSet>
	IntEnable(INT_GPIOD);
    669c:	2013      	movs	r0, #19
}
    669e:	e8bd 4010 	ldmia.w	sp!, {r4, lr}
	//
	// Inicjacja przaerwania od wejcia synchronizujego
	//
	GPIOPinIntEnable(GPIO_PORTD_BASE, GPIO_PIN_0);
	GPIOIntTypeSet(GPIO_PORTD_BASE, GPIO_PIN_0, GPIO_FALLING_EDGE);
	IntEnable(INT_GPIOD);
    66a2:	f000 bd9d 	b.w	71e0 <IntEnable>
    66a6:	bf00      	nop
    66a8:	10100001 	.word	0x10100001
    66ac:	40030000 	.word	0x40030000
    66b0:	10100002 	.word	0x10100002
    66b4:	40031000 	.word	0x40031000
    66b8:	04000002 	.word	0x04000002
    66bc:	40007000 	.word	0x40007000

000066c0 <QEI_Init>:
//*****************************************************************************
// Funkcja konfigurujca enkoder 0
//*****************************************************************************

void QEI_Init()
{
    66c0:	b510      	push	{r4, lr}
	SysCtlPeripheralEnable(SYSCTL_PERIPH_QEI0);
    66c2:	480d      	ldr	r0, [pc, #52]	; (66f8 <QEI_Init+0x38>)
    66c4:	f000 ffb2 	bl	762c <SysCtlPeripheralEnable>

	// IN_00 X4.01 IDX0
	GPIOPinTypeQEI(GPIO_PORTD_BASE, GPIO_PIN_0);
    66c8:	2101      	movs	r1, #1
    66ca:	480c      	ldr	r0, [pc, #48]	; (66fc <QEI_Init+0x3c>)
    66cc:	f000 fc84 	bl	6fd8 <GPIOPinTypeQEI>
	// IN_01 X4.02 PHA0
	GPIOPinTypeQEI(GPIO_PORTC_BASE, GPIO_PIN_4);
    66d0:	2110      	movs	r1, #16
    66d2:	480b      	ldr	r0, [pc, #44]	; (6700 <QEI_Init+0x40>)
    66d4:	f000 fc80 	bl	6fd8 <GPIOPinTypeQEI>
	// IN_02 X4.03 PHB0
	GPIOPinTypeQEI(GPIO_PORTF_BASE, GPIO_PIN_0);
    66d8:	2101      	movs	r1, #1
    66da:	480a      	ldr	r0, [pc, #40]	; (6704 <QEI_Init+0x44>)
    66dc:	f000 fc7c 	bl	6fd8 <GPIOPinTypeQEI>

	QEIConfigure(QEI0_BASE, (QEI_CONFIG_CAPTURE_A_B | QEI_CONFIG_RESET_IDX
    66e0:	4809      	ldr	r0, [pc, #36]	; (6708 <QEI_Init+0x48>)
    66e2:	2118      	movs	r1, #24
    66e4:	f240 32e7 	movw	r2, #999	; 0x3e7
    66e8:	f000 fe56 	bl	7398 <QEIConfigure>
			| QEI_CONFIG_QUADRATURE | QEI_CONFIG_NO_SWAP), 999);

	QEIEnable(QEI0_BASE);
    66ec:	4806      	ldr	r0, [pc, #24]	; (6708 <QEI_Init+0x48>)
}
    66ee:	e8bd 4010 	ldmia.w	sp!, {r4, lr}
	GPIOPinTypeQEI(GPIO_PORTF_BASE, GPIO_PIN_0);

	QEIConfigure(QEI0_BASE, (QEI_CONFIG_CAPTURE_A_B | QEI_CONFIG_RESET_IDX
			| QEI_CONFIG_QUADRATURE | QEI_CONFIG_NO_SWAP), 999);

	QEIEnable(QEI0_BASE);
    66f2:	f000 be47 	b.w	7384 <QEIEnable>
    66f6:	bf00      	nop
    66f8:	10000100 	.word	0x10000100
    66fc:	40007000 	.word	0x40007000
    6700:	40006000 	.word	0x40006000
    6704:	40025000 	.word	0x40025000
    6708:	4002c000 	.word	0x4002c000

0000670c <IntDefaultHandler>:
// interrupt.  This simply enters an infinite loop, preserving the system state
// for examination by a debugger.
//
//*****************************************************************************
static void IntDefaultHandler(void)
{
    670c:	b508      	push	{r3, lr}
	//
	// Go into an infinite loop.
	//
	LedOn();
    670e:	f7fa ffdd 	bl	16cc <LedOn>
	Uart0_SendString("\nIntDefault ISR!\n");
    6712:	4805      	ldr	r0, [pc, #20]	; (6728 <IntDefaultHandler+0x1c>)
    6714:	f7fa fc5a 	bl	fcc <Uart0_SendString>
	Uart1_SendString("\nIntDefault ISR!\n");
    6718:	4803      	ldr	r0, [pc, #12]	; (6728 <IntDefaultHandler+0x1c>)
    671a:	f7fa fca3 	bl	1064 <Uart1_SendString>
	Uart2_SendString("\nIntDefault ISR!\n");
    671e:	4802      	ldr	r0, [pc, #8]	; (6728 <IntDefaultHandler+0x1c>)
    6720:	f7fa fc34 	bl	f8c <Uart2_SendString>
    6724:	e7fe      	b.n	6724 <IntDefaultHandler+0x18>
    6726:	bf00      	nop
    6728:	00009547 	.word	0x00009547

0000672c <FaultISR>:
// interrupt.  This simply enters an infinite loop, preserving the system state
// for examination by a debugger.
//
//*****************************************************************************
static void FaultISR(void)
{
    672c:	b508      	push	{r3, lr}
	//
	// Enter an infinite loop.
	//
	LedOn();
    672e:	f7fa ffcd 	bl	16cc <LedOn>
	Uart0_SendString("\nFault ISR!\n");
    6732:	4805      	ldr	r0, [pc, #20]	; (6748 <FaultISR+0x1c>)
    6734:	f7fa fc4a 	bl	fcc <Uart0_SendString>
	Uart1_SendString("\nFault ISR!\n");
    6738:	4803      	ldr	r0, [pc, #12]	; (6748 <FaultISR+0x1c>)
    673a:	f7fa fc93 	bl	1064 <Uart1_SendString>
	Uart2_SendString("\nFault ISR!\n");
    673e:	4802      	ldr	r0, [pc, #8]	; (6748 <FaultISR+0x1c>)
    6740:	f7fa fc24 	bl	f8c <Uart2_SendString>
    6744:	e7fe      	b.n	6744 <FaultISR+0x18>
    6746:	bf00      	nop
    6748:	00009559 	.word	0x00009559

0000674c <NmiSR>:
// simply enters an infinite loop, preserving the system state for examination
// by a debugger.
//
//*****************************************************************************
static void NmiSR(void)
{
    674c:	b508      	push	{r3, lr}
	//
	// Enter an infinite loop.
	//
	LedOn();
    674e:	f7fa ffbd 	bl	16cc <LedOn>
	Uart0_SendString("\nNMI ISR!\n");
    6752:	4805      	ldr	r0, [pc, #20]	; (6768 <NmiSR+0x1c>)
    6754:	f7fa fc3a 	bl	fcc <Uart0_SendString>
	Uart1_SendString("\nNMI ISR!\n");
    6758:	4803      	ldr	r0, [pc, #12]	; (6768 <NmiSR+0x1c>)
    675a:	f7fa fc83 	bl	1064 <Uart1_SendString>
	Uart2_SendString("\nNMI ISR!\n");
    675e:	4802      	ldr	r0, [pc, #8]	; (6768 <NmiSR+0x1c>)
    6760:	f7fa fc14 	bl	f8c <Uart2_SendString>
    6764:	e7fe      	b.n	6764 <NmiSR+0x18>
    6766:	bf00      	nop
    6768:	00009566 	.word	0x00009566

0000676c <ResetISR>:
// resetting the bits in that register) are left solely in the hands of the
// application.
//
//*****************************************************************************
static void ResetISR(void)
{
    676c:	2300      	movs	r3, #0

	//
	// Copy the data segment initializers from flash to SRAM.
	//
	pulSrc = &_etext;
	for (pulDest = &_data; pulDest < &_edata;)
    676e:	e003      	b.n	6778 <ResetISR+0xc>
	{
		*pulDest++ = *pulSrc++;
    6770:	4909      	ldr	r1, [pc, #36]	; (6798 <zero_loop+0xe>)
    6772:	5859      	ldr	r1, [r3, r1]
    6774:	5099      	str	r1, [r3, r2]
    6776:	3304      	adds	r3, #4

	//
	// Copy the data segment initializers from flash to SRAM.
	//
	pulSrc = &_etext;
	for (pulDest = &_data; pulDest < &_edata;)
    6778:	4a08      	ldr	r2, [pc, #32]	; (679c <zero_loop+0x12>)
    677a:	4909      	ldr	r1, [pc, #36]	; (67a0 <zero_loop+0x16>)
    677c:	1898      	adds	r0, r3, r2
    677e:	4288      	cmp	r0, r1
    6780:	d3f6      	bcc.n	6770 <ResetISR+0x4>

	//
	// Zero fill the bss segment.  This is done with inline assembly since this
	// will clear the value of pulDest if it is not kept in a register.
	//
	__asm("    ldr     r0, =_bss\n"
    6782:	4808      	ldr	r0, [pc, #32]	; (67a4 <zero_loop+0x1a>)
    6784:	4908      	ldr	r1, [pc, #32]	; (67a8 <zero_loop+0x1e>)
    6786:	f04f 0200 	mov.w	r2, #0

0000678a <zero_loop>:
    678a:	4288      	cmp	r0, r1
    678c:	bfb8      	it	lt
    678e:	f840 2b04 	strlt.w	r2, [r0], #4
    6792:	dbfa      	blt.n	678a <zero_loop>
			"        blt     zero_loop");

	//
	// Call the application's entry point.
	//
	main();
    6794:	f7fb bdee 	b.w	2374 <main>
    6798:	000096c0 	.word	0x000096c0
    679c:	20000000 	.word	0x20000000
    67a0:	20000124 	.word	0x20000124
    67a4:	20000124 	.word	0x20000124
    67a8:	20002698 	.word	0x20002698

000067ac <ftoa>:
//*****************************************************************************
// Funkcje narzdziowe
//*****************************************************************************

void ftoa(float f, char *buf)
{
    67ac:	e92d 41f0 	stmdb	sp!, {r4, r5, r6, r7, r8, lr}
    67b0:	460f      	mov	r7, r1
	int pos = 0, ix, dp, num;
	if (f < 0)
    67b2:	2100      	movs	r1, #0
//*****************************************************************************
// Funkcje narzdziowe
//*****************************************************************************

void ftoa(float f, char *buf)
{
    67b4:	4604      	mov	r4, r0
	int pos = 0, ix, dp, num;
	if (f < 0)
    67b6:	f002 fc6b 	bl	9090 <__aeabi_fcmplt>
    67ba:	b908      	cbnz	r0, 67c0 <ftoa+0x14>
    67bc:	2500      	movs	r5, #0
    67be:	e004      	b.n	67ca <ftoa+0x1e>
	{
		buf[pos++] = '-';
    67c0:	232d      	movs	r3, #45	; 0x2d
    67c2:	703b      	strb	r3, [r7, #0]
		f = -f;
    67c4:	f104 4400 	add.w	r4, r4, #2147483648	; 0x80000000
    67c8:	2501      	movs	r5, #1
    67ca:	2600      	movs	r6, #0
	}
	dp = 0;
	while (f >= 10.0)
    67cc:	e005      	b.n	67da <ftoa+0x2e>
	{
		f = f / 10.0;
    67ce:	4620      	mov	r0, r4
    67d0:	4918      	ldr	r1, [pc, #96]	; (6834 <ftoa+0x88>)
    67d2:	f002 fb73 	bl	8ebc <__aeabi_fdiv>
		dp++;
    67d6:	3601      	adds	r6, #1
		f = -f;
	}
	dp = 0;
	while (f >= 10.0)
	{
		f = f / 10.0;
    67d8:	4604      	mov	r4, r0
	{
		buf[pos++] = '-';
		f = -f;
	}
	dp = 0;
	while (f >= 10.0)
    67da:	4620      	mov	r0, r4
    67dc:	4915      	ldr	r1, [pc, #84]	; (6834 <ftoa+0x88>)
    67de:	f002 fc6b 	bl	90b8 <__aeabi_fcmpge>
    67e2:	2800      	cmp	r0, #0
    67e4:	d1f3      	bne.n	67ce <ftoa+0x22>
    67e6:	f04f 0801 	mov.w	r8, #1
		f = f / 10.0;
		dp++;
	}
	for (ix = 1; ix < 8; ix++)
	{
		num = f;
    67ea:	4620      	mov	r0, r4
    67ec:	f002 fc78 	bl	90e0 <__aeabi_f2iz>
		f = f - num;
		if (num > 9)
    67f0:	2809      	cmp	r0, #9
    67f2:	f105 0301 	add.w	r3, r5, #1
    67f6:	dd01      	ble.n	67fc <ftoa+0x50>
			buf[pos++] = '#';
    67f8:	2223      	movs	r2, #35	; 0x23
    67fa:	e001      	b.n	6800 <ftoa+0x54>
		else
			buf[pos++] = '0' + num;
    67fc:	f100 0230 	add.w	r2, r0, #48	; 0x30
    6800:	557a      	strb	r2, [r7, r5]
    6802:	461d      	mov	r5, r3
		if (dp == 0)
    6804:	b916      	cbnz	r6, 680c <ftoa+0x60>
			buf[pos++] = '.';
    6806:	222e      	movs	r2, #46	; 0x2e
    6808:	54fa      	strb	r2, [r7, r3]
    680a:	1c5d      	adds	r5, r3, #1
	while (f >= 10.0)
	{
		f = f / 10.0;
		dp++;
	}
	for (ix = 1; ix < 8; ix++)
    680c:	f108 0801 	add.w	r8, r8, #1
    6810:	f1b8 0f08 	cmp.w	r8, #8
    6814:	d00b      	beq.n	682e <ftoa+0x82>
	{
		num = f;
		f = f - num;
    6816:	f002 fa49 	bl	8cac <__aeabi_i2f>
    681a:	4601      	mov	r1, r0
    681c:	4620      	mov	r0, r4
    681e:	f002 f98f 	bl	8b40 <__aeabi_fsub>
			buf[pos++] = '#';
		else
			buf[pos++] = '0' + num;
		if (dp == 0)
			buf[pos++] = '.';
		f = f * 10.0;
    6822:	4904      	ldr	r1, [pc, #16]	; (6834 <ftoa+0x88>)
    6824:	f002 fa96 	bl	8d54 <__aeabi_fmul>
		dp--;
    6828:	3e01      	subs	r6, #1
			buf[pos++] = '#';
		else
			buf[pos++] = '0' + num;
		if (dp == 0)
			buf[pos++] = '.';
		f = f * 10.0;
    682a:	4604      	mov	r4, r0
    682c:	e7dd      	b.n	67ea <ftoa+0x3e>
    682e:	e8bd 81f0 	ldmia.w	sp!, {r4, r5, r6, r7, r8, pc}
    6832:	bf00      	nop
    6834:	41200000 	.word	0x41200000

00006838 <Delay>:
		dp--;
	}
}

unsigned long Delay(unsigned long in)
{
    6838:	2300      	movs	r3, #0
    683a:	461a      	mov	r2, r3
    683c:	4619      	mov	r1, r3
	unsigned long x, i;

	x = 0;

	for (i = 0; i < in; i++)
    683e:	e002      	b.n	6846 <Delay+0xe>
    6840:	4619      	mov	r1, r3
    6842:	3201      	adds	r2, #1
    6844:	3317      	adds	r3, #23
    6846:	4282      	cmp	r2, r0
    6848:	d3fa      	bcc.n	6840 <Delay+0x8>
	{
		x = i * 23;
	}

	return x;
}
    684a:	4608      	mov	r0, r1
    684c:	4770      	bx	lr

0000684e <TickRead>:

unsigned long TickRead(void)
{
	unsigned long t;

	t = tick;
    684e:	4b01      	ldr	r3, [pc, #4]	; (6854 <TickRead+0x6>)
    6850:	6818      	ldr	r0, [r3, #0]
	return (t);
}
    6852:	4770      	bx	lr
    6854:	20002694 	.word	0x20002694

00006858 <TickElapsed>:

unsigned long TickRead(void)
{
	unsigned long t;

	t = tick;
    6858:	4b01      	ldr	r3, [pc, #4]	; (6860 <TickElapsed+0x8>)
    685a:	681b      	ldr	r3, [r3, #0]
}

unsigned long TickElapsed(unsigned long count)
{
	return (TickRead() - count);
}
    685c:	1a18      	subs	r0, r3, r0
    685e:	4770      	bx	lr
    6860:	20002694 	.word	0x20002694

00006864 <TickWait>:

void TickWait(unsigned long count)
{
    6864:	b538      	push	{r3, r4, r5, lr}

unsigned long TickRead(void)
{
	unsigned long t;

	t = tick;
    6866:	4b04      	ldr	r3, [pc, #16]	; (6878 <TickWait+0x14>)
{
	return (TickRead() - count);
}

void TickWait(unsigned long count)
{
    6868:	4605      	mov	r5, r0

unsigned long TickRead(void)
{
	unsigned long t;

	t = tick;
    686a:	681c      	ldr	r4, [r3, #0]
{
	unsigned long start_count;

	start_count = TickRead();

	while (TickElapsed(start_count) <= count)
    686c:	4620      	mov	r0, r4
    686e:	f7ff fff3 	bl	6858 <TickElapsed>
    6872:	42a8      	cmp	r0, r5
    6874:	d9fa      	bls.n	686c <TickWait+0x8>
	{
	}
}
    6876:	bd38      	pop	{r3, r4, r5, pc}
    6878:	20002694 	.word	0x20002694

0000687c <QuickTickRead>:

unsigned long QuickTickRead(void)
{
	unsigned long t;

	t = SysTickValueGet();
    687c:	f001 ba8e 	b.w	7d9c <SysTickValueGet>

00006880 <QuickTickElapsed>:
	return (t);
}

unsigned long QuickTickElapsed(unsigned long count)
{
    6880:	b510      	push	{r4, lr}
    6882:	4604      	mov	r4, r0
	return (count - QuickTickRead()) / 50;
    6884:	f7ff fffa 	bl	687c <QuickTickRead>
}
    6888:	2332      	movs	r3, #50	; 0x32
	return (t);
}

unsigned long QuickTickElapsed(unsigned long count)
{
	return (count - QuickTickRead()) / 50;
    688a:	1a20      	subs	r0, r4, r0
}
    688c:	fbb0 f0f3 	udiv	r0, r0, r3
    6890:	bd10      	pop	{r4, pc}

00006892 <TickInit>:
// *****************************************************************************
// Obsuga tickw
// *****************************************************************************

void TickInit(void)
{
    6892:	b508      	push	{r3, lr}
	// Konfiguracja Tick'a
	//SysTickPeriodSet(50000); // 50000 cykli zegara = przeadowanie co 1 ms
	SysTickEnable();
    6894:	f001 fa56 	bl	7d44 <SysTickEnable>
	//SysTickIntEnable();
	tick = 0;
    6898:	4b01      	ldr	r3, [pc, #4]	; (68a0 <TickInit+0xe>)
    689a:	2200      	movs	r2, #0
    689c:	601a      	str	r2, [r3, #0]
}
    689e:	bd08      	pop	{r3, pc}
    68a0:	20002694 	.word	0x20002694

000068a4 <ADCIntDisable>:
    ASSERT(ulSequenceNum < 4);

    //
    // Disable this sample sequence interrupt.
    //
    HWREG(ulBase + ADC_O_IM) &= ~(1 << ulSequenceNum);
    68a4:	2201      	movs	r2, #1
    68a6:	408a      	lsls	r2, r1
    68a8:	6883      	ldr	r3, [r0, #8]
    68aa:	ea23 0302 	bic.w	r3, r3, r2
    68ae:	6083      	str	r3, [r0, #8]
}
    68b0:	4770      	bx	lr

000068b2 <ADCIntEnable>:
    ASSERT(ulSequenceNum < 4);

    //
    // Clear any outstanding interrupts on this sample sequence.
    //
    HWREG(ulBase + ADC_O_ISC) = 1 << ulSequenceNum;
    68b2:	2301      	movs	r3, #1
    68b4:	408b      	lsls	r3, r1
    68b6:	60c3      	str	r3, [r0, #12]

    //
    // Enable this sample sequence interrupt.
    //
    HWREG(ulBase + ADC_O_IM) |= 1 << ulSequenceNum;
    68b8:	6882      	ldr	r2, [r0, #8]
    68ba:	4313      	orrs	r3, r2
    68bc:	6083      	str	r3, [r0, #8]
}
    68be:	4770      	bx	lr

000068c0 <ADCIntStatus>:

    //
    // Return either the interrupt status or the raw interrupt status as
    // requested.
    //
    if(bMasked)
    68c0:	b13a      	cbz	r2, 68d2 <ADCIntStatus+0x12>
    {
        ulTemp = HWREG(ulBase + ADC_O_ISC) & (0x10001 << ulSequenceNum);
    68c2:	68c3      	ldr	r3, [r0, #12]
    68c4:	f04f 1001 	mov.w	r0, #65537	; 0x10001
    68c8:	fa10 f101 	lsls.w	r1, r0, r1
    68cc:	ea01 0003 	and.w	r0, r1, r3
    68d0:	4770      	bx	lr
    }
    else
    {
        ulTemp = HWREG(ulBase + ADC_O_RIS) & (0x10000 | (1 << ulSequenceNum));
    68d2:	6843      	ldr	r3, [r0, #4]
    68d4:	2001      	movs	r0, #1
    68d6:	4088      	lsls	r0, r1
    68d8:	f440 3080 	orr.w	r0, r0, #65536	; 0x10000
    68dc:	4018      	ands	r0, r3

        //
        // If the digital comparator status bit is set, reflect it to the
        // appropriate sequence bit.
        //
        if(ulTemp & 0x10000)
    68de:	f410 3f80 	tst.w	r0, #65536	; 0x10000
    68e2:	d007      	beq.n	68f4 <ADCIntStatus+0x34>
        {
            ulTemp |= 0xF0000;
            ulTemp &= ~(0x10000 << ulSequenceNum);
    68e4:	f44f 3380 	mov.w	r3, #65536	; 0x10000
    68e8:	fa13 f101 	lsls.w	r1, r3, r1
        // If the digital comparator status bit is set, reflect it to the
        // appropriate sequence bit.
        //
        if(ulTemp & 0x10000)
        {
            ulTemp |= 0xF0000;
    68ec:	f440 2070 	orr.w	r0, r0, #983040	; 0xf0000
            ulTemp &= ~(0x10000 << ulSequenceNum);
    68f0:	ea20 0001 	bic.w	r0, r0, r1

    //
    // Return the interrupt status
    //
    return(ulTemp);
}
    68f4:	4770      	bx	lr

000068f6 <ADCIntClear>:
    ASSERT(ulSequenceNum < 4);

    //
    // Clear the interrupt.
    //
    HWREG(ulBase + ADC_O_ISC) = 1 << ulSequenceNum;
    68f6:	2301      	movs	r3, #1
    68f8:	408b      	lsls	r3, r1
    68fa:	60c3      	str	r3, [r0, #12]
}
    68fc:	4770      	bx	lr

000068fe <ADCSequenceEnable>:
    ASSERT(ulSequenceNum < 4);

    //
    // Enable the specified sequence.
    //
    HWREG(ulBase + ADC_O_ACTSS) |= 1 << ulSequenceNum;
    68fe:	2201      	movs	r2, #1
    6900:	408a      	lsls	r2, r1
    6902:	6803      	ldr	r3, [r0, #0]
    6904:	ea42 0303 	orr.w	r3, r2, r3
    6908:	6003      	str	r3, [r0, #0]
}
    690a:	4770      	bx	lr

0000690c <ADCSequenceDisable>:
    ASSERT(ulSequenceNum < 4);

    //
    // Disable the specified sequences.
    //
    HWREG(ulBase + ADC_O_ACTSS) &= ~(1 << ulSequenceNum);
    690c:	2201      	movs	r2, #1
    690e:	408a      	lsls	r2, r1
    6910:	6803      	ldr	r3, [r0, #0]
    6912:	ea23 0302 	bic.w	r3, r3, r2
    6916:	6003      	str	r3, [r0, #0]
}
    6918:	4770      	bx	lr

0000691a <ADCSequenceConfigure>:

    //
    // Set the trigger event for this sample sequence.
    //
    HWREG(ulBase + ADC_O_EMUX) = ((HWREG(ulBase + ADC_O_EMUX) &
                                   ~(0xf << ulSequenceNum)) |
    691a:	0089      	lsls	r1, r1, #2
    ulSequenceNum *= 4;

    //
    // Set the trigger event for this sample sequence.
    //
    HWREG(ulBase + ADC_O_EMUX) = ((HWREG(ulBase + ADC_O_EMUX) &
    691c:	f04f 0c0f 	mov.w	ip, #15
    6920:	fa0c fc01 	lsl.w	ip, ip, r1
    6924:	f002 020f 	and.w	r2, r2, #15
    6928:	408a      	lsls	r2, r1
                                  ((ulTrigger & 0xf) << ulSequenceNum));

    //
    // Set the priority for this sample sequence.
    //
    HWREG(ulBase + ADC_O_SSPRI) = ((HWREG(ulBase + ADC_O_SSPRI) &
    692a:	f003 0303 	and.w	r3, r3, #3
    692e:	fa13 f101 	lsls.w	r1, r3, r1
//
//*****************************************************************************
void
ADCSequenceConfigure(unsigned long ulBase, unsigned long ulSequenceNum,
                     unsigned long ulTrigger, unsigned long ulPriority)
{
    6932:	b510      	push	{r4, lr}
    ulSequenceNum *= 4;

    //
    // Set the trigger event for this sample sequence.
    //
    HWREG(ulBase + ADC_O_EMUX) = ((HWREG(ulBase + ADC_O_EMUX) &
    6934:	6944      	ldr	r4, [r0, #20]
    6936:	ea6f 0c0c 	mvn.w	ip, ip
    693a:	ea0c 0404 	and.w	r4, ip, r4
    693e:	4314      	orrs	r4, r2
    6940:	6144      	str	r4, [r0, #20]
                                  ((ulTrigger & 0xf) << ulSequenceNum));

    //
    // Set the priority for this sample sequence.
    //
    HWREG(ulBase + ADC_O_SSPRI) = ((HWREG(ulBase + ADC_O_SSPRI) &
    6942:	6a02      	ldr	r2, [r0, #32]
    6944:	ea0c 0c02 	and.w	ip, ip, r2
    6948:	ea4c 0101 	orr.w	r1, ip, r1
    694c:	6201      	str	r1, [r0, #32]
                                    ~(0xf << ulSequenceNum)) |
                                   ((ulPriority & 0x3) << ulSequenceNum));
}
    694e:	bd10      	pop	{r4, pc}

00006950 <ADCSequenceStepConfigure>:

    //
    // Set the analog mux value for this step.
    //
    HWREG(ulBase + ADC_SSMUX) = ((HWREG(ulBase + ADC_SSMUX) &
                                  ~(0x0000000f << ulStep)) |
    6950:	0092      	lsls	r2, r2, #2
//
//*****************************************************************************
void
ADCSequenceStepConfigure(unsigned long ulBase, unsigned long ulSequenceNum,
                         unsigned long ulStep, unsigned long ulConfig)
{
    6952:	b570      	push	{r4, r5, r6, lr}
    ulStep *= 4;

    //
    // Set the analog mux value for this step.
    //
    HWREG(ulBase + ADC_SSMUX) = ((HWREG(ulBase + ADC_SSMUX) &
    6954:	250f      	movs	r5, #15
    6956:	4095      	lsls	r5, r2
    6958:	f003 060f 	and.w	r6, r3, #15
    695c:	4096      	lsls	r6, r2
           ((ulSequenceNum == 3) && (ulStep < 1)));

    //
    // Get the offset of the sequence to be configured.
    //
    ulBase += ADC_SEQ + (ADC_SEQ_STEP * ulSequenceNum);
    695e:	3102      	adds	r1, #2
    6960:	ea4f 1c41 	mov.w	ip, r1, lsl #5
    ulStep *= 4;

    //
    // Set the analog mux value for this step.
    //
    HWREG(ulBase + ADC_SSMUX) = ((HWREG(ulBase + ADC_SSMUX) &
    6964:	f85c 4000 	ldr.w	r4, [ip, r0]
    6968:	43ed      	mvns	r5, r5
    696a:	ea05 0404 	and.w	r4, r5, r4
    696e:	4334      	orrs	r4, r6
           ((ulSequenceNum == 3) && (ulStep < 1)));

    //
    // Get the offset of the sequence to be configured.
    //
    ulBase += ADC_SEQ + (ADC_SEQ_STEP * ulSequenceNum);
    6970:	eb0c 0100 	add.w	r1, ip, r0
    ulStep *= 4;

    //
    // Set the analog mux value for this step.
    //
    HWREG(ulBase + ADC_SSMUX) = ((HWREG(ulBase + ADC_SSMUX) &
    6974:	f84c 4000 	str.w	r4, [ip, r0]
                                 ((ulConfig & 0x0f) << ulStep));

    //
    // Set the control value for this step.
    //
    HWREG(ulBase + ADC_SSCTL) = ((HWREG(ulBase + ADC_SSCTL) &
    6978:	6848      	ldr	r0, [r1, #4]
    697a:	ea00 0c05 	and.w	ip, r0, r5
    697e:	f003 00f0 	and.w	r0, r3, #240	; 0xf0
    6982:	0900      	lsrs	r0, r0, #4
    6984:	4090      	lsls	r0, r2
                                 (((ulConfig & 0xf0) >> 4) << ulStep));

    //
    // Enable digital comparator if specified in the ulConfig bit-fields.
    //
    if(ulConfig & 0x000F0000)
    6986:	f413 2f70 	tst.w	r3, #983040	; 0xf0000
                                 ((ulConfig & 0x0f) << ulStep));

    //
    // Set the control value for this step.
    //
    HWREG(ulBase + ADC_SSCTL) = ((HWREG(ulBase + ADC_SSCTL) &
    698a:	ea4c 0000 	orr.w	r0, ip, r0
    698e:	6048      	str	r0, [r1, #4]
                                 (((ulConfig & 0xf0) >> 4) << ulStep));

    //
    // Enable digital comparator if specified in the ulConfig bit-fields.
    //
    if(ulConfig & 0x000F0000)
    6990:	d00f      	beq.n	69b2 <ADCSequenceStepConfigure+0x62>
        //
        // Program the comparator for the specified step.
        //
        ulTemp = HWREG(ulBase + ADC_SSDC);
        ulTemp &= ~(0xF << ulStep);
        ulTemp |= (((ulConfig & 0x00070000) >> 16) << ulStep);
    6992:	f403 23e0 	and.w	r3, r3, #458752	; 0x70000
    6996:	0c1b      	lsrs	r3, r3, #16
    6998:	4093      	lsls	r3, r2
    if(ulConfig & 0x000F0000)
    {
        //
        // Program the comparator for the specified step.
        //
        ulTemp = HWREG(ulBase + ADC_SSDC);
    699a:	6948      	ldr	r0, [r1, #20]
        ulTemp &= ~(0xF << ulStep);
    699c:	ea00 0505 	and.w	r5, r0, r5

        //
        // Enable the comparator.
        //
        ulTemp = HWREG(ulBase + ADC_SSOP);
        ulTemp |= (1 << ulStep);
    69a0:	2001      	movs	r0, #1
    69a2:	fa10 f202 	lsls.w	r2, r0, r2
        //
        // Program the comparator for the specified step.
        //
        ulTemp = HWREG(ulBase + ADC_SSDC);
        ulTemp &= ~(0xF << ulStep);
        ulTemp |= (((ulConfig & 0x00070000) >> 16) << ulStep);
    69a6:	431d      	orrs	r5, r3
        HWREG(ulBase + ADC_SSDC) = ulTemp;
    69a8:	614d      	str	r5, [r1, #20]

        //
        // Enable the comparator.
        //
        ulTemp = HWREG(ulBase + ADC_SSOP);
    69aa:	690b      	ldr	r3, [r1, #16]
        ulTemp |= (1 << ulStep);
    69ac:	ea43 0202 	orr.w	r2, r3, r2
    69b0:	e005      	b.n	69be <ADCSequenceStepConfigure+0x6e>
    // Disable digital comparator if not specified.
    //
    else
    {
        ulTemp = HWREG(ulBase + ADC_SSOP);
        ulTemp &= ~(1 << ulStep);
    69b2:	2001      	movs	r0, #1
    69b4:	fa10 f202 	lsls.w	r2, r0, r2
    //
    // Disable digital comparator if not specified.
    //
    else
    {
        ulTemp = HWREG(ulBase + ADC_SSOP);
    69b8:	690b      	ldr	r3, [r1, #16]
        ulTemp &= ~(1 << ulStep);
    69ba:	ea23 0202 	bic.w	r2, r3, r2
        HWREG(ulBase + ADC_SSOP) = ulTemp;
    69be:	610a      	str	r2, [r1, #16]
    69c0:	bd70      	pop	{r4, r5, r6, pc}

000069c2 <ADCSequenceOverflow>:
    ASSERT(ulSequenceNum < 4);

    //
    // Determine if there was an overflow on this sequence.
    //
    return(HWREG(ulBase + ADC_O_OSTAT) & (1 << ulSequenceNum));
    69c2:	6903      	ldr	r3, [r0, #16]
    69c4:	2001      	movs	r0, #1
    69c6:	4088      	lsls	r0, r1
}
    69c8:	4018      	ands	r0, r3
    69ca:	4770      	bx	lr

000069cc <ADCSequenceOverflowClear>:
    ASSERT(ulSequenceNum < 4);

    //
    // Clear the overflow condition for this sequence.
    //
    HWREG(ulBase + ADC_O_OSTAT) = 1 << ulSequenceNum;
    69cc:	2301      	movs	r3, #1
    69ce:	408b      	lsls	r3, r1
    69d0:	6103      	str	r3, [r0, #16]
}
    69d2:	4770      	bx	lr

000069d4 <ADCSequenceUnderflow>:
    ASSERT(ulSequenceNum < 4);

    //
    // Determine if there was an underflow on this sequence.
    //
    return(HWREG(ulBase + ADC_O_USTAT) & (1 << ulSequenceNum));
    69d4:	6983      	ldr	r3, [r0, #24]
    69d6:	2001      	movs	r0, #1
    69d8:	4088      	lsls	r0, r1
}
    69da:	4018      	ands	r0, r3
    69dc:	4770      	bx	lr

000069de <ADCSequenceUnderflowClear>:
    ASSERT(ulSequenceNum < 4);

    //
    // Clear the underflow condition for this sequence.
    //
    HWREG(ulBase + ADC_O_USTAT) = 1 << ulSequenceNum;
    69de:	2301      	movs	r3, #1
    69e0:	408b      	lsls	r3, r1
    69e2:	6183      	str	r3, [r0, #24]
}
    69e4:	4770      	bx	lr

000069e6 <ADCSequenceDataGet>:
    ASSERT(ulSequenceNum < 4);

    //
    // Get the offset of the sequence to be read.
    //
    ulBase += ADC_SEQ + (ADC_SEQ_STEP * ulSequenceNum);
    69e6:	3102      	adds	r1, #2
    69e8:	eb00 1141 	add.w	r1, r0, r1, lsl #5
    69ec:	2000      	movs	r0, #0

    //
    // Read samples from the FIFO until it is empty.
    //
    ulCount = 0;
    while(!(HWREG(ulBase + ADC_SSFSTAT) & ADC_SSFSTAT0_EMPTY) && (ulCount < 8))
    69ee:	e003      	b.n	69f8 <ADCSequenceDataGet+0x12>
    {
        //
        // Read the FIFO and copy it to the destination.
        //
        *pulBuffer++ = HWREG(ulBase + ADC_SSFIFO);
    69f0:	688b      	ldr	r3, [r1, #8]
    69f2:	f842 3020 	str.w	r3, [r2, r0, lsl #2]

        //
        // Increment the count of samples read.
        //
        ulCount++;
    69f6:	3001      	adds	r0, #1

    //
    // Read samples from the FIFO until it is empty.
    //
    ulCount = 0;
    while(!(HWREG(ulBase + ADC_SSFSTAT) & ADC_SSFSTAT0_EMPTY) && (ulCount < 8))
    69f8:	68cb      	ldr	r3, [r1, #12]
    69fa:	f413 7f80 	tst.w	r3, #256	; 0x100
    69fe:	d101      	bne.n	6a04 <ADCSequenceDataGet+0x1e>
    6a00:	2808      	cmp	r0, #8
    6a02:	d1f5      	bne.n	69f0 <ADCSequenceDataGet+0xa>

    //
    // Return the number of samples read.
    //
    return(ulCount);
}
    6a04:	4770      	bx	lr

00006a06 <ADCProcessorTrigger>:
    ASSERT(ulSequenceNum < 4);

    //
    // Generate a processor trigger for this sample sequence.
    //
    HWREG(ulBase + ADC_O_PSSI) = 1 << ulSequenceNum;
    6a06:	2301      	movs	r3, #1
    6a08:	408b      	lsls	r3, r1
    6a0a:	6283      	str	r3, [r0, #40]	; 0x28
}
    6a0c:	4770      	bx	lr

00006a0e <ADCSoftwareOversampleConfigure>:
           ((ulSequenceNum == 0) || (ulFactor != 8)));

    //
    // Convert the oversampling factor to a shift factor.
    //
    for(ulValue = 0, ulFactor >>= 1; ulFactor; ulValue++, ulFactor >>= 1)
    6a0e:	0852      	lsrs	r2, r2, #1
    6a10:	2300      	movs	r3, #0
    6a12:	e001      	b.n	6a18 <ADCSoftwareOversampleConfigure+0xa>
    6a14:	3301      	adds	r3, #1
    6a16:	0852      	lsrs	r2, r2, #1
    6a18:	2a00      	cmp	r2, #0
    6a1a:	d1fb      	bne.n	6a14 <ADCSoftwareOversampleConfigure+0x6>
    }

    //
    // Save the sfiht factor.
    //
    g_pucOversampleFactor[ulSequenceNum] = ulValue;
    6a1c:	4a01      	ldr	r2, [pc, #4]	; (6a24 <ADCSoftwareOversampleConfigure+0x16>)
    6a1e:	5453      	strb	r3, [r2, r1]
}
    6a20:	4770      	bx	lr
    6a22:	bf00      	nop
    6a24:	200002a8 	.word	0x200002a8

00006a28 <ADCSoftwareOversampleStepConfigure>:
void
ADCSoftwareOversampleStepConfigure(unsigned long ulBase,
                                   unsigned long ulSequenceNum,
                                   unsigned long ulStep,
                                   unsigned long ulConfig)
{
    6a28:	b570      	push	{r4, r5, r6, lr}
    ulBase += ADC_SEQ + (ADC_SEQ_STEP * ulSequenceNum);

    //
    // Compute the shift for the bits that control this step.
    //
    ulStep *= 4 << g_pucOversampleFactor[ulSequenceNum];
    6a2a:	4c1c      	ldr	r4, [pc, #112]	; (6a9c <ADCSoftwareOversampleStepConfigure+0x74>)
           (ulStep < (4 >> g_pucOversampleFactor[ulSequenceNum])));

    //
    // Get the offset of the sequence to be configured.
    //
    ulBase += ADC_SEQ + (ADC_SEQ_STEP * ulSequenceNum);
    6a2c:	f101 0c02 	add.w	ip, r1, #2

    //
    // Compute the shift for the bits that control this step.
    //
    ulStep *= 4 << g_pucOversampleFactor[ulSequenceNum];
    6a30:	5c61      	ldrb	r1, [r4, r1]
           (ulStep < (4 >> g_pucOversampleFactor[ulSequenceNum])));

    //
    // Get the offset of the sequence to be configured.
    //
    ulBase += ADC_SEQ + (ADC_SEQ_STEP * ulSequenceNum);
    6a32:	eb00 104c 	add.w	r0, r0, ip, lsl #5

    //
    // Compute the shift for the bits that control this step.
    //
    ulStep *= 4 << g_pucOversampleFactor[ulSequenceNum];
    6a36:	f04f 0c04 	mov.w	ip, #4
    6a3a:	fa0c fc01 	lsl.w	ip, ip, r1
        //
        // Set the control value for this step.
        //
        HWREG(ulBase + ADC_SSCTL) = ((HWREG(ulBase + ADC_SSCTL) &
                                      ~(0x0000000f << ulStep)) |
                                     (((ulConfig & 0xf0) >> 4) << ulStep));
    6a3e:	f003 04f0 	and.w	r4, r3, #240	; 0xf0
    ulBase += ADC_SEQ + (ADC_SEQ_STEP * ulSequenceNum);

    //
    // Compute the shift for the bits that control this step.
    //
    ulStep *= 4 << g_pucOversampleFactor[ulSequenceNum];
    6a42:	fb02 f20c 	mul.w	r2, r2, ip

    //
    // Loop through the hardware steps that make up this step of the software
    // oversampled sequence.
    //
    for(ulSequenceNum = 1 << g_pucOversampleFactor[ulSequenceNum];
    6a46:	f04f 0c01 	mov.w	ip, #1
    6a4a:	fa0c f101 	lsl.w	r1, ip, r1
        //
        // Set the control value for this step.
        //
        HWREG(ulBase + ADC_SSCTL) = ((HWREG(ulBase + ADC_SSCTL) &
                                      ~(0x0000000f << ulStep)) |
                                     (((ulConfig & 0xf0) >> 4) << ulStep));
    6a4e:	0924      	lsrs	r4, r4, #4

    //
    // Loop through the hardware steps that make up this step of the software
    // oversampled sequence.
    //
    for(ulSequenceNum = 1 << g_pucOversampleFactor[ulSequenceNum];
    6a50:	e020      	b.n	6a94 <ADCSoftwareOversampleStepConfigure+0x6c>
        ulSequenceNum; ulSequenceNum--)
    {
        //
        // Set the analog mux value for this step.
        //
        HWREG(ulBase + ADC_SSMUX) = ((HWREG(ulBase + ADC_SSMUX) &
    6a52:	f04f 0c0f 	mov.w	ip, #15
    6a56:	fa0c fc02 	lsl.w	ip, ip, r2
    6a5a:	f003 050f 	and.w	r5, r3, #15
    6a5e:	4095      	lsls	r5, r2
    6a60:	6806      	ldr	r6, [r0, #0]
    6a62:	ea6f 0c0c 	mvn.w	ip, ip
    6a66:	ea0c 0606 	and.w	r6, ip, r6
    6a6a:	ea46 0505 	orr.w	r5, r6, r5
                                     ((ulConfig & 0x0f) << ulStep));

        //
        // Set the control value for this step.
        //
        HWREG(ulBase + ADC_SSCTL) = ((HWREG(ulBase + ADC_SSCTL) &
    6a6e:	fa14 f602 	lsls.w	r6, r4, r2
        ulSequenceNum; ulSequenceNum--)
    {
        //
        // Set the analog mux value for this step.
        //
        HWREG(ulBase + ADC_SSMUX) = ((HWREG(ulBase + ADC_SSMUX) &
    6a72:	6005      	str	r5, [r0, #0]
                                     ((ulConfig & 0x0f) << ulStep));

        //
        // Set the control value for this step.
        //
        HWREG(ulBase + ADC_SSCTL) = ((HWREG(ulBase + ADC_SSCTL) &
    6a74:	6845      	ldr	r5, [r0, #4]
                                      ~(0x0000000f << ulStep)) |
                                     (((ulConfig & 0xf0) >> 4) << ulStep));
        if(ulSequenceNum != 1)
    6a76:	2901      	cmp	r1, #1
                                     ((ulConfig & 0x0f) << ulStep));

        //
        // Set the control value for this step.
        //
        HWREG(ulBase + ADC_SSCTL) = ((HWREG(ulBase + ADC_SSCTL) &
    6a78:	ea0c 0c05 	and.w	ip, ip, r5
    6a7c:	ea4c 0506 	orr.w	r5, ip, r6
    6a80:	6045      	str	r5, [r0, #4]
                                      ~(0x0000000f << ulStep)) |
                                     (((ulConfig & 0xf0) >> 4) << ulStep));
        if(ulSequenceNum != 1)
    6a82:	d005      	beq.n	6a90 <ADCSoftwareOversampleStepConfigure+0x68>
        {
            HWREG(ulBase + ADC_SSCTL) &= ~((ADC_SSCTL0_IE0 |
    6a84:	2506      	movs	r5, #6
    6a86:	4095      	lsls	r5, r2
    6a88:	6846      	ldr	r6, [r0, #4]
    6a8a:	ea26 0505 	bic.w	r5, r6, r5
    6a8e:	6045      	str	r5, [r0, #4]
        }

        //
        // Go to the next hardware step.
        //
        ulStep += 4;
    6a90:	3204      	adds	r2, #4
    //
    // Loop through the hardware steps that make up this step of the software
    // oversampled sequence.
    //
    for(ulSequenceNum = 1 << g_pucOversampleFactor[ulSequenceNum];
        ulSequenceNum; ulSequenceNum--)
    6a92:	3901      	subs	r1, #1

    //
    // Loop through the hardware steps that make up this step of the software
    // oversampled sequence.
    //
    for(ulSequenceNum = 1 << g_pucOversampleFactor[ulSequenceNum];
    6a94:	2900      	cmp	r1, #0
    6a96:	d1dc      	bne.n	6a52 <ADCSoftwareOversampleStepConfigure+0x2a>
        //
        // Go to the next hardware step.
        //
        ulStep += 4;
    }
}
    6a98:	bd70      	pop	{r4, r5, r6, pc}
    6a9a:	bf00      	nop
    6a9c:	200002a8 	.word	0x200002a8

00006aa0 <ADCSoftwareOversampleDataGet>:
           (ulCount < (4 >> g_pucOversampleFactor[ulSequenceNum])));

    //
    // Get the offset of the sequence to be read.
    //
    ulBase += ADC_SEQ + (ADC_SEQ_STEP * ulSequenceNum);
    6aa0:	f101 0c02 	add.w	ip, r1, #2
//
//*****************************************************************************
void
ADCSoftwareOversampleDataGet(unsigned long ulBase, unsigned long ulSequenceNum,
                             unsigned long *pulBuffer, unsigned long ulCount)
{
    6aa4:	b5f0      	push	{r4, r5, r6, r7, lr}
           (ulCount < (4 >> g_pucOversampleFactor[ulSequenceNum])));

    //
    // Get the offset of the sequence to be read.
    //
    ulBase += ADC_SEQ + (ADC_SEQ_STEP * ulSequenceNum);
    6aa6:	eb00 104c 	add.w	r0, r0, ip, lsl #5
    6aaa:	2400      	movs	r4, #0

    //
    // Read the samples from the FIFO until it is empty.
    //
    while(ulCount--)
    6aac:	e00f      	b.n	6ace <ADCSoftwareOversampleDataGet+0x2e>
    {
        //
        // Compute the sum of the samples.
        //
        ulAccum = 0;
        for(ulIdx = 1 << g_pucOversampleFactor[ulSequenceNum]; ulIdx; ulIdx--)
    6aae:	4d09      	ldr	r5, [pc, #36]	; (6ad4 <ADCSoftwareOversampleDataGet+0x34>)
    6ab0:	2601      	movs	r6, #1
    6ab2:	5c6f      	ldrb	r7, [r5, r1]
    6ab4:	2500      	movs	r5, #0
    6ab6:	40be      	lsls	r6, r7
    6ab8:	e003      	b.n	6ac2 <ADCSoftwareOversampleDataGet+0x22>
        {
            //
            // Read the FIFO and add it to the accumulator.
            //
            ulAccum += HWREG(ulBase + ADC_SSFIFO);
    6aba:	f8d0 c008 	ldr.w	ip, [r0, #8]
    {
        //
        // Compute the sum of the samples.
        //
        ulAccum = 0;
        for(ulIdx = 1 << g_pucOversampleFactor[ulSequenceNum]; ulIdx; ulIdx--)
    6abe:	3e01      	subs	r6, #1
        {
            //
            // Read the FIFO and add it to the accumulator.
            //
            ulAccum += HWREG(ulBase + ADC_SSFIFO);
    6ac0:	4465      	add	r5, ip
    {
        //
        // Compute the sum of the samples.
        //
        ulAccum = 0;
        for(ulIdx = 1 << g_pucOversampleFactor[ulSequenceNum]; ulIdx; ulIdx--)
    6ac2:	2e00      	cmp	r6, #0
    6ac4:	d1f9      	bne.n	6aba <ADCSoftwareOversampleDataGet+0x1a>
        }

        //
        // Write the averaged sample to the output buffer.
        //
        *pulBuffer++ = ulAccum >> g_pucOversampleFactor[ulSequenceNum];
    6ac6:	40fd      	lsrs	r5, r7
    6ac8:	3b01      	subs	r3, #1
    6aca:	5115      	str	r5, [r2, r4]
    6acc:	3404      	adds	r4, #4
    ulBase += ADC_SEQ + (ADC_SEQ_STEP * ulSequenceNum);

    //
    // Read the samples from the FIFO until it is empty.
    //
    while(ulCount--)
    6ace:	2b00      	cmp	r3, #0
    6ad0:	d1ed      	bne.n	6aae <ADCSoftwareOversampleDataGet+0xe>
        //
        // Write the averaged sample to the output buffer.
        //
        *pulBuffer++ = ulAccum >> g_pucOversampleFactor[ulSequenceNum];
    }
}
    6ad2:	bdf0      	pop	{r4, r5, r6, r7, pc}
    6ad4:	200002a8 	.word	0x200002a8

00006ad8 <ADCHardwareOversampleConfigure>:
           (ulFactor == 64)));

    //
    // Convert the oversampling factor to a shift factor.
    //
    for(ulValue = 0, ulFactor >>= 1; ulFactor; ulValue++, ulFactor >>= 1)
    6ad8:	0849      	lsrs	r1, r1, #1
    6ada:	2300      	movs	r3, #0
    6adc:	e001      	b.n	6ae2 <ADCHardwareOversampleConfigure+0xa>
    6ade:	3301      	adds	r3, #1
    6ae0:	0849      	lsrs	r1, r1, #1
    6ae2:	2900      	cmp	r1, #0
    6ae4:	d1fb      	bne.n	6ade <ADCHardwareOversampleConfigure+0x6>
    }

    //
    // Write the shift factor to the ADC to configure the hardware oversampler.
    //
    HWREG(ulBase + ADC_O_SAC) = ulValue;
    6ae6:	6303      	str	r3, [r0, #48]	; 0x30
}
    6ae8:	4770      	bx	lr

00006aea <ADCComparatorConfigure>:
    ASSERT(ulComp < 8);

    //
    // Save the new setting.
    //
    HWREG(ulBase + ADC_O_DCCTL0 + (ulComp * 4)) = ulConfig;
    6aea:	f500 6060 	add.w	r0, r0, #3584	; 0xe00
    6aee:	f840 2021 	str.w	r2, [r0, r1, lsl #2]
}
    6af2:	4770      	bx	lr

00006af4 <ADCComparatorRegionSet>:
    ASSERT(ulHighRef < 1024);

    //
    // Save the new region settings.
    //
    HWREG(ulBase + ADC_O_DCCMP0 + (ulComp * 4)) = (ulHighRef << 16) | ulLowRef;
    6af4:	f500 6064 	add.w	r0, r0, #3648	; 0xe40
    6af8:	ea42 4303 	orr.w	r3, r2, r3, lsl #16
    6afc:	f840 3021 	str.w	r3, [r0, r1, lsl #2]
}
    6b00:	4770      	bx	lr

00006b02 <ADCComparatorReset>:

    //
    // Set the appropriate bits to reset the trigger and/or interrupt
    // comparator conditions.
    //
    if(bTrigger)
    6b02:	4694      	mov	ip, r2
    6b04:	b12a      	cbz	r2, 6b12 <ADCComparatorReset+0x10>
    {
        ulTemp |= (1 << (16 + ulComp));
    6b06:	f101 0210 	add.w	r2, r1, #16
    6b0a:	f04f 0c01 	mov.w	ip, #1
    6b0e:	fa0c fc02 	lsl.w	ip, ip, r2
    }
    if(bInterrupt)
    6b12:	b123      	cbz	r3, 6b1e <ADCComparatorReset+0x1c>
    {
        ulTemp |= (1 << ulComp);
    6b14:	2301      	movs	r3, #1
    6b16:	fa13 f101 	lsls.w	r1, r3, r1
    6b1a:	ea4c 0c01 	orr.w	ip, ip, r1
    }

    HWREG(ulBase + ADC_O_DCRIC) = ulTemp;
    6b1e:	f8c0 cd00 	str.w	ip, [r0, #3328]	; 0xd00
}
    6b22:	4770      	bx	lr

00006b24 <ADCComparatorIntDisable>:
    ASSERT(ulSequenceNum < 4);

    //
    // Disable this sample sequence comparator interrupt.
    //
    HWREG(ulBase + ADC_O_IM) &= ~(0x10000 << ulSequenceNum);
    6b24:	f44f 3280 	mov.w	r2, #65536	; 0x10000
    6b28:	408a      	lsls	r2, r1
    6b2a:	6883      	ldr	r3, [r0, #8]
    6b2c:	ea23 0302 	bic.w	r3, r3, r2
    6b30:	6083      	str	r3, [r0, #8]
}
    6b32:	4770      	bx	lr

00006b34 <ADCComparatorIntEnable>:
    ASSERT(ulSequenceNum < 4);

    //
    // Enable this sample sequence interrupt.
    //
    HWREG(ulBase + ADC_O_IM) |= 0x10000 << ulSequenceNum;
    6b34:	f44f 3280 	mov.w	r2, #65536	; 0x10000
    6b38:	408a      	lsls	r2, r1
    6b3a:	6883      	ldr	r3, [r0, #8]
    6b3c:	ea42 0303 	orr.w	r3, r2, r3
    6b40:	6083      	str	r3, [r0, #8]
}
    6b42:	4770      	bx	lr

00006b44 <ADCComparatorIntStatus>:
    ASSERT((ulBase == ADC0_BASE) || (ulBase == ADC1_BASE));

    //
    // Return the digitial comparator interrupt status.
    //
    return(HWREG(ulBase + ADC_O_DCISC));
    6b44:	6b40      	ldr	r0, [r0, #52]	; 0x34
}
    6b46:	4770      	bx	lr

00006b48 <ADCComparatorIntClear>:
    ASSERT((ulBase == ADC0_BASE) || (ulBase == ADC1_BASE));

    //
    // Clear the interrupt.
    //
    HWREG(ulBase + ADC_O_DCISC) = ulStatus;
    6b48:	6341      	str	r1, [r0, #52]	; 0x34
}
    6b4a:	4770      	bx	lr

00006b4c <ADCIntUnregister>:
//! \return None.
//
//*****************************************************************************
void
ADCIntUnregister(unsigned long ulBase, unsigned long ulSequenceNum)
{
    6b4c:	b510      	push	{r4, lr}
    ASSERT(ulSequenceNum < 4);

    //
    // Determine the interrupt to unregister based on the sequence number.
    //
    ulInt = INT_ADC0 + ulSequenceNum;
    6b4e:	f101 041e 	add.w	r4, r1, #30

    //
    // Disable the interrupt.
    //
    IntDisable(ulInt);
    6b52:	4620      	mov	r0, r4
    6b54:	f000 fb7c 	bl	7250 <IntDisable>

    //
    // Unregister the interrupt handler.
    //
    IntUnregister(ulInt);
    6b58:	4620      	mov	r0, r4
}
    6b5a:	e8bd 4010 	ldmia.w	sp!, {r4, lr}
    IntDisable(ulInt);

    //
    // Unregister the interrupt handler.
    //
    IntUnregister(ulInt);
    6b5e:	f000 baef 	b.w	7140 <IntUnregister>

00006b62 <ADCIntRegister>:
//
//*****************************************************************************
void
ADCIntRegister(unsigned long ulBase, unsigned long ulSequenceNum,
               void (*pfnHandler)(void))
{
    6b62:	b510      	push	{r4, lr}
    ASSERT(ulSequenceNum < 4);

    //
    // Determine the interrupt to register based on the sequence number.
    //
    ulInt = INT_ADC0 + ulSequenceNum;
    6b64:	f101 041e 	add.w	r4, r1, #30

    //
    // Register the interrupt handler.
    //
    IntRegister(ulInt, pfnHandler);
    6b68:	4620      	mov	r0, r4
    6b6a:	4611      	mov	r1, r2
    6b6c:	f000 facf 	bl	710e <IntRegister>

    //
    // Enable the timer interrupt.
    //
    IntEnable(ulInt);
    6b70:	4620      	mov	r0, r4
}
    6b72:	e8bd 4010 	ldmia.w	sp!, {r4, lr}
    IntRegister(ulInt, pfnHandler);

    //
    // Enable the timer interrupt.
    //
    IntEnable(ulInt);
    6b76:	f000 bb33 	b.w	71e0 <IntEnable>
    6b7a:	bf00      	nop

00006b7c <CPUcpsid>:
    unsigned long ulRet;

    //
    // Read PRIMASK and disable interrupts.
    //
    __asm("    mrs     %0, PRIMASK\n"
    6b7c:	f3ef 8010 	mrs	r0, PRIMASK
    6b80:	b672      	cpsid	i
    6b82:	4770      	bx	lr

00006b84 <CPUcpsie>:
    unsigned long ulRet;

    //
    // Read PRIMASK and enable interrupts.
    //
    __asm("    mrs     %0, PRIMASK\n"
    6b84:	f3ef 8010 	mrs	r0, PRIMASK
    6b88:	b662      	cpsie	i
    6b8a:	4770      	bx	lr

00006b8c <CPUwfi>:
CPUwfi(void)
{
    //
    // Wait for the next interrupt.
    //
    __asm("    wfi\n"
    6b8c:	bf30      	wfi
    6b8e:	4770      	bx	lr

00006b90 <GPIOGetIntNumber>:
    unsigned int ulInt;

    //
    // Determine the GPIO interrupt number for the given module.
    //
    switch(ulPort)
    6b90:	4b2a      	ldr	r3, [pc, #168]	; (6c3c <GPIOGetIntNumber+0xac>)
    6b92:	4298      	cmp	r0, r3
    6b94:	d04f      	beq.n	6c36 <GPIOGetIntNumber+0xa6>
    6b96:	d81a      	bhi.n	6bce <GPIOGetIntNumber+0x3e>
    6b98:	4b29      	ldr	r3, [pc, #164]	; (6c40 <GPIOGetIntNumber+0xb0>)
    6b9a:	4298      	cmp	r0, r3
    6b9c:	d041      	beq.n	6c22 <GPIOGetIntNumber+0x92>
    6b9e:	d807      	bhi.n	6bb0 <GPIOGetIntNumber+0x20>
    6ba0:	4b28      	ldr	r3, [pc, #160]	; (6c44 <GPIOGetIntNumber+0xb4>)
    6ba2:	4298      	cmp	r0, r3
    6ba4:	d037      	beq.n	6c16 <GPIOGetIntNumber+0x86>
    6ba6:	4b28      	ldr	r3, [pc, #160]	; (6c48 <GPIOGetIntNumber+0xb8>)
    6ba8:	4298      	cmp	r0, r3
    6baa:	d038      	beq.n	6c1e <GPIOGetIntNumber+0x8e>
    6bac:	4b27      	ldr	r3, [pc, #156]	; (6c4c <GPIOGetIntNumber+0xbc>)
    6bae:	e017      	b.n	6be0 <GPIOGetIntNumber+0x50>
    6bb0:	4b27      	ldr	r3, [pc, #156]	; (6c50 <GPIOGetIntNumber+0xc0>)
    6bb2:	4298      	cmp	r0, r3
    6bb4:	d039      	beq.n	6c2a <GPIOGetIntNumber+0x9a>
    6bb6:	d803      	bhi.n	6bc0 <GPIOGetIntNumber+0x30>
    6bb8:	4b26      	ldr	r3, [pc, #152]	; (6c54 <GPIOGetIntNumber+0xc4>)
    6bba:	4298      	cmp	r0, r3
    6bbc:	d128      	bne.n	6c10 <GPIOGetIntNumber+0x80>
    6bbe:	e032      	b.n	6c26 <GPIOGetIntNumber+0x96>
    6bc0:	4b25      	ldr	r3, [pc, #148]	; (6c58 <GPIOGetIntNumber+0xc8>)
    6bc2:	4298      	cmp	r0, r3
    6bc4:	d033      	beq.n	6c2e <GPIOGetIntNumber+0x9e>
    6bc6:	4b25      	ldr	r3, [pc, #148]	; (6c5c <GPIOGetIntNumber+0xcc>)
    6bc8:	4298      	cmp	r0, r3
    6bca:	d121      	bne.n	6c10 <GPIOGetIntNumber+0x80>
    6bcc:	e031      	b.n	6c32 <GPIOGetIntNumber+0xa2>
    6bce:	4b24      	ldr	r3, [pc, #144]	; (6c60 <GPIOGetIntNumber+0xd0>)
    6bd0:	4298      	cmp	r0, r3
    6bd2:	d028      	beq.n	6c26 <GPIOGetIntNumber+0x96>
    6bd4:	d80e      	bhi.n	6bf4 <GPIOGetIntNumber+0x64>
    6bd6:	4b23      	ldr	r3, [pc, #140]	; (6c64 <GPIOGetIntNumber+0xd4>)
    6bd8:	4298      	cmp	r0, r3
    6bda:	d01c      	beq.n	6c16 <GPIOGetIntNumber+0x86>
    6bdc:	d803      	bhi.n	6be6 <GPIOGetIntNumber+0x56>
    6bde:	4b22      	ldr	r3, [pc, #136]	; (6c68 <GPIOGetIntNumber+0xd8>)
    6be0:	4298      	cmp	r0, r3
    6be2:	d115      	bne.n	6c10 <GPIOGetIntNumber+0x80>
    6be4:	e019      	b.n	6c1a <GPIOGetIntNumber+0x8a>
    6be6:	4b21      	ldr	r3, [pc, #132]	; (6c6c <GPIOGetIntNumber+0xdc>)
    6be8:	4298      	cmp	r0, r3
    6bea:	d018      	beq.n	6c1e <GPIOGetIntNumber+0x8e>
    6bec:	4b20      	ldr	r3, [pc, #128]	; (6c70 <GPIOGetIntNumber+0xe0>)
    6bee:	4298      	cmp	r0, r3
    6bf0:	d10e      	bne.n	6c10 <GPIOGetIntNumber+0x80>
    6bf2:	e016      	b.n	6c22 <GPIOGetIntNumber+0x92>
    6bf4:	4b1f      	ldr	r3, [pc, #124]	; (6c74 <GPIOGetIntNumber+0xe4>)
    6bf6:	4298      	cmp	r0, r3
    6bf8:	d019      	beq.n	6c2e <GPIOGetIntNumber+0x9e>
    6bfa:	d803      	bhi.n	6c04 <GPIOGetIntNumber+0x74>
    6bfc:	4b1e      	ldr	r3, [pc, #120]	; (6c78 <GPIOGetIntNumber+0xe8>)
    6bfe:	4298      	cmp	r0, r3
    6c00:	d106      	bne.n	6c10 <GPIOGetIntNumber+0x80>
    6c02:	e012      	b.n	6c2a <GPIOGetIntNumber+0x9a>
    6c04:	4b1d      	ldr	r3, [pc, #116]	; (6c7c <GPIOGetIntNumber+0xec>)
    6c06:	4298      	cmp	r0, r3
    6c08:	d013      	beq.n	6c32 <GPIOGetIntNumber+0xa2>
    6c0a:	4b1d      	ldr	r3, [pc, #116]	; (6c80 <GPIOGetIntNumber+0xf0>)
    6c0c:	4298      	cmp	r0, r3
    6c0e:	d012      	beq.n	6c36 <GPIOGetIntNumber+0xa6>
    6c10:	f04f 30ff 	mov.w	r0, #4294967295
    6c14:	4770      	bx	lr
    6c16:	2011      	movs	r0, #17
    6c18:	4770      	bx	lr
    6c1a:	2010      	movs	r0, #16
    6c1c:	4770      	bx	lr
    6c1e:	2012      	movs	r0, #18

        case GPIO_PORTC_BASE:
        case GPIO_PORTC_AHB_BASE:
        {
            ulInt = INT_GPIOC;
            break;
    6c20:	4770      	bx	lr
    6c22:	2013      	movs	r0, #19

        case GPIO_PORTD_BASE:
        case GPIO_PORTD_AHB_BASE:
        {
            ulInt = INT_GPIOD;
            break;
    6c24:	4770      	bx	lr
    6c26:	2014      	movs	r0, #20

        case GPIO_PORTE_BASE:
        case GPIO_PORTE_AHB_BASE:
        {
            ulInt = INT_GPIOE;
            break;
    6c28:	4770      	bx	lr
    6c2a:	202e      	movs	r0, #46	; 0x2e

        case GPIO_PORTF_BASE:
        case GPIO_PORTF_AHB_BASE:
        {
            ulInt = INT_GPIOF;
            break;
    6c2c:	4770      	bx	lr
    6c2e:	202f      	movs	r0, #47	; 0x2f

        case GPIO_PORTG_BASE:
        case GPIO_PORTG_AHB_BASE:
        {
            ulInt = INT_GPIOG;
            break;
    6c30:	4770      	bx	lr
    6c32:	2030      	movs	r0, #48	; 0x30

        case GPIO_PORTH_BASE:
        case GPIO_PORTH_AHB_BASE:
        {
            ulInt = INT_GPIOH;
            break;
    6c34:	4770      	bx	lr
    6c36:	2046      	movs	r0, #70	; 0x46

    //
    // Return GPIO interrupt number.
    //
    return(ulInt);
}
    6c38:	4770      	bx	lr
    6c3a:	bf00      	nop
    6c3c:	4003d000 	.word	0x4003d000
    6c40:	40007000 	.word	0x40007000
    6c44:	40005000 	.word	0x40005000
    6c48:	40006000 	.word	0x40006000
    6c4c:	40004000 	.word	0x40004000
    6c50:	40025000 	.word	0x40025000
    6c54:	40024000 	.word	0x40024000
    6c58:	40026000 	.word	0x40026000
    6c5c:	40027000 	.word	0x40027000
    6c60:	4005c000 	.word	0x4005c000
    6c64:	40059000 	.word	0x40059000
    6c68:	40058000 	.word	0x40058000
    6c6c:	4005a000 	.word	0x4005a000
    6c70:	4005b000 	.word	0x4005b000
    6c74:	4005e000 	.word	0x4005e000
    6c78:	4005d000 	.word	0x4005d000
    6c7c:	4005f000 	.word	0x4005f000
    6c80:	40060000 	.word	0x40060000

00006c84 <GPIODirModeSet>:
           (ulPinIO == GPIO_DIR_MODE_HW));

    //
    // Set the pin direction and mode.
    //
    HWREG(ulPort + GPIO_O_DIR) = ((ulPinIO & 1) ?
    6c84:	f012 0f01 	tst.w	r2, #1
//
//*****************************************************************************
void
GPIODirModeSet(unsigned long ulPort, unsigned char ucPins,
               unsigned long ulPinIO)
{
    6c88:	b510      	push	{r4, lr}

    //
    // Set the pin direction and mode.
    //
    HWREG(ulPort + GPIO_O_DIR) = ((ulPinIO & 1) ?
                                  (HWREG(ulPort + GPIO_O_DIR) | ucPins) :
    6c8a:	f8d0 3400 	ldr.w	r3, [r0, #1024]	; 0x400
    6c8e:	f500 6480 	add.w	r4, r0, #1024	; 0x400
           (ulPinIO == GPIO_DIR_MODE_HW));

    //
    // Set the pin direction and mode.
    //
    HWREG(ulPort + GPIO_O_DIR) = ((ulPinIO & 1) ?
    6c92:	d001      	beq.n	6c98 <GPIODirModeSet+0x14>
    6c94:	430b      	orrs	r3, r1
    6c96:	e001      	b.n	6c9c <GPIODirModeSet+0x18>
    6c98:	ea23 0301 	bic.w	r3, r3, r1
    6c9c:	6023      	str	r3, [r4, #0]
                                  (HWREG(ulPort + GPIO_O_DIR) | ucPins) :
                                  (HWREG(ulPort + GPIO_O_DIR) & ~(ucPins)));
    HWREG(ulPort + GPIO_O_AFSEL) = ((ulPinIO & 2) ?
    6c9e:	f012 0f02 	tst.w	r2, #2
                                    (HWREG(ulPort + GPIO_O_AFSEL) | ucPins) :
    6ca2:	f8d0 2420 	ldr.w	r2, [r0, #1056]	; 0x420
    6ca6:	f500 6384 	add.w	r3, r0, #1056	; 0x420
    // Set the pin direction and mode.
    //
    HWREG(ulPort + GPIO_O_DIR) = ((ulPinIO & 1) ?
                                  (HWREG(ulPort + GPIO_O_DIR) | ucPins) :
                                  (HWREG(ulPort + GPIO_O_DIR) & ~(ucPins)));
    HWREG(ulPort + GPIO_O_AFSEL) = ((ulPinIO & 2) ?
    6caa:	bf14      	ite	ne
    6cac:	4311      	orrne	r1, r2
    6cae:	ea22 0101 	biceq.w	r1, r2, r1
    6cb2:	6019      	str	r1, [r3, #0]
                                    (HWREG(ulPort + GPIO_O_AFSEL) | ucPins) :
                                    (HWREG(ulPort + GPIO_O_AFSEL) &
                                     ~(ucPins)));
}
    6cb4:	bd10      	pop	{r4, pc}

00006cb6 <GPIODirModeGet>:
    ASSERT(ucPin < 8);

    //
    // Convert from a pin number to a bit position.
    //
    ucPin = 1 << ucPin;
    6cb6:	2301      	movs	r3, #1
    6cb8:	408b      	lsls	r3, r1
//! GPIODirModeSet().
//
//*****************************************************************************
unsigned long
GPIODirModeGet(unsigned long ulPort, unsigned char ucPin)
{
    6cba:	b510      	push	{r4, lr}
    ucPin = 1 << ucPin;

    //
    // Return the pin direction and mode.
    //
    ulDir = HWREG(ulPort + GPIO_O_DIR);
    6cbc:	f8d0 4400 	ldr.w	r4, [r0, #1024]	; 0x400
    ulAFSEL = HWREG(ulPort + GPIO_O_AFSEL);
    6cc0:	f8d0 2420 	ldr.w	r2, [r0, #1056]	; 0x420
    return(((ulDir & ucPin) ? 1 : 0) | ((ulAFSEL & ucPin) ? 2 : 0));
    6cc4:	b2db      	uxtb	r3, r3
    6cc6:	401a      	ands	r2, r3
    6cc8:	bf0c      	ite	eq
    6cca:	4610      	moveq	r0, r2
    6ccc:	2002      	movne	r0, #2
    6cce:	4223      	tst	r3, r4
}
    6cd0:	bf18      	it	ne
    6cd2:	f040 0001 	orrne.w	r0, r0, #1
    6cd6:	bd10      	pop	{r4, pc}

00006cd8 <GPIOIntTypeSet>:
           (ulIntType == GPIO_LOW_LEVEL) || (ulIntType == GPIO_HIGH_LEVEL));

    //
    // Set the pin interrupt type.
    //
    HWREG(ulPort + GPIO_O_IBE) = ((ulIntType & 1) ?
    6cd8:	f012 0f01 	tst.w	r2, #1
//
//*****************************************************************************
void
GPIOIntTypeSet(unsigned long ulPort, unsigned char ucPins,
               unsigned long ulIntType)
{
    6cdc:	b510      	push	{r4, lr}

    //
    // Set the pin interrupt type.
    //
    HWREG(ulPort + GPIO_O_IBE) = ((ulIntType & 1) ?
                                  (HWREG(ulPort + GPIO_O_IBE) | ucPins) :
    6cde:	f8d0 3408 	ldr.w	r3, [r0, #1032]	; 0x408
    6ce2:	f500 6481 	add.w	r4, r0, #1032	; 0x408
           (ulIntType == GPIO_LOW_LEVEL) || (ulIntType == GPIO_HIGH_LEVEL));

    //
    // Set the pin interrupt type.
    //
    HWREG(ulPort + GPIO_O_IBE) = ((ulIntType & 1) ?
    6ce6:	d001      	beq.n	6cec <GPIOIntTypeSet+0x14>
    6ce8:	430b      	orrs	r3, r1
    6cea:	e001      	b.n	6cf0 <GPIOIntTypeSet+0x18>
    6cec:	ea23 0301 	bic.w	r3, r3, r1
    6cf0:	6023      	str	r3, [r4, #0]
                                  (HWREG(ulPort + GPIO_O_IBE) | ucPins) :
                                  (HWREG(ulPort + GPIO_O_IBE) & ~(ucPins)));
    HWREG(ulPort + GPIO_O_IS) = ((ulIntType & 2) ?
    6cf2:	f012 0f02 	tst.w	r2, #2
    6cf6:	f500 6380 	add.w	r3, r0, #1024	; 0x400
    6cfa:	f103 0304 	add.w	r3, r3, #4
                                 (HWREG(ulPort + GPIO_O_IS) | ucPins) :
    6cfe:	f8d0 4404 	ldr.w	r4, [r0, #1028]	; 0x404
    // Set the pin interrupt type.
    //
    HWREG(ulPort + GPIO_O_IBE) = ((ulIntType & 1) ?
                                  (HWREG(ulPort + GPIO_O_IBE) | ucPins) :
                                  (HWREG(ulPort + GPIO_O_IBE) & ~(ucPins)));
    HWREG(ulPort + GPIO_O_IS) = ((ulIntType & 2) ?
    6d02:	d001      	beq.n	6d08 <GPIOIntTypeSet+0x30>
    6d04:	430c      	orrs	r4, r1
    6d06:	e001      	b.n	6d0c <GPIOIntTypeSet+0x34>
    6d08:	ea24 0401 	bic.w	r4, r4, r1
    6d0c:	601c      	str	r4, [r3, #0]
                                 (HWREG(ulPort + GPIO_O_IS) | ucPins) :
                                 (HWREG(ulPort + GPIO_O_IS) & ~(ucPins)));
    HWREG(ulPort + GPIO_O_IEV) = ((ulIntType & 4) ?
    6d0e:	f012 0f04 	tst.w	r2, #4
                                  (HWREG(ulPort + GPIO_O_IEV) | ucPins) :
    6d12:	f8d0 240c 	ldr.w	r2, [r0, #1036]	; 0x40c
    6d16:	f500 6380 	add.w	r3, r0, #1024	; 0x400
    6d1a:	f103 030c 	add.w	r3, r3, #12
                                  (HWREG(ulPort + GPIO_O_IBE) | ucPins) :
                                  (HWREG(ulPort + GPIO_O_IBE) & ~(ucPins)));
    HWREG(ulPort + GPIO_O_IS) = ((ulIntType & 2) ?
                                 (HWREG(ulPort + GPIO_O_IS) | ucPins) :
                                 (HWREG(ulPort + GPIO_O_IS) & ~(ucPins)));
    HWREG(ulPort + GPIO_O_IEV) = ((ulIntType & 4) ?
    6d1e:	bf14      	ite	ne
    6d20:	4311      	orrne	r1, r2
    6d22:	ea22 0101 	biceq.w	r1, r2, r1
    6d26:	6019      	str	r1, [r3, #0]
                                  (HWREG(ulPort + GPIO_O_IEV) | ucPins) :
                                  (HWREG(ulPort + GPIO_O_IEV) & ~(ucPins)));
}
    6d28:	bd10      	pop	{r4, pc}

00006d2a <GPIOIntTypeGet>:
    ASSERT(ucPin < 8);

    //
    // Convert from a pin number to a bit position.
    //
    ucPin = 1 << ucPin;
    6d2a:	2301      	movs	r3, #1
    6d2c:	408b      	lsls	r3, r1
//! GPIOIntTypeSet().
//
//*****************************************************************************
unsigned long
GPIOIntTypeGet(unsigned long ulPort, unsigned char ucPin)
{
    6d2e:	b530      	push	{r4, r5, lr}
    ucPin = 1 << ucPin;

    //
    // Return the pin interrupt type.
    //
    ulIBE = HWREG(ulPort + GPIO_O_IBE);
    6d30:	f8d0 5408 	ldr.w	r5, [r0, #1032]	; 0x408
    ulIS = HWREG(ulPort + GPIO_O_IS);
    6d34:	f8d0 4404 	ldr.w	r4, [r0, #1028]	; 0x404
    ulIEV = HWREG(ulPort + GPIO_O_IEV);
    return(((ulIBE & ucPin) ? 1 : 0) | ((ulIS & ucPin) ? 2 : 0) |
    6d38:	b2db      	uxtb	r3, r3
    //
    // Return the pin interrupt type.
    //
    ulIBE = HWREG(ulPort + GPIO_O_IBE);
    ulIS = HWREG(ulPort + GPIO_O_IS);
    ulIEV = HWREG(ulPort + GPIO_O_IEV);
    6d3a:	f8d0 240c 	ldr.w	r2, [r0, #1036]	; 0x40c
    return(((ulIBE & ucPin) ? 1 : 0) | ((ulIS & ucPin) ? 2 : 0) |
    6d3e:	ea13 0004 	ands.w	r0, r3, r4
    6d42:	bf18      	it	ne
    6d44:	2002      	movne	r0, #2
    6d46:	401a      	ands	r2, r3
    6d48:	bf18      	it	ne
    6d4a:	2204      	movne	r2, #4
    6d4c:	422b      	tst	r3, r5
    6d4e:	bf18      	it	ne
    6d50:	f040 0001 	orrne.w	r0, r0, #1
           ((ulIEV & ucPin) ? 4 : 0));
}
    6d54:	4310      	orrs	r0, r2
    6d56:	bd30      	pop	{r4, r5, pc}

00006d58 <GPIOPadConfigSet>:
           (ulPinType == GPIO_PIN_TYPE_ANALOG))

    //
    // Set the output drive strength.
    //
    HWREG(ulPort + GPIO_O_DR2R) = ((ulStrength & 1) ?
    6d58:	f012 0f01 	tst.w	r2, #1
//
//*****************************************************************************
void
GPIOPadConfigSet(unsigned long ulPort, unsigned char ucPins,
                 unsigned long ulStrength, unsigned long ulPinType)
{
    6d5c:	b530      	push	{r4, r5, lr}
    6d5e:	f500 65a0 	add.w	r5, r0, #1280	; 0x500

    //
    // Set the output drive strength.
    //
    HWREG(ulPort + GPIO_O_DR2R) = ((ulStrength & 1) ?
                                   (HWREG(ulPort + GPIO_O_DR2R) | ucPins) :
    6d62:	f8d0 4500 	ldr.w	r4, [r0, #1280]	; 0x500
           (ulPinType == GPIO_PIN_TYPE_ANALOG))

    //
    // Set the output drive strength.
    //
    HWREG(ulPort + GPIO_O_DR2R) = ((ulStrength & 1) ?
    6d66:	d001      	beq.n	6d6c <GPIOPadConfigSet+0x14>
    6d68:	430c      	orrs	r4, r1
    6d6a:	e001      	b.n	6d70 <GPIOPadConfigSet+0x18>
    6d6c:	ea24 0401 	bic.w	r4, r4, r1
    6d70:	602c      	str	r4, [r5, #0]
                                   (HWREG(ulPort + GPIO_O_DR2R) | ucPins) :
                                   (HWREG(ulPort + GPIO_O_DR2R) & ~(ucPins)));
    HWREG(ulPort + GPIO_O_DR4R) = ((ulStrength & 2) ?
    6d72:	f012 0f02 	tst.w	r2, #2
    6d76:	f500 64a0 	add.w	r4, r0, #1280	; 0x500
    6d7a:	f104 0404 	add.w	r4, r4, #4
                                   (HWREG(ulPort + GPIO_O_DR4R) | ucPins) :
    6d7e:	f8d0 5504 	ldr.w	r5, [r0, #1284]	; 0x504
    // Set the output drive strength.
    //
    HWREG(ulPort + GPIO_O_DR2R) = ((ulStrength & 1) ?
                                   (HWREG(ulPort + GPIO_O_DR2R) | ucPins) :
                                   (HWREG(ulPort + GPIO_O_DR2R) & ~(ucPins)));
    HWREG(ulPort + GPIO_O_DR4R) = ((ulStrength & 2) ?
    6d82:	d001      	beq.n	6d88 <GPIOPadConfigSet+0x30>
    6d84:	430d      	orrs	r5, r1
    6d86:	e001      	b.n	6d8c <GPIOPadConfigSet+0x34>
    6d88:	ea25 0501 	bic.w	r5, r5, r1
    6d8c:	6025      	str	r5, [r4, #0]
                                   (HWREG(ulPort + GPIO_O_DR4R) | ucPins) :
                                   (HWREG(ulPort + GPIO_O_DR4R) & ~(ucPins)));
    HWREG(ulPort + GPIO_O_DR8R) = ((ulStrength & 4) ?
    6d8e:	f012 0f04 	tst.w	r2, #4
    6d92:	f500 65a1 	add.w	r5, r0, #1288	; 0x508
                                   (HWREG(ulPort + GPIO_O_DR8R) | ucPins) :
    6d96:	f8d0 4508 	ldr.w	r4, [r0, #1288]	; 0x508
                                   (HWREG(ulPort + GPIO_O_DR2R) | ucPins) :
                                   (HWREG(ulPort + GPIO_O_DR2R) & ~(ucPins)));
    HWREG(ulPort + GPIO_O_DR4R) = ((ulStrength & 2) ?
                                   (HWREG(ulPort + GPIO_O_DR4R) | ucPins) :
                                   (HWREG(ulPort + GPIO_O_DR4R) & ~(ucPins)));
    HWREG(ulPort + GPIO_O_DR8R) = ((ulStrength & 4) ?
    6d9a:	d001      	beq.n	6da0 <GPIOPadConfigSet+0x48>
    6d9c:	430c      	orrs	r4, r1
    6d9e:	e001      	b.n	6da4 <GPIOPadConfigSet+0x4c>
    6da0:	ea24 0401 	bic.w	r4, r4, r1
    6da4:	602c      	str	r4, [r5, #0]
                                   (HWREG(ulPort + GPIO_O_DR8R) | ucPins) :
                                   (HWREG(ulPort + GPIO_O_DR8R) & ~(ucPins)));
    HWREG(ulPort + GPIO_O_SLR) = ((ulStrength & 8) ?
    6da6:	f012 0f08 	tst.w	r2, #8
    6daa:	f500 64a3 	add.w	r4, r0, #1304	; 0x518
                                  (HWREG(ulPort + GPIO_O_SLR) | ucPins) :
    6dae:	f8d0 2518 	ldr.w	r2, [r0, #1304]	; 0x518
                                   (HWREG(ulPort + GPIO_O_DR4R) | ucPins) :
                                   (HWREG(ulPort + GPIO_O_DR4R) & ~(ucPins)));
    HWREG(ulPort + GPIO_O_DR8R) = ((ulStrength & 4) ?
                                   (HWREG(ulPort + GPIO_O_DR8R) | ucPins) :
                                   (HWREG(ulPort + GPIO_O_DR8R) & ~(ucPins)));
    HWREG(ulPort + GPIO_O_SLR) = ((ulStrength & 8) ?
    6db2:	d001      	beq.n	6db8 <GPIOPadConfigSet+0x60>
    6db4:	430a      	orrs	r2, r1
    6db6:	e001      	b.n	6dbc <GPIOPadConfigSet+0x64>
    6db8:	ea22 0201 	bic.w	r2, r2, r1
    6dbc:	6022      	str	r2, [r4, #0]
                                  (HWREG(ulPort + GPIO_O_SLR) & ~(ucPins)));

    //
    // Set the pin type.
    //
    HWREG(ulPort + GPIO_O_ODR) = ((ulPinType & 1) ?
    6dbe:	f013 0f01 	tst.w	r3, #1
    6dc2:	f500 62a0 	add.w	r2, r0, #1280	; 0x500
    6dc6:	f102 020c 	add.w	r2, r2, #12
                                  (HWREG(ulPort + GPIO_O_ODR) | ucPins) :
    6dca:	f8d0 450c 	ldr.w	r4, [r0, #1292]	; 0x50c
                                  (HWREG(ulPort + GPIO_O_SLR) & ~(ucPins)));

    //
    // Set the pin type.
    //
    HWREG(ulPort + GPIO_O_ODR) = ((ulPinType & 1) ?
    6dce:	d001      	beq.n	6dd4 <GPIOPadConfigSet+0x7c>
    6dd0:	430c      	orrs	r4, r1
    6dd2:	e001      	b.n	6dd8 <GPIOPadConfigSet+0x80>
    6dd4:	ea24 0401 	bic.w	r4, r4, r1
    6dd8:	6014      	str	r4, [r2, #0]
                                  (HWREG(ulPort + GPIO_O_ODR) | ucPins) :
                                  (HWREG(ulPort + GPIO_O_ODR) & ~(ucPins)));
    HWREG(ulPort + GPIO_O_PUR) = ((ulPinType & 2) ?
    6dda:	f013 0f02 	tst.w	r3, #2
    6dde:	f500 64a2 	add.w	r4, r0, #1296	; 0x510
                                  (HWREG(ulPort + GPIO_O_PUR) | ucPins) :
    6de2:	f8d0 2510 	ldr.w	r2, [r0, #1296]	; 0x510
    // Set the pin type.
    //
    HWREG(ulPort + GPIO_O_ODR) = ((ulPinType & 1) ?
                                  (HWREG(ulPort + GPIO_O_ODR) | ucPins) :
                                  (HWREG(ulPort + GPIO_O_ODR) & ~(ucPins)));
    HWREG(ulPort + GPIO_O_PUR) = ((ulPinType & 2) ?
    6de6:	d001      	beq.n	6dec <GPIOPadConfigSet+0x94>
    6de8:	430a      	orrs	r2, r1
    6dea:	e001      	b.n	6df0 <GPIOPadConfigSet+0x98>
    6dec:	ea22 0201 	bic.w	r2, r2, r1
    6df0:	6022      	str	r2, [r4, #0]
                                  (HWREG(ulPort + GPIO_O_PUR) | ucPins) :
                                  (HWREG(ulPort + GPIO_O_PUR) & ~(ucPins)));
    HWREG(ulPort + GPIO_O_PDR) = ((ulPinType & 4) ?
    6df2:	f013 0f04 	tst.w	r3, #4
    6df6:	f500 62a2 	add.w	r2, r0, #1296	; 0x510
    6dfa:	f102 0204 	add.w	r2, r2, #4
                                  (HWREG(ulPort + GPIO_O_PDR) | ucPins) :
    6dfe:	f8d0 4514 	ldr.w	r4, [r0, #1300]	; 0x514
                                  (HWREG(ulPort + GPIO_O_ODR) | ucPins) :
                                  (HWREG(ulPort + GPIO_O_ODR) & ~(ucPins)));
    HWREG(ulPort + GPIO_O_PUR) = ((ulPinType & 2) ?
                                  (HWREG(ulPort + GPIO_O_PUR) | ucPins) :
                                  (HWREG(ulPort + GPIO_O_PUR) & ~(ucPins)));
    HWREG(ulPort + GPIO_O_PDR) = ((ulPinType & 4) ?
    6e02:	d001      	beq.n	6e08 <GPIOPadConfigSet+0xb0>
    6e04:	430c      	orrs	r4, r1
    6e06:	e001      	b.n	6e0c <GPIOPadConfigSet+0xb4>
    6e08:	ea24 0401 	bic.w	r4, r4, r1
    6e0c:	6014      	str	r4, [r2, #0]
                                  (HWREG(ulPort + GPIO_O_PDR) | ucPins) :
                                  (HWREG(ulPort + GPIO_O_PDR) & ~(ucPins)));
    HWREG(ulPort + GPIO_O_DEN) = ((ulPinType & 8) ?
    6e0e:	f013 0f08 	tst.w	r3, #8
    6e12:	f500 62a2 	add.w	r2, r0, #1296	; 0x510
    6e16:	f102 020c 	add.w	r2, r2, #12
                                  (HWREG(ulPort + GPIO_O_DEN) | ucPins) :
    6e1a:	f8d0 451c 	ldr.w	r4, [r0, #1308]	; 0x51c
                                  (HWREG(ulPort + GPIO_O_PUR) | ucPins) :
                                  (HWREG(ulPort + GPIO_O_PUR) & ~(ucPins)));
    HWREG(ulPort + GPIO_O_PDR) = ((ulPinType & 4) ?
                                  (HWREG(ulPort + GPIO_O_PDR) | ucPins) :
                                  (HWREG(ulPort + GPIO_O_PDR) & ~(ucPins)));
    HWREG(ulPort + GPIO_O_DEN) = ((ulPinType & 8) ?
    6e1e:	d001      	beq.n	6e24 <GPIOPadConfigSet+0xcc>
    6e20:	430c      	orrs	r4, r1
    6e22:	e001      	b.n	6e28 <GPIOPadConfigSet+0xd0>
    6e24:	ea24 0401 	bic.w	r4, r4, r1
    6e28:	6014      	str	r4, [r2, #0]
    6e2a:	f500 62a5 	add.w	r2, r0, #1320	; 0x528
    // Set the analog mode select register.  This register only appears in
    // DustDevil-class (and later) devices, but is a harmless write on
    // Sandstorm- and Fury-class devices.
    //
    HWREG(ulPort + GPIO_O_AMSEL) =
        ((ulPinType == GPIO_PIN_TYPE_ANALOG) ?
    6e2e:	b923      	cbnz	r3, 6e3a <GPIOPadConfigSet+0xe2>
         (HWREG(ulPort + GPIO_O_AMSEL) | ucPins) :
    6e30:	f8d0 3528 	ldr.w	r3, [r0, #1320]	; 0x528
    // Set the analog mode select register.  This register only appears in
    // DustDevil-class (and later) devices, but is a harmless write on
    // Sandstorm- and Fury-class devices.
    //
    HWREG(ulPort + GPIO_O_AMSEL) =
        ((ulPinType == GPIO_PIN_TYPE_ANALOG) ?
    6e34:	ea43 0101 	orr.w	r1, r3, r1
    6e38:	e003      	b.n	6e42 <GPIOPadConfigSet+0xea>
         (HWREG(ulPort + GPIO_O_AMSEL) | ucPins) :
         (HWREG(ulPort + GPIO_O_AMSEL) & ~(ucPins)));
    6e3a:	f8d0 3528 	ldr.w	r3, [r0, #1320]	; 0x528
    // Set the analog mode select register.  This register only appears in
    // DustDevil-class (and later) devices, but is a harmless write on
    // Sandstorm- and Fury-class devices.
    //
    HWREG(ulPort + GPIO_O_AMSEL) =
        ((ulPinType == GPIO_PIN_TYPE_ANALOG) ?
    6e3e:	ea23 0101 	bic.w	r1, r3, r1
    //
    // Set the analog mode select register.  This register only appears in
    // DustDevil-class (and later) devices, but is a harmless write on
    // Sandstorm- and Fury-class devices.
    //
    HWREG(ulPort + GPIO_O_AMSEL) =
    6e42:	6011      	str	r1, [r2, #0]
        ((ulPinType == GPIO_PIN_TYPE_ANALOG) ?
         (HWREG(ulPort + GPIO_O_AMSEL) | ucPins) :
         (HWREG(ulPort + GPIO_O_AMSEL) & ~(ucPins)));
}
    6e44:	bd30      	pop	{r4, r5, pc}

00006e46 <GPIOPadConfigGet>:
    ASSERT(ucPin < 8);

    //
    // Convert from a pin number to a bit position.
    //
    ucPin = (1 << ucPin);
    6e46:	f04f 0c01 	mov.w	ip, #1
    6e4a:	fa0c fc01 	lsl.w	ip, ip, r1
//
//*****************************************************************************
void
GPIOPadConfigGet(unsigned long ulPort, unsigned char ucPin,
                 unsigned long *pulStrength, unsigned long *pulPinType)
{
    6e4e:	b5f0      	push	{r4, r5, r6, r7, lr}
    ucPin = (1 << ucPin);

    //
    // Get the drive strength for this pin.
    //
    ulTemp1 = HWREG(ulPort + GPIO_O_DR2R);
    6e50:	f8d0 7500 	ldr.w	r7, [r0, #1280]	; 0x500
    ulTemp2 = HWREG(ulPort + GPIO_O_DR4R);
    6e54:	f8d0 6504 	ldr.w	r6, [r0, #1284]	; 0x504
    ulTemp3 = HWREG(ulPort + GPIO_O_DR8R);
    ulTemp4 = HWREG(ulPort + GPIO_O_SLR);
    *pulStrength = (((ulTemp1 & ucPin) ? 1 : 0) | ((ulTemp2 & ucPin) ? 2 : 0) |
    6e58:	fa5f fc8c 	uxtb.w	ip, ip
    //
    // Get the drive strength for this pin.
    //
    ulTemp1 = HWREG(ulPort + GPIO_O_DR2R);
    ulTemp2 = HWREG(ulPort + GPIO_O_DR4R);
    ulTemp3 = HWREG(ulPort + GPIO_O_DR8R);
    6e5c:	f8d0 5508 	ldr.w	r5, [r0, #1288]	; 0x508
    ulTemp4 = HWREG(ulPort + GPIO_O_SLR);
    *pulStrength = (((ulTemp1 & ucPin) ? 1 : 0) | ((ulTemp2 & ucPin) ? 2 : 0) |
    6e60:	ea1c 0606 	ands.w	r6, ip, r6
    // Get the drive strength for this pin.
    //
    ulTemp1 = HWREG(ulPort + GPIO_O_DR2R);
    ulTemp2 = HWREG(ulPort + GPIO_O_DR4R);
    ulTemp3 = HWREG(ulPort + GPIO_O_DR8R);
    ulTemp4 = HWREG(ulPort + GPIO_O_SLR);
    6e64:	f8d0 4518 	ldr.w	r4, [r0, #1304]	; 0x518
    *pulStrength = (((ulTemp1 & ucPin) ? 1 : 0) | ((ulTemp2 & ucPin) ? 2 : 0) |
    6e68:	bf18      	it	ne
    6e6a:	2602      	movne	r6, #2
                    ((ulTemp3 & ucPin) ? 4 : 0) | ((ulTemp4 & ucPin) ? 8 : 0));
    6e6c:	ea1c 0505 	ands.w	r5, ip, r5
    6e70:	bf18      	it	ne
    6e72:	2504      	movne	r5, #4
    //
    ulTemp1 = HWREG(ulPort + GPIO_O_DR2R);
    ulTemp2 = HWREG(ulPort + GPIO_O_DR4R);
    ulTemp3 = HWREG(ulPort + GPIO_O_DR8R);
    ulTemp4 = HWREG(ulPort + GPIO_O_SLR);
    *pulStrength = (((ulTemp1 & ucPin) ? 1 : 0) | ((ulTemp2 & ucPin) ? 2 : 0) |
    6e74:	ea1c 0404 	ands.w	r4, ip, r4
    6e78:	bf0c      	ite	eq
    6e7a:	4621      	moveq	r1, r4
    6e7c:	2108      	movne	r1, #8
    6e7e:	ea1c 0f07 	tst.w	ip, r7
    6e82:	bf0c      	ite	eq
    6e84:	4634      	moveq	r4, r6
    6e86:	f046 0401 	orrne.w	r4, r6, #1
    6e8a:	432c      	orrs	r4, r5
    6e8c:	430c      	orrs	r4, r1
    6e8e:	6014      	str	r4, [r2, #0]
                    ((ulTemp3 & ucPin) ? 4 : 0) | ((ulTemp4 & ucPin) ? 8 : 0));

    //
    // Get the pin type.
    //
    ulTemp1 = HWREG(ulPort + GPIO_O_ODR);
    6e90:	f8d0 550c 	ldr.w	r5, [r0, #1292]	; 0x50c
    ulTemp2 = HWREG(ulPort + GPIO_O_PUR);
    6e94:	f8d0 4510 	ldr.w	r4, [r0, #1296]	; 0x510
    ulTemp3 = HWREG(ulPort + GPIO_O_PDR);
    6e98:	f8d0 1514 	ldr.w	r1, [r0, #1300]	; 0x514
    ulTemp4 = HWREG(ulPort + GPIO_O_DEN);
    *pulPinType = (((ulTemp1 & ucPin) ? 1 : 0) | ((ulTemp2 & ucPin) ? 2 : 0) |
    6e9c:	ea1c 0404 	ands.w	r4, ip, r4
    // Get the pin type.
    //
    ulTemp1 = HWREG(ulPort + GPIO_O_ODR);
    ulTemp2 = HWREG(ulPort + GPIO_O_PUR);
    ulTemp3 = HWREG(ulPort + GPIO_O_PDR);
    ulTemp4 = HWREG(ulPort + GPIO_O_DEN);
    6ea0:	f8d0 251c 	ldr.w	r2, [r0, #1308]	; 0x51c
    *pulPinType = (((ulTemp1 & ucPin) ? 1 : 0) | ((ulTemp2 & ucPin) ? 2 : 0) |
    6ea4:	bf18      	it	ne
    6ea6:	2402      	movne	r4, #2
                   ((ulTemp3 & ucPin) ? 4 : 0) | ((ulTemp4 & ucPin) ? 8 : 0));
    6ea8:	ea1c 0101 	ands.w	r1, ip, r1
    6eac:	bf18      	it	ne
    6eae:	2104      	movne	r1, #4
    //
    ulTemp1 = HWREG(ulPort + GPIO_O_ODR);
    ulTemp2 = HWREG(ulPort + GPIO_O_PUR);
    ulTemp3 = HWREG(ulPort + GPIO_O_PDR);
    ulTemp4 = HWREG(ulPort + GPIO_O_DEN);
    *pulPinType = (((ulTemp1 & ucPin) ? 1 : 0) | ((ulTemp2 & ucPin) ? 2 : 0) |
    6eb0:	ea1c 0202 	ands.w	r2, ip, r2
    6eb4:	bf0c      	ite	eq
    6eb6:	4610      	moveq	r0, r2
    6eb8:	2008      	movne	r0, #8
    6eba:	ea1c 0f05 	tst.w	ip, r5
    6ebe:	bf0c      	ite	eq
    6ec0:	4622      	moveq	r2, r4
    6ec2:	f044 0201 	orrne.w	r2, r4, #1
    6ec6:	430a      	orrs	r2, r1
    6ec8:	4302      	orrs	r2, r0
    6eca:	601a      	str	r2, [r3, #0]
                   ((ulTemp3 & ucPin) ? 4 : 0) | ((ulTemp4 & ucPin) ? 8 : 0));
}
    6ecc:	bdf0      	pop	{r4, r5, r6, r7, pc}

00006ece <GPIOPinIntEnable>:
    ASSERT(GPIOBaseValid(ulPort));

    //
    // Enable the interrupts.
    //
    HWREG(ulPort + GPIO_O_IM) |= ucPins;
    6ece:	f8d0 3410 	ldr.w	r3, [r0, #1040]	; 0x410
    6ed2:	430b      	orrs	r3, r1
    6ed4:	f8c0 3410 	str.w	r3, [r0, #1040]	; 0x410
}
    6ed8:	4770      	bx	lr

00006eda <GPIOPinIntDisable>:
    ASSERT(GPIOBaseValid(ulPort));

    //
    // Disable the interrupts.
    //
    HWREG(ulPort + GPIO_O_IM) &= ~(ucPins);
    6eda:	f8d0 3410 	ldr.w	r3, [r0, #1040]	; 0x410
    6ede:	ea23 0301 	bic.w	r3, r3, r1
    6ee2:	f8c0 3410 	str.w	r3, [r0, #1040]	; 0x410
}
    6ee6:	4770      	bx	lr

00006ee8 <GPIOPinIntStatus>:
    ASSERT(GPIOBaseValid(ulPort));

    //
    // Return the interrupt status.
    //
    if(bMasked)
    6ee8:	b111      	cbz	r1, 6ef0 <GPIOPinIntStatus+0x8>
    {
        return(HWREG(ulPort + GPIO_O_MIS));
    6eea:	f8d0 0418 	ldr.w	r0, [r0, #1048]	; 0x418
    6eee:	4770      	bx	lr
    }
    else
    {
        return(HWREG(ulPort + GPIO_O_RIS));
    6ef0:	f8d0 0414 	ldr.w	r0, [r0, #1044]	; 0x414
    }
}
    6ef4:	4770      	bx	lr

00006ef6 <GPIOPinIntClear>:
    ASSERT(GPIOBaseValid(ulPort));

    //
    // Clear the interrupts.
    //
    HWREG(ulPort + GPIO_O_ICR) = ucPins;
    6ef6:	f8c0 141c 	str.w	r1, [r0, #1052]	; 0x41c
}
    6efa:	4770      	bx	lr

00006efc <GPIOPinRead>:
    ASSERT(GPIOBaseValid(ulPort));

    //
    // Return the pin value(s).
    //
    return(HWREG(ulPort + (GPIO_O_DATA + (ucPins << 2))));
    6efc:	f850 0021 	ldr.w	r0, [r0, r1, lsl #2]
}
    6f00:	4770      	bx	lr

00006f02 <GPIOPinWrite>:
    ASSERT(GPIOBaseValid(ulPort));

    //
    // Write the pins.
    //
    HWREG(ulPort + (GPIO_O_DATA + (ucPins << 2))) = ucVal;
    6f02:	f840 2021 	str.w	r2, [r0, r1, lsl #2]
}
    6f06:	4770      	bx	lr

00006f08 <GPIOPinTypeADC>:
//! \return None.
//
//*****************************************************************************
void
GPIOPinTypeADC(unsigned long ulPort, unsigned char ucPins)
{
    6f08:	b570      	push	{r4, r5, r6, lr}
    ASSERT(GPIOBaseValid(ulPort));

    //
    // Make the pin(s) be inputs.
    //
    GPIODirModeSet(ulPort, ucPins, GPIO_DIR_MODE_IN);
    6f0a:	2200      	movs	r2, #0
//! \return None.
//
//*****************************************************************************
void
GPIOPinTypeADC(unsigned long ulPort, unsigned char ucPins)
{
    6f0c:	4605      	mov	r5, r0
    6f0e:	460c      	mov	r4, r1
    ASSERT(GPIOBaseValid(ulPort));

    //
    // Make the pin(s) be inputs.
    //
    GPIODirModeSet(ulPort, ucPins, GPIO_DIR_MODE_IN);
    6f10:	f7ff feb8 	bl	6c84 <GPIODirModeSet>

    //
    // Set the pad(s) for analog operation.
    //
    GPIOPadConfigSet(ulPort, ucPins, GPIO_STRENGTH_2MA, GPIO_PIN_TYPE_ANALOG);
    6f14:	4628      	mov	r0, r5
    6f16:	4621      	mov	r1, r4
    6f18:	2201      	movs	r2, #1
    6f1a:	2300      	movs	r3, #0
}
    6f1c:	e8bd 4070 	ldmia.w	sp!, {r4, r5, r6, lr}
    GPIODirModeSet(ulPort, ucPins, GPIO_DIR_MODE_IN);

    //
    // Set the pad(s) for analog operation.
    //
    GPIOPadConfigSet(ulPort, ucPins, GPIO_STRENGTH_2MA, GPIO_PIN_TYPE_ANALOG);
    6f20:	e71a      	b.n	6d58 <GPIOPadConfigSet>

00006f22 <GPIOPinTypeCAN>:
//! \return None.
//
//*****************************************************************************
void
GPIOPinTypeCAN(unsigned long ulPort, unsigned char ucPins)
{
    6f22:	b570      	push	{r4, r5, r6, lr}
    ASSERT(GPIOBaseValid(ulPort));

    //
    // Make the pin(s) be inputs.
    //
    GPIODirModeSet(ulPort, ucPins, GPIO_DIR_MODE_HW);
    6f24:	2202      	movs	r2, #2
//! \return None.
//
//*****************************************************************************
void
GPIOPinTypeCAN(unsigned long ulPort, unsigned char ucPins)
{
    6f26:	4605      	mov	r5, r0
    6f28:	460c      	mov	r4, r1
    ASSERT(GPIOBaseValid(ulPort));

    //
    // Make the pin(s) be inputs.
    //
    GPIODirModeSet(ulPort, ucPins, GPIO_DIR_MODE_HW);
    6f2a:	f7ff feab 	bl	6c84 <GPIODirModeSet>

    //
    // Set the pad(s) for standard push-pull operation.
    //
    GPIOPadConfigSet(ulPort, ucPins, GPIO_STRENGTH_8MA, GPIO_PIN_TYPE_STD);
    6f2e:	4628      	mov	r0, r5
    6f30:	4621      	mov	r1, r4
    6f32:	2204      	movs	r2, #4
    6f34:	2308      	movs	r3, #8
}
    6f36:	e8bd 4070 	ldmia.w	sp!, {r4, r5, r6, lr}
    GPIODirModeSet(ulPort, ucPins, GPIO_DIR_MODE_HW);

    //
    // Set the pad(s) for standard push-pull operation.
    //
    GPIOPadConfigSet(ulPort, ucPins, GPIO_STRENGTH_8MA, GPIO_PIN_TYPE_STD);
    6f3a:	e70d      	b.n	6d58 <GPIOPadConfigSet>

00006f3c <GPIOPinTypeComparator>:
//! \return None.
//
//*****************************************************************************
void
GPIOPinTypeComparator(unsigned long ulPort, unsigned char ucPins)
{
    6f3c:	b570      	push	{r4, r5, r6, lr}
    ASSERT(GPIOBaseValid(ulPort));

    //
    // Make the pin(s) be inputs.
    //
    GPIODirModeSet(ulPort, ucPins, GPIO_DIR_MODE_IN);
    6f3e:	2200      	movs	r2, #0
//! \return None.
//
//*****************************************************************************
void
GPIOPinTypeComparator(unsigned long ulPort, unsigned char ucPins)
{
    6f40:	4605      	mov	r5, r0
    6f42:	460c      	mov	r4, r1
    ASSERT(GPIOBaseValid(ulPort));

    //
    // Make the pin(s) be inputs.
    //
    GPIODirModeSet(ulPort, ucPins, GPIO_DIR_MODE_IN);
    6f44:	f7ff fe9e 	bl	6c84 <GPIODirModeSet>

    //
    // Set the pad(s) for analog operation.
    //
    GPIOPadConfigSet(ulPort, ucPins, GPIO_STRENGTH_2MA, GPIO_PIN_TYPE_ANALOG);
    6f48:	4628      	mov	r0, r5
    6f4a:	4621      	mov	r1, r4
    6f4c:	2201      	movs	r2, #1
    6f4e:	2300      	movs	r3, #0
}
    6f50:	e8bd 4070 	ldmia.w	sp!, {r4, r5, r6, lr}
    GPIODirModeSet(ulPort, ucPins, GPIO_DIR_MODE_IN);

    //
    // Set the pad(s) for analog operation.
    //
    GPIOPadConfigSet(ulPort, ucPins, GPIO_STRENGTH_2MA, GPIO_PIN_TYPE_ANALOG);
    6f54:	e700      	b.n	6d58 <GPIOPadConfigSet>

00006f56 <GPIOPinTypeGPIOInput>:
//! \return None.
//
//*****************************************************************************
void
GPIOPinTypeGPIOInput(unsigned long ulPort, unsigned char ucPins)
{
    6f56:	b570      	push	{r4, r5, r6, lr}
    ASSERT(GPIOBaseValid(ulPort));

    //
    // Make the pin(s) be inputs.
    //
    GPIODirModeSet(ulPort, ucPins, GPIO_DIR_MODE_IN);
    6f58:	2200      	movs	r2, #0
//! \return None.
//
//*****************************************************************************
void
GPIOPinTypeGPIOInput(unsigned long ulPort, unsigned char ucPins)
{
    6f5a:	4605      	mov	r5, r0
    6f5c:	460c      	mov	r4, r1
    ASSERT(GPIOBaseValid(ulPort));

    //
    // Make the pin(s) be inputs.
    //
    GPIODirModeSet(ulPort, ucPins, GPIO_DIR_MODE_IN);
    6f5e:	f7ff fe91 	bl	6c84 <GPIODirModeSet>

    //
    // Set the pad(s) for standard push-pull operation.
    //
    GPIOPadConfigSet(ulPort, ucPins, GPIO_STRENGTH_2MA, GPIO_PIN_TYPE_STD);
    6f62:	4628      	mov	r0, r5
    6f64:	4621      	mov	r1, r4
    6f66:	2201      	movs	r2, #1
    6f68:	2308      	movs	r3, #8
}
    6f6a:	e8bd 4070 	ldmia.w	sp!, {r4, r5, r6, lr}
    GPIODirModeSet(ulPort, ucPins, GPIO_DIR_MODE_IN);

    //
    // Set the pad(s) for standard push-pull operation.
    //
    GPIOPadConfigSet(ulPort, ucPins, GPIO_STRENGTH_2MA, GPIO_PIN_TYPE_STD);
    6f6e:	e6f3      	b.n	6d58 <GPIOPadConfigSet>

00006f70 <GPIOPinTypeGPIOOutput>:
//! \return None.
//
//*****************************************************************************
void
GPIOPinTypeGPIOOutput(unsigned long ulPort, unsigned char ucPins)
{
    6f70:	b570      	push	{r4, r5, r6, lr}
    ASSERT(GPIOBaseValid(ulPort));

    //
    // Make the pin(s) be outputs.
    //
    GPIODirModeSet(ulPort, ucPins, GPIO_DIR_MODE_OUT);
    6f72:	2201      	movs	r2, #1
//! \return None.
//
//*****************************************************************************
void
GPIOPinTypeGPIOOutput(unsigned long ulPort, unsigned char ucPins)
{
    6f74:	4605      	mov	r5, r0
    6f76:	460c      	mov	r4, r1
    ASSERT(GPIOBaseValid(ulPort));

    //
    // Make the pin(s) be outputs.
    //
    GPIODirModeSet(ulPort, ucPins, GPIO_DIR_MODE_OUT);
    6f78:	f7ff fe84 	bl	6c84 <GPIODirModeSet>

    //
    // Set the pad(s) for standard push-pull operation.
    //
    GPIOPadConfigSet(ulPort, ucPins, GPIO_STRENGTH_2MA, GPIO_PIN_TYPE_STD);
    6f7c:	4628      	mov	r0, r5
    6f7e:	4621      	mov	r1, r4
    6f80:	2201      	movs	r2, #1
    6f82:	2308      	movs	r3, #8
}
    6f84:	e8bd 4070 	ldmia.w	sp!, {r4, r5, r6, lr}
    GPIODirModeSet(ulPort, ucPins, GPIO_DIR_MODE_OUT);

    //
    // Set the pad(s) for standard push-pull operation.
    //
    GPIOPadConfigSet(ulPort, ucPins, GPIO_STRENGTH_2MA, GPIO_PIN_TYPE_STD);
    6f88:	e6e6      	b.n	6d58 <GPIOPadConfigSet>

00006f8a <GPIOPinTypeGPIOOutputOD>:
//! \return None.
//
//*****************************************************************************
void
GPIOPinTypeGPIOOutputOD(unsigned long ulPort, unsigned char ucPins)
{
    6f8a:	b570      	push	{r4, r5, r6, lr}
    ASSERT(GPIOBaseValid(ulPort));

    //
    // Make the pin(s) be outputs.
    //
    GPIODirModeSet(ulPort, ucPins, GPIO_DIR_MODE_OUT);
    6f8c:	2201      	movs	r2, #1
//! \return None.
//
//*****************************************************************************
void
GPIOPinTypeGPIOOutputOD(unsigned long ulPort, unsigned char ucPins)
{
    6f8e:	4605      	mov	r5, r0
    6f90:	460c      	mov	r4, r1
    ASSERT(GPIOBaseValid(ulPort));

    //
    // Make the pin(s) be outputs.
    //
    GPIODirModeSet(ulPort, ucPins, GPIO_DIR_MODE_OUT);
    6f92:	f7ff fe77 	bl	6c84 <GPIODirModeSet>

    //
    // Set the pad(s) for standard push-pull operation.
    //
    GPIOPadConfigSet(ulPort, ucPins, GPIO_STRENGTH_2MA, GPIO_PIN_TYPE_OD);
    6f96:	4628      	mov	r0, r5
    6f98:	4621      	mov	r1, r4
    6f9a:	2201      	movs	r2, #1
    6f9c:	2309      	movs	r3, #9
}
    6f9e:	e8bd 4070 	ldmia.w	sp!, {r4, r5, r6, lr}
    GPIODirModeSet(ulPort, ucPins, GPIO_DIR_MODE_OUT);

    //
    // Set the pad(s) for standard push-pull operation.
    //
    GPIOPadConfigSet(ulPort, ucPins, GPIO_STRENGTH_2MA, GPIO_PIN_TYPE_OD);
    6fa2:	e6d9      	b.n	6d58 <GPIOPadConfigSet>

00006fa4 <GPIOPinTypeI2C>:
//! \return None.
//
//*****************************************************************************
void
GPIOPinTypeI2C(unsigned long ulPort, unsigned char ucPins)
{
    6fa4:	b570      	push	{r4, r5, r6, lr}
    ASSERT(GPIOBaseValid(ulPort));

    //
    // Make the pin(s) be peripheral controlled.
    //
    GPIODirModeSet(ulPort, ucPins, GPIO_DIR_MODE_HW);
    6fa6:	2202      	movs	r2, #2
//! \return None.
//
//*****************************************************************************
void
GPIOPinTypeI2C(unsigned long ulPort, unsigned char ucPins)
{
    6fa8:	4605      	mov	r5, r0
    6faa:	460c      	mov	r4, r1
    ASSERT(GPIOBaseValid(ulPort));

    //
    // Make the pin(s) be peripheral controlled.
    //
    GPIODirModeSet(ulPort, ucPins, GPIO_DIR_MODE_HW);
    6fac:	f7ff fe6a 	bl	6c84 <GPIODirModeSet>

    //
    // Set the pad(s) for open-drain operation with a weak pull-up.
    //
    GPIOPadConfigSet(ulPort, ucPins, GPIO_STRENGTH_2MA, GPIO_PIN_TYPE_OD_WPU);
    6fb0:	4628      	mov	r0, r5
    6fb2:	4621      	mov	r1, r4
    6fb4:	2201      	movs	r2, #1
    6fb6:	230b      	movs	r3, #11
}
    6fb8:	e8bd 4070 	ldmia.w	sp!, {r4, r5, r6, lr}
    GPIODirModeSet(ulPort, ucPins, GPIO_DIR_MODE_HW);

    //
    // Set the pad(s) for open-drain operation with a weak pull-up.
    //
    GPIOPadConfigSet(ulPort, ucPins, GPIO_STRENGTH_2MA, GPIO_PIN_TYPE_OD_WPU);
    6fbc:	e6cc      	b.n	6d58 <GPIOPadConfigSet>

00006fbe <GPIOPinTypePWM>:
//! \return None.
//
//*****************************************************************************
void
GPIOPinTypePWM(unsigned long ulPort, unsigned char ucPins)
{
    6fbe:	b570      	push	{r4, r5, r6, lr}
    ASSERT(GPIOBaseValid(ulPort));

    //
    // Make the pin(s) be peripheral controlled.
    //
    GPIODirModeSet(ulPort, ucPins, GPIO_DIR_MODE_HW);
    6fc0:	2202      	movs	r2, #2
//! \return None.
//
//*****************************************************************************
void
GPIOPinTypePWM(unsigned long ulPort, unsigned char ucPins)
{
    6fc2:	4605      	mov	r5, r0
    6fc4:	460c      	mov	r4, r1
    ASSERT(GPIOBaseValid(ulPort));

    //
    // Make the pin(s) be peripheral controlled.
    //
    GPIODirModeSet(ulPort, ucPins, GPIO_DIR_MODE_HW);
    6fc6:	f7ff fe5d 	bl	6c84 <GPIODirModeSet>

    //
    // Set the pad(s) for standard push-pull operation.
    //
    GPIOPadConfigSet(ulPort, ucPins, GPIO_STRENGTH_2MA, GPIO_PIN_TYPE_STD);
    6fca:	4628      	mov	r0, r5
    6fcc:	4621      	mov	r1, r4
    6fce:	2201      	movs	r2, #1
    6fd0:	2308      	movs	r3, #8
}
    6fd2:	e8bd 4070 	ldmia.w	sp!, {r4, r5, r6, lr}
    GPIODirModeSet(ulPort, ucPins, GPIO_DIR_MODE_HW);

    //
    // Set the pad(s) for standard push-pull operation.
    //
    GPIOPadConfigSet(ulPort, ucPins, GPIO_STRENGTH_2MA, GPIO_PIN_TYPE_STD);
    6fd6:	e6bf      	b.n	6d58 <GPIOPadConfigSet>

00006fd8 <GPIOPinTypeQEI>:
    ASSERT(GPIOBaseValid(ulPort));

    //
    // Make the pin(s) be peripheral controlled.
    //
    GPIODirModeSet(ulPort, ucPins, GPIO_DIR_MODE_HW);
    6fd8:	2202      	movs	r2, #2
    6fda:	e653      	b.n	6c84 <GPIODirModeSet>

00006fdc <GPIOPinTypeSSI>:
//! \return None.
//
//*****************************************************************************
void
GPIOPinTypeSSI(unsigned long ulPort, unsigned char ucPins)
{
    6fdc:	b570      	push	{r4, r5, r6, lr}
    ASSERT(GPIOBaseValid(ulPort));

    //
    // Make the pin(s) be peripheral controlled.
    //
    GPIODirModeSet(ulPort, ucPins, GPIO_DIR_MODE_HW);
    6fde:	2202      	movs	r2, #2
//! \return None.
//
//*****************************************************************************
void
GPIOPinTypeSSI(unsigned long ulPort, unsigned char ucPins)
{
    6fe0:	4605      	mov	r5, r0
    6fe2:	460c      	mov	r4, r1
    ASSERT(GPIOBaseValid(ulPort));

    //
    // Make the pin(s) be peripheral controlled.
    //
    GPIODirModeSet(ulPort, ucPins, GPIO_DIR_MODE_HW);
    6fe4:	f7ff fe4e 	bl	6c84 <GPIODirModeSet>

    //
    // Set the pad(s) for standard push-pull operation.
    //
    GPIOPadConfigSet(ulPort, ucPins, GPIO_STRENGTH_2MA, GPIO_PIN_TYPE_STD);
    6fe8:	4628      	mov	r0, r5
    6fea:	4621      	mov	r1, r4
    6fec:	2201      	movs	r2, #1
    6fee:	2308      	movs	r3, #8
}
    6ff0:	e8bd 4070 	ldmia.w	sp!, {r4, r5, r6, lr}
    GPIODirModeSet(ulPort, ucPins, GPIO_DIR_MODE_HW);

    //
    // Set the pad(s) for standard push-pull operation.
    //
    GPIOPadConfigSet(ulPort, ucPins, GPIO_STRENGTH_2MA, GPIO_PIN_TYPE_STD);
    6ff4:	e6b0      	b.n	6d58 <GPIOPadConfigSet>

00006ff6 <GPIOPinTypeTimer>:
//! \return None.
//
//*****************************************************************************
void
GPIOPinTypeTimer(unsigned long ulPort, unsigned char ucPins)
{
    6ff6:	b570      	push	{r4, r5, r6, lr}
    ASSERT(GPIOBaseValid(ulPort));

    //
    // Make the pin(s) be peripheral controlled.
    //
    GPIODirModeSet(ulPort, ucPins, GPIO_DIR_MODE_HW);
    6ff8:	2202      	movs	r2, #2
//! \return None.
//
//*****************************************************************************
void
GPIOPinTypeTimer(unsigned long ulPort, unsigned char ucPins)
{
    6ffa:	4605      	mov	r5, r0
    6ffc:	460c      	mov	r4, r1
    ASSERT(GPIOBaseValid(ulPort));

    //
    // Make the pin(s) be peripheral controlled.
    //
    GPIODirModeSet(ulPort, ucPins, GPIO_DIR_MODE_HW);
    6ffe:	f7ff fe41 	bl	6c84 <GPIODirModeSet>

    //
    // Set the pad(s) for standard push-pull operation.
    //
    GPIOPadConfigSet(ulPort, ucPins, GPIO_STRENGTH_2MA, GPIO_PIN_TYPE_STD);
    7002:	4628      	mov	r0, r5
    7004:	4621      	mov	r1, r4
    7006:	2201      	movs	r2, #1
    7008:	2308      	movs	r3, #8
}
    700a:	e8bd 4070 	ldmia.w	sp!, {r4, r5, r6, lr}
    GPIODirModeSet(ulPort, ucPins, GPIO_DIR_MODE_HW);

    //
    // Set the pad(s) for standard push-pull operation.
    //
    GPIOPadConfigSet(ulPort, ucPins, GPIO_STRENGTH_2MA, GPIO_PIN_TYPE_STD);
    700e:	e6a3      	b.n	6d58 <GPIOPadConfigSet>

00007010 <GPIOPinTypeUART>:
//! \return None.
//
//*****************************************************************************
void
GPIOPinTypeUART(unsigned long ulPort, unsigned char ucPins)
{
    7010:	b570      	push	{r4, r5, r6, lr}
    ASSERT(GPIOBaseValid(ulPort));

    //
    // Make the pin(s) be peripheral controlled.
    //
    GPIODirModeSet(ulPort, ucPins, GPIO_DIR_MODE_HW);
    7012:	2202      	movs	r2, #2
//! \return None.
//
//*****************************************************************************
void
GPIOPinTypeUART(unsigned long ulPort, unsigned char ucPins)
{
    7014:	4605      	mov	r5, r0
    7016:	460c      	mov	r4, r1
    ASSERT(GPIOBaseValid(ulPort));

    //
    // Make the pin(s) be peripheral controlled.
    //
    GPIODirModeSet(ulPort, ucPins, GPIO_DIR_MODE_HW);
    7018:	f7ff fe34 	bl	6c84 <GPIODirModeSet>

    //
    // Set the pad(s) for standard push-pull operation.
    //
    GPIOPadConfigSet(ulPort, ucPins, GPIO_STRENGTH_2MA, GPIO_PIN_TYPE_STD);
    701c:	4628      	mov	r0, r5
    701e:	4621      	mov	r1, r4
    7020:	2201      	movs	r2, #1
    7022:	2308      	movs	r3, #8
}
    7024:	e8bd 4070 	ldmia.w	sp!, {r4, r5, r6, lr}
    GPIODirModeSet(ulPort, ucPins, GPIO_DIR_MODE_HW);

    //
    // Set the pad(s) for standard push-pull operation.
    //
    GPIOPadConfigSet(ulPort, ucPins, GPIO_STRENGTH_2MA, GPIO_PIN_TYPE_STD);
    7028:	e696      	b.n	6d58 <GPIOPadConfigSet>

0000702a <GPIOPinTypeUSBDigital>:
//! \return None.
//
//*****************************************************************************
void
GPIOPinTypeUSBDigital(unsigned long ulPort, unsigned char ucPins)
{
    702a:	b570      	push	{r4, r5, r6, lr}
    ASSERT(GPIOBaseValid(ulPort));

    //
    // Make the pin(s) be peripheral controlled.
    //
    GPIODirModeSet(ulPort, ucPins, GPIO_DIR_MODE_HW);
    702c:	2202      	movs	r2, #2
//! \return None.
//
//*****************************************************************************
void
GPIOPinTypeUSBDigital(unsigned long ulPort, unsigned char ucPins)
{
    702e:	4605      	mov	r5, r0
    7030:	460c      	mov	r4, r1
    ASSERT(GPIOBaseValid(ulPort));

    //
    // Make the pin(s) be peripheral controlled.
    //
    GPIODirModeSet(ulPort, ucPins, GPIO_DIR_MODE_HW);
    7032:	f7ff fe27 	bl	6c84 <GPIODirModeSet>

    //
    // Set the pad(s) for standard push-pull operation.
    //
    GPIOPadConfigSet(ulPort, ucPins, GPIO_STRENGTH_2MA, GPIO_PIN_TYPE_STD);
    7036:	4628      	mov	r0, r5
    7038:	4621      	mov	r1, r4
    703a:	2201      	movs	r2, #1
    703c:	2308      	movs	r3, #8
}
    703e:	e8bd 4070 	ldmia.w	sp!, {r4, r5, r6, lr}
    GPIODirModeSet(ulPort, ucPins, GPIO_DIR_MODE_HW);

    //
    // Set the pad(s) for standard push-pull operation.
    //
    GPIOPadConfigSet(ulPort, ucPins, GPIO_STRENGTH_2MA, GPIO_PIN_TYPE_STD);
    7042:	e689      	b.n	6d58 <GPIOPadConfigSet>

00007044 <GPIOPinTypeUSBAnalog>:
//! \return None.
//
//*****************************************************************************
void
GPIOPinTypeUSBAnalog(unsigned long ulPort, unsigned char ucPins)
{
    7044:	b570      	push	{r4, r5, r6, lr}
    ASSERT(GPIOBaseValid(ulPort));

    //
    // Make the pin(s) be inputs.
    //
    GPIODirModeSet(ulPort, ucPins, GPIO_DIR_MODE_IN);
    7046:	2200      	movs	r2, #0
//! \return None.
//
//*****************************************************************************
void
GPIOPinTypeUSBAnalog(unsigned long ulPort, unsigned char ucPins)
{
    7048:	4605      	mov	r5, r0
    704a:	460c      	mov	r4, r1
    ASSERT(GPIOBaseValid(ulPort));

    //
    // Make the pin(s) be inputs.
    //
    GPIODirModeSet(ulPort, ucPins, GPIO_DIR_MODE_IN);
    704c:	f7ff fe1a 	bl	6c84 <GPIODirModeSet>

    //
    // Set the pad(s) for analog operation.
    //
    GPIOPadConfigSet(ulPort, ucPins, GPIO_STRENGTH_2MA, GPIO_PIN_TYPE_ANALOG);
    7050:	4628      	mov	r0, r5
    7052:	4621      	mov	r1, r4
    7054:	2201      	movs	r2, #1
    7056:	2300      	movs	r3, #0
}
    7058:	e8bd 4070 	ldmia.w	sp!, {r4, r5, r6, lr}
    GPIODirModeSet(ulPort, ucPins, GPIO_DIR_MODE_IN);

    //
    // Set the pad(s) for analog operation.
    //
    GPIOPadConfigSet(ulPort, ucPins, GPIO_STRENGTH_2MA, GPIO_PIN_TYPE_ANALOG);
    705c:	e67c      	b.n	6d58 <GPIOPadConfigSet>

0000705e <GPIOPinTypeI2S>:
//! \return None.
//
//*****************************************************************************
void
GPIOPinTypeI2S(unsigned long ulPort, unsigned char ucPins)
{
    705e:	b570      	push	{r4, r5, r6, lr}
    ASSERT(GPIOBaseValid(ulPort));

    //
    // Make the pin(s) be peripheral controlled.
    //
    GPIODirModeSet(ulPort, ucPins, GPIO_DIR_MODE_HW);
    7060:	2202      	movs	r2, #2
//! \return None.
//
//*****************************************************************************
void
GPIOPinTypeI2S(unsigned long ulPort, unsigned char ucPins)
{
    7062:	4605      	mov	r5, r0
    7064:	460c      	mov	r4, r1
    ASSERT(GPIOBaseValid(ulPort));

    //
    // Make the pin(s) be peripheral controlled.
    //
    GPIODirModeSet(ulPort, ucPins, GPIO_DIR_MODE_HW);
    7066:	f7ff fe0d 	bl	6c84 <GPIODirModeSet>

    //
    // Set the pad(s) for standard push-pull operation.
    //
    GPIOPadConfigSet(ulPort, ucPins, GPIO_STRENGTH_2MA, GPIO_PIN_TYPE_STD);
    706a:	4628      	mov	r0, r5
    706c:	4621      	mov	r1, r4
    706e:	2201      	movs	r2, #1
    7070:	2308      	movs	r3, #8
}
    7072:	e8bd 4070 	ldmia.w	sp!, {r4, r5, r6, lr}
    GPIODirModeSet(ulPort, ucPins, GPIO_DIR_MODE_HW);

    //
    // Set the pad(s) for standard push-pull operation.
    //
    GPIOPadConfigSet(ulPort, ucPins, GPIO_STRENGTH_2MA, GPIO_PIN_TYPE_STD);
    7076:	e66f      	b.n	6d58 <GPIOPadConfigSet>

00007078 <GPIOPinTypeEthernetLED>:
//! \return None.
//
//*****************************************************************************
void
GPIOPinTypeEthernetLED(unsigned long ulPort, unsigned char ucPins)
{
    7078:	b570      	push	{r4, r5, r6, lr}
    ASSERT(GPIOBaseValid(ulPort));

    //
    // Make the pin(s) be peripheral controlled.
    //
    GPIODirModeSet(ulPort, ucPins, GPIO_DIR_MODE_HW);
    707a:	2202      	movs	r2, #2
//! \return None.
//
//*****************************************************************************
void
GPIOPinTypeEthernetLED(unsigned long ulPort, unsigned char ucPins)
{
    707c:	4605      	mov	r5, r0
    707e:	460c      	mov	r4, r1
    ASSERT(GPIOBaseValid(ulPort));

    //
    // Make the pin(s) be peripheral controlled.
    //
    GPIODirModeSet(ulPort, ucPins, GPIO_DIR_MODE_HW);
    7080:	f7ff fe00 	bl	6c84 <GPIODirModeSet>

    //
    // Set the pad(s) for standard push-pull operation.
    //
    GPIOPadConfigSet(ulPort, ucPins, GPIO_STRENGTH_8MA, GPIO_PIN_TYPE_STD);
    7084:	4628      	mov	r0, r5
    7086:	4621      	mov	r1, r4
    7088:	2204      	movs	r2, #4
    708a:	2308      	movs	r3, #8
}
    708c:	e8bd 4070 	ldmia.w	sp!, {r4, r5, r6, lr}
    GPIODirModeSet(ulPort, ucPins, GPIO_DIR_MODE_HW);

    //
    // Set the pad(s) for standard push-pull operation.
    //
    GPIOPadConfigSet(ulPort, ucPins, GPIO_STRENGTH_8MA, GPIO_PIN_TYPE_STD);
    7090:	e662      	b.n	6d58 <GPIOPadConfigSet>

00007092 <GPIOPinConfigure>:
    ASSERT(((ulPinConfig >> 8) & 0xe3) == 0);

    //
    // Extract the base address index from the input value.
    //
    ulBase = (ulPinConfig >> 16) & 0xff;
    7092:	0c02      	lsrs	r2, r0, #16
    7094:	f002 02ff 	and.w	r2, r2, #255	; 0xff

    //
    // Get the base address of the GPIO module, selecting either the APB or the
    // AHB aperture as appropriate.
    //
    if(HWREG(SYSCTL_GPIOHSCTL) & (1 << ulBase))
    7098:	2101      	movs	r1, #1
    709a:	4091      	lsls	r1, r2
    709c:	4b0d      	ldr	r3, [pc, #52]	; (70d4 <GPIOPinConfigure+0x42>)
    709e:	0052      	lsls	r2, r2, #1
    70a0:	681b      	ldr	r3, [r3, #0]
//! \return None.
//
//*****************************************************************************
void
GPIOPinConfigure(unsigned long ulPinConfig)
{
    70a2:	b510      	push	{r4, lr}

    //
    // Get the base address of the GPIO module, selecting either the APB or the
    // AHB aperture as appropriate.
    //
    if(HWREG(SYSCTL_GPIOHSCTL) & (1 << ulBase))
    70a4:	4219      	tst	r1, r3
    70a6:	4b0c      	ldr	r3, [pc, #48]	; (70d8 <GPIOPinConfigure+0x46>)
    {
        ulBase = g_pulGPIOBaseAddrs[(ulBase << 1) + 1];
    70a8:	bf18      	it	ne
    70aa:	3201      	addne	r2, #1
    }
    else
    {
        ulBase = g_pulGPIOBaseAddrs[ulBase << 1];
    70ac:	f853 3022 	ldr.w	r3, [r3, r2, lsl #2]

    //
    // Write the requested pin muxing value for this GPIO pin.
    //
    HWREG(ulBase + GPIO_O_PCTL) = ((HWREG(ulBase + GPIO_O_PCTL) &
                                    ~(0xf << ulShift)) |
    70b0:	0a02      	lsrs	r2, r0, #8
    70b2:	f002 02ff 	and.w	r2, r2, #255	; 0xff
    ulShift = (ulPinConfig >> 8) & 0xff;

    //
    // Write the requested pin muxing value for this GPIO pin.
    //
    HWREG(ulBase + GPIO_O_PCTL) = ((HWREG(ulBase + GPIO_O_PCTL) &
    70b6:	210f      	movs	r1, #15
    70b8:	4091      	lsls	r1, r2
    70ba:	f000 000f 	and.w	r0, r0, #15
    70be:	fa10 f202 	lsls.w	r2, r0, r2
    70c2:	f8d3 452c 	ldr.w	r4, [r3, #1324]	; 0x52c
    70c6:	ea24 0101 	bic.w	r1, r4, r1
    70ca:	ea41 0202 	orr.w	r2, r1, r2
    70ce:	f8c3 252c 	str.w	r2, [r3, #1324]	; 0x52c
                                    ~(0xf << ulShift)) |
                                   ((ulPinConfig & 0xf) << ulShift));

}
    70d2:	bd10      	pop	{r4, pc}
    70d4:	400fe06c 	.word	0x400fe06c
    70d8:	00009574 	.word	0x00009574

000070dc <GPIOPortIntUnregister>:
//! \return None.
//
//*****************************************************************************
void
GPIOPortIntUnregister(unsigned long ulPort)
{
    70dc:	b510      	push	{r4, lr}
    ASSERT(GPIOBaseValid(ulPort));

    //
    // Get the interrupt number associated with the specified GPIO.
    //
    ulPort = GPIOGetIntNumber(ulPort);
    70de:	f7ff fd57 	bl	6b90 <GPIOGetIntNumber>
    70e2:	4604      	mov	r4, r0

    //
    // Disable the GPIO interrupt.
    //
    IntDisable(ulPort);
    70e4:	f000 f8b4 	bl	7250 <IntDisable>

    //
    // Unregister the interrupt handler.
    //
    IntUnregister(ulPort);
    70e8:	4620      	mov	r0, r4
}
    70ea:	e8bd 4010 	ldmia.w	sp!, {r4, lr}
    IntDisable(ulPort);

    //
    // Unregister the interrupt handler.
    //
    IntUnregister(ulPort);
    70ee:	f000 b827 	b.w	7140 <IntUnregister>

000070f2 <GPIOPortIntRegister>:
//! \return None.
//
//*****************************************************************************
void
GPIOPortIntRegister(unsigned long ulPort, void (*pfnIntHandler)(void))
{
    70f2:	b570      	push	{r4, r5, r6, lr}
    70f4:	460d      	mov	r5, r1
    ASSERT(GPIOBaseValid(ulPort));

    //
    // Get the interrupt number associated with the specified GPIO.
    //
    ulPort = GPIOGetIntNumber(ulPort);
    70f6:	f7ff fd4b 	bl	6b90 <GPIOGetIntNumber>

    //
    // Register the interrupt handler.
    //
    IntRegister(ulPort, pfnIntHandler);
    70fa:	4629      	mov	r1, r5
    ASSERT(GPIOBaseValid(ulPort));

    //
    // Get the interrupt number associated with the specified GPIO.
    //
    ulPort = GPIOGetIntNumber(ulPort);
    70fc:	4604      	mov	r4, r0

    //
    // Register the interrupt handler.
    //
    IntRegister(ulPort, pfnIntHandler);
    70fe:	f000 f806 	bl	710e <IntRegister>

    //
    // Enable the GPIO interrupt.
    //
    IntEnable(ulPort);
    7102:	4620      	mov	r0, r4
}
    7104:	e8bd 4070 	ldmia.w	sp!, {r4, r5, r6, lr}
    IntRegister(ulPort, pfnIntHandler);

    //
    // Enable the GPIO interrupt.
    //
    IntEnable(ulPort);
    7108:	f000 b86a 	b.w	71e0 <IntEnable>

0000710c <IntDefaultHandler>:
//! \return None.
//
//*****************************************************************************
static void
IntDefaultHandler(void)
{
    710c:	e7fe      	b.n	710c <IntDefaultHandler>

0000710e <IntRegister>:
    ASSERT(((unsigned long)g_pfnRAMVectors & 0x000003ff) == 0);

    //
    // See if the RAM vector table has been initialized.
    //
    if(HWREG(NVIC_VTABLE) != (unsigned long)g_pfnRAMVectors)
    710e:	4b0a      	ldr	r3, [pc, #40]	; (7138 <IntRegister+0x2a>)
//! \return None.
//
//*****************************************************************************
void
IntRegister(unsigned long ulInterrupt, void (*pfnHandler)(void))
{
    7110:	b570      	push	{r4, r5, r6, lr}
    ASSERT(((unsigned long)g_pfnRAMVectors & 0x000003ff) == 0);

    //
    // See if the RAM vector table has been initialized.
    //
    if(HWREG(NVIC_VTABLE) != (unsigned long)g_pfnRAMVectors)
    7112:	4a0a      	ldr	r2, [pc, #40]	; (713c <IntRegister+0x2e>)
    7114:	681c      	ldr	r4, [r3, #0]
    7116:	4294      	cmp	r4, r2
    7118:	d00a      	beq.n	7130 <IntRegister+0x22>
    {
        //
        // Copy the vector table from the beginning of FLASH to the RAM vector
        // table.
        //
        ulValue = HWREG(NVIC_VTABLE);
    711a:	681c      	ldr	r4, [r3, #0]
    711c:	2300      	movs	r3, #0
        for(ulIdx = 0; ulIdx < NUM_INTERRUPTS; ulIdx++)
        {
            g_pfnRAMVectors[ulIdx] = (void (*)(void))HWREG((ulIdx * 4) +
    711e:	591e      	ldr	r6, [r3, r4]
    7120:	4d06      	ldr	r5, [pc, #24]	; (713c <IntRegister+0x2e>)
    7122:	50ee      	str	r6, [r5, r3]
    7124:	3304      	adds	r3, #4
        //
        // Copy the vector table from the beginning of FLASH to the RAM vector
        // table.
        //
        ulValue = HWREG(NVIC_VTABLE);
        for(ulIdx = 0; ulIdx < NUM_INTERRUPTS; ulIdx++)
    7126:	f5b3 7f8e 	cmp.w	r3, #284	; 0x11c
    712a:	d1f8      	bne.n	711e <IntRegister+0x10>
        }

        //
        // Point NVIC at the RAM vector table.
        //
        HWREG(NVIC_VTABLE) = (unsigned long)g_pfnRAMVectors;
    712c:	4b02      	ldr	r3, [pc, #8]	; (7138 <IntRegister+0x2a>)
    712e:	601a      	str	r2, [r3, #0]
    }

    //
    // Save the interrupt handler.
    //
    g_pfnRAMVectors[ulInterrupt] = pfnHandler;
    7130:	4b02      	ldr	r3, [pc, #8]	; (713c <IntRegister+0x2e>)
    7132:	f843 1020 	str.w	r1, [r3, r0, lsl #2]
}
    7136:	bd70      	pop	{r4, r5, r6, pc}
    7138:	e000ed08 	.word	0xe000ed08
    713c:	20000000 	.word	0x20000000

00007140 <IntUnregister>:
    ASSERT(ulInterrupt < NUM_INTERRUPTS);

    //
    // Reset the interrupt handler.
    //
    g_pfnRAMVectors[ulInterrupt] = IntDefaultHandler;
    7140:	4a02      	ldr	r2, [pc, #8]	; (714c <IntUnregister+0xc>)
    7142:	4b03      	ldr	r3, [pc, #12]	; (7150 <IntUnregister+0x10>)
    7144:	f843 2020 	str.w	r2, [r3, r0, lsl #2]
}
    7148:	4770      	bx	lr
    714a:	bf00      	nop
    714c:	0000710d 	.word	0x0000710d
    7150:	20000000 	.word	0x20000000

00007154 <IntPriorityGroupingSet>:
    ASSERT(ulBits < NUM_PRIORITY);

    //
    // Set the priority grouping.
    //
    HWREG(NVIC_APINT) = NVIC_APINT_VECTKEY | g_pulPriority[ulBits];
    7154:	4b04      	ldr	r3, [pc, #16]	; (7168 <IntPriorityGroupingSet+0x14>)
    7156:	4a05      	ldr	r2, [pc, #20]	; (716c <IntPriorityGroupingSet+0x18>)
    7158:	f853 3020 	ldr.w	r3, [r3, r0, lsl #2]
    715c:	f043 63be 	orr.w	r3, r3, #99614720	; 0x5f00000
    7160:	f443 2320 	orr.w	r3, r3, #655360	; 0xa0000
    7164:	6013      	str	r3, [r2, #0]
}
    7166:	4770      	bx	lr
    7168:	000095bc 	.word	0x000095bc
    716c:	e000ed0c 	.word	0xe000ed0c

00007170 <IntPriorityGroupingGet>:
    unsigned long ulLoop, ulValue;

    //
    // Read the priority grouping.
    //
    ulValue = HWREG(NVIC_APINT) & NVIC_APINT_PRIGROUP_M;
    7170:	4b06      	ldr	r3, [pc, #24]	; (718c <IntPriorityGroupingGet+0x1c>)
    7172:	2000      	movs	r0, #0
    7174:	681b      	ldr	r3, [r3, #0]
    7176:	f403 63e0 	and.w	r3, r3, #1792	; 0x700
    for(ulLoop = 0; ulLoop < NUM_PRIORITY; ulLoop++)
    {
        //
        // Stop looping if this value matches.
        //
        if(ulValue == g_pulPriority[ulLoop])
    717a:	4a05      	ldr	r2, [pc, #20]	; (7190 <IntPriorityGroupingGet+0x20>)
    717c:	f852 2020 	ldr.w	r2, [r2, r0, lsl #2]
    7180:	4293      	cmp	r3, r2
    7182:	d002      	beq.n	718a <IntPriorityGroupingGet+0x1a>
    ulValue = HWREG(NVIC_APINT) & NVIC_APINT_PRIGROUP_M;

    //
    // Loop through the priority grouping values.
    //
    for(ulLoop = 0; ulLoop < NUM_PRIORITY; ulLoop++)
    7184:	3001      	adds	r0, #1
    7186:	2808      	cmp	r0, #8
    7188:	d1f7      	bne.n	717a <IntPriorityGroupingGet+0xa>

    //
    // Return the number of priority bits.
    //
    return(ulLoop);
}
    718a:	4770      	bx	lr
    718c:	e000ed0c 	.word	0xe000ed0c
    7190:	000095bc 	.word	0x000095bc

00007194 <IntPrioritySet>:
    ASSERT((ulInterrupt >= 4) && (ulInterrupt < NUM_INTERRUPTS));

    //
    // Set the interrupt priority.
    //
    ulTemp = HWREG(g_pulRegs[ulInterrupt >> 2]);
    7194:	4b09      	ldr	r3, [pc, #36]	; (71bc <IntPrioritySet+0x28>)
    7196:	f020 0203 	bic.w	r2, r0, #3
    ulTemp &= ~(0xFF << (8 * (ulInterrupt & 3)));
    719a:	f000 0003 	and.w	r0, r0, #3
    ASSERT((ulInterrupt >= 4) && (ulInterrupt < NUM_INTERRUPTS));

    //
    // Set the interrupt priority.
    //
    ulTemp = HWREG(g_pulRegs[ulInterrupt >> 2]);
    719e:	18d3      	adds	r3, r2, r3
    ulTemp &= ~(0xFF << (8 * (ulInterrupt & 3)));
    71a0:	00c0      	lsls	r0, r0, #3
    71a2:	22ff      	movs	r2, #255	; 0xff
    71a4:	4082      	lsls	r2, r0
    ulTemp |= ucPriority << (8 * (ulInterrupt & 3));
    71a6:	fa11 f000 	lsls.w	r0, r1, r0
    ASSERT((ulInterrupt >= 4) && (ulInterrupt < NUM_INTERRUPTS));

    //
    // Set the interrupt priority.
    //
    ulTemp = HWREG(g_pulRegs[ulInterrupt >> 2]);
    71aa:	6a1b      	ldr	r3, [r3, #32]
//! \return None.
//
//*****************************************************************************
void
IntPrioritySet(unsigned long ulInterrupt, unsigned char ucPriority)
{
    71ac:	b510      	push	{r4, lr}
    ASSERT((ulInterrupt >= 4) && (ulInterrupt < NUM_INTERRUPTS));

    //
    // Set the interrupt priority.
    //
    ulTemp = HWREG(g_pulRegs[ulInterrupt >> 2]);
    71ae:	681c      	ldr	r4, [r3, #0]
    ulTemp &= ~(0xFF << (8 * (ulInterrupt & 3)));
    71b0:	ea24 0202 	bic.w	r2, r4, r2
    ulTemp |= ucPriority << (8 * (ulInterrupt & 3));
    71b4:	4302      	orrs	r2, r0
    HWREG(g_pulRegs[ulInterrupt >> 2]) = ulTemp;
    71b6:	601a      	str	r2, [r3, #0]
}
    71b8:	bd10      	pop	{r4, pc}
    71ba:	bf00      	nop
    71bc:	000095bc 	.word	0x000095bc

000071c0 <IntPriorityGet>:
    ASSERT((ulInterrupt >= 4) && (ulInterrupt < NUM_INTERRUPTS));

    //
    // Return the interrupt priority.
    //
    return((HWREG(g_pulRegs[ulInterrupt >> 2]) >> (8 * (ulInterrupt & 3))) &
    71c0:	4b06      	ldr	r3, [pc, #24]	; (71dc <IntPriorityGet+0x1c>)
    71c2:	f020 0203 	bic.w	r2, r0, #3
    71c6:	18d3      	adds	r3, r2, r3
    71c8:	6a1b      	ldr	r3, [r3, #32]
    71ca:	f000 0003 	and.w	r0, r0, #3
    71ce:	681b      	ldr	r3, [r3, #0]
    71d0:	00c0      	lsls	r0, r0, #3
    71d2:	fa33 f000 	lsrs.w	r0, r3, r0
           0xFF);
}
    71d6:	b2c0      	uxtb	r0, r0
    71d8:	4770      	bx	lr
    71da:	bf00      	nop
    71dc:	000095bc 	.word	0x000095bc

000071e0 <IntEnable>:
    ASSERT(ulInterrupt < NUM_INTERRUPTS);

    //
    // Determine the interrupt to enable.
    //
    if(ulInterrupt == FAULT_MPU)
    71e0:	2804      	cmp	r0, #4
    71e2:	d104      	bne.n	71ee <IntEnable+0xe>
    {
        //
        // Enable the MemManage interrupt.
        //
        HWREG(NVIC_SYS_HND_CTRL) |= NVIC_SYS_HND_CTRL_MEM;
    71e4:	4b16      	ldr	r3, [pc, #88]	; (7240 <IntEnable+0x60>)
    71e6:	681a      	ldr	r2, [r3, #0]
    71e8:	f442 3280 	orr.w	r2, r2, #65536	; 0x10000
    71ec:	e013      	b.n	7216 <IntEnable+0x36>
    }
    else if(ulInterrupt == FAULT_BUS)
    71ee:	2805      	cmp	r0, #5
    71f0:	d104      	bne.n	71fc <IntEnable+0x1c>
    {
        //
        // Enable the bus fault interrupt.
        //
        HWREG(NVIC_SYS_HND_CTRL) |= NVIC_SYS_HND_CTRL_BUS;
    71f2:	4b13      	ldr	r3, [pc, #76]	; (7240 <IntEnable+0x60>)
    71f4:	681a      	ldr	r2, [r3, #0]
    71f6:	f442 3200 	orr.w	r2, r2, #131072	; 0x20000
    71fa:	e00c      	b.n	7216 <IntEnable+0x36>
    }
    else if(ulInterrupt == FAULT_USAGE)
    71fc:	2806      	cmp	r0, #6
    71fe:	d104      	bne.n	720a <IntEnable+0x2a>
    {
        //
        // Enable the usage fault interrupt.
        //
        HWREG(NVIC_SYS_HND_CTRL) |= NVIC_SYS_HND_CTRL_USAGE;
    7200:	4b0f      	ldr	r3, [pc, #60]	; (7240 <IntEnable+0x60>)
    7202:	681a      	ldr	r2, [r3, #0]
    7204:	f442 2280 	orr.w	r2, r2, #262144	; 0x40000
    7208:	e005      	b.n	7216 <IntEnable+0x36>
    }
    else if(ulInterrupt == FAULT_SYSTICK)
    720a:	280f      	cmp	r0, #15
    720c:	d105      	bne.n	721a <IntEnable+0x3a>
    {
        //
        // Enable the System Tick interrupt.
        //
        HWREG(NVIC_ST_CTRL) |= NVIC_ST_CTRL_INTEN;
    720e:	4b0d      	ldr	r3, [pc, #52]	; (7244 <IntEnable+0x64>)
    7210:	681a      	ldr	r2, [r3, #0]
    7212:	f042 0202 	orr.w	r2, r2, #2
    7216:	601a      	str	r2, [r3, #0]
    7218:	4770      	bx	lr
    }
    else if((ulInterrupt >= 16) && (ulInterrupt <= 47))
    721a:	f1a0 0310 	sub.w	r3, r0, #16
    721e:	2b1f      	cmp	r3, #31
    7220:	d805      	bhi.n	722e <IntEnable+0x4e>
    {
        //
        // Enable the general interrupt.
        //
        HWREG(NVIC_EN0) = 1 << (ulInterrupt - 16);
    7222:	2201      	movs	r2, #1
    7224:	fa12 f303 	lsls.w	r3, r2, r3
    7228:	4a07      	ldr	r2, [pc, #28]	; (7248 <IntEnable+0x68>)
    722a:	6013      	str	r3, [r2, #0]
    722c:	4770      	bx	lr
    }
    else if(ulInterrupt >= 48)
    722e:	282f      	cmp	r0, #47	; 0x2f
    7230:	d905      	bls.n	723e <IntEnable+0x5e>
    {
        //
        // Enable the general interrupt.
        //
        HWREG(NVIC_EN1) = 1 << (ulInterrupt - 48);
    7232:	2301      	movs	r3, #1
    7234:	3830      	subs	r0, #48	; 0x30
    7236:	fa13 f000 	lsls.w	r0, r3, r0
    723a:	4b04      	ldr	r3, [pc, #16]	; (724c <IntEnable+0x6c>)
    723c:	6018      	str	r0, [r3, #0]
    723e:	4770      	bx	lr
    7240:	e000ed24 	.word	0xe000ed24
    7244:	e000e010 	.word	0xe000e010
    7248:	e000e100 	.word	0xe000e100
    724c:	e000e104 	.word	0xe000e104

00007250 <IntDisable>:
    ASSERT(ulInterrupt < NUM_INTERRUPTS);

    //
    // Determine the interrupt to disable.
    //
    if(ulInterrupt == FAULT_MPU)
    7250:	2804      	cmp	r0, #4
    7252:	d104      	bne.n	725e <IntDisable+0xe>
    {
        //
        // Disable the MemManage interrupt.
        //
        HWREG(NVIC_SYS_HND_CTRL) &= ~(NVIC_SYS_HND_CTRL_MEM);
    7254:	4b16      	ldr	r3, [pc, #88]	; (72b0 <IntDisable+0x60>)
    7256:	681a      	ldr	r2, [r3, #0]
    7258:	f422 3280 	bic.w	r2, r2, #65536	; 0x10000
    725c:	e013      	b.n	7286 <IntDisable+0x36>
    }
    else if(ulInterrupt == FAULT_BUS)
    725e:	2805      	cmp	r0, #5
    7260:	d104      	bne.n	726c <IntDisable+0x1c>
    {
        //
        // Disable the bus fault interrupt.
        //
        HWREG(NVIC_SYS_HND_CTRL) &= ~(NVIC_SYS_HND_CTRL_BUS);
    7262:	4b13      	ldr	r3, [pc, #76]	; (72b0 <IntDisable+0x60>)
    7264:	681a      	ldr	r2, [r3, #0]
    7266:	f422 3200 	bic.w	r2, r2, #131072	; 0x20000
    726a:	e00c      	b.n	7286 <IntDisable+0x36>
    }
    else if(ulInterrupt == FAULT_USAGE)
    726c:	2806      	cmp	r0, #6
    726e:	d104      	bne.n	727a <IntDisable+0x2a>
    {
        //
        // Disable the usage fault interrupt.
        //
        HWREG(NVIC_SYS_HND_CTRL) &= ~(NVIC_SYS_HND_CTRL_USAGE);
    7270:	4b0f      	ldr	r3, [pc, #60]	; (72b0 <IntDisable+0x60>)
    7272:	681a      	ldr	r2, [r3, #0]
    7274:	f422 2280 	bic.w	r2, r2, #262144	; 0x40000
    7278:	e005      	b.n	7286 <IntDisable+0x36>
    }
    else if(ulInterrupt == FAULT_SYSTICK)
    727a:	280f      	cmp	r0, #15
    727c:	d105      	bne.n	728a <IntDisable+0x3a>
    {
        //
        // Disable the System Tick interrupt.
        //
        HWREG(NVIC_ST_CTRL) &= ~(NVIC_ST_CTRL_INTEN);
    727e:	4b0d      	ldr	r3, [pc, #52]	; (72b4 <IntDisable+0x64>)
    7280:	681a      	ldr	r2, [r3, #0]
    7282:	f022 0202 	bic.w	r2, r2, #2
    7286:	601a      	str	r2, [r3, #0]
    7288:	4770      	bx	lr
    }
    else if((ulInterrupt >= 16) && (ulInterrupt <= 47))
    728a:	f1a0 0310 	sub.w	r3, r0, #16
    728e:	2b1f      	cmp	r3, #31
    7290:	d805      	bhi.n	729e <IntDisable+0x4e>
    {
        //
        // Disable the general interrupt.
        //
        HWREG(NVIC_DIS0) = 1 << (ulInterrupt - 16);
    7292:	2201      	movs	r2, #1
    7294:	fa12 f303 	lsls.w	r3, r2, r3
    7298:	4a07      	ldr	r2, [pc, #28]	; (72b8 <IntDisable+0x68>)
    729a:	6013      	str	r3, [r2, #0]
    729c:	4770      	bx	lr
    }
    else if(ulInterrupt >= 48)
    729e:	282f      	cmp	r0, #47	; 0x2f
    72a0:	d905      	bls.n	72ae <IntDisable+0x5e>
    {
        //
        // Disable the general interrupt.
        //
        HWREG(NVIC_DIS1) = 1 << (ulInterrupt - 48);
    72a2:	2301      	movs	r3, #1
    72a4:	3830      	subs	r0, #48	; 0x30
    72a6:	fa13 f000 	lsls.w	r0, r3, r0
    72aa:	4b04      	ldr	r3, [pc, #16]	; (72bc <IntDisable+0x6c>)
    72ac:	6018      	str	r0, [r3, #0]
    72ae:	4770      	bx	lr
    72b0:	e000ed24 	.word	0xe000ed24
    72b4:	e000e010 	.word	0xe000e010
    72b8:	e000e180 	.word	0xe000e180
    72bc:	e000e184 	.word	0xe000e184

000072c0 <IntPendSet>:
    ASSERT(ulInterrupt < NUM_INTERRUPTS);

    //
    // Determine the interrupt to pend.
    //
    if(ulInterrupt == FAULT_NMI)
    72c0:	2802      	cmp	r0, #2
    72c2:	d104      	bne.n	72ce <IntPendSet+0xe>
    {
        //
        // Pend the NMI interrupt.
        //
        HWREG(NVIC_INT_CTRL) |= NVIC_INT_CTRL_NMI_SET;
    72c4:	4b13      	ldr	r3, [pc, #76]	; (7314 <IntPendSet+0x54>)
    72c6:	681a      	ldr	r2, [r3, #0]
    72c8:	f042 4200 	orr.w	r2, r2, #2147483648	; 0x80000000
    72cc:	e00c      	b.n	72e8 <IntPendSet+0x28>
    }
    else if(ulInterrupt == FAULT_PENDSV)
    72ce:	280e      	cmp	r0, #14
    72d0:	d104      	bne.n	72dc <IntPendSet+0x1c>
    {
        //
        // Pend the PendSV interrupt.
        //
        HWREG(NVIC_INT_CTRL) |= NVIC_INT_CTRL_PEND_SV;
    72d2:	4b10      	ldr	r3, [pc, #64]	; (7314 <IntPendSet+0x54>)
    72d4:	681a      	ldr	r2, [r3, #0]
    72d6:	f042 5280 	orr.w	r2, r2, #268435456	; 0x10000000
    72da:	e005      	b.n	72e8 <IntPendSet+0x28>
    }
    else if(ulInterrupt == FAULT_SYSTICK)
    72dc:	280f      	cmp	r0, #15
    72de:	d105      	bne.n	72ec <IntPendSet+0x2c>
    {
        //
        // Pend the SysTick interrupt.
        //
        HWREG(NVIC_INT_CTRL) |= NVIC_INT_CTRL_PENDSTSET;
    72e0:	4b0c      	ldr	r3, [pc, #48]	; (7314 <IntPendSet+0x54>)
    72e2:	681a      	ldr	r2, [r3, #0]
    72e4:	f042 6280 	orr.w	r2, r2, #67108864	; 0x4000000
    72e8:	601a      	str	r2, [r3, #0]
    72ea:	4770      	bx	lr
    }
    else if((ulInterrupt >= 16) && (ulInterrupt <= 47))
    72ec:	f1a0 0310 	sub.w	r3, r0, #16
    72f0:	2b1f      	cmp	r3, #31
    72f2:	d805      	bhi.n	7300 <IntPendSet+0x40>
    {
        //
        // Pend the general interrupt.
        //
        HWREG(NVIC_PEND0) = 1 << (ulInterrupt - 16);
    72f4:	2201      	movs	r2, #1
    72f6:	fa12 f303 	lsls.w	r3, r2, r3
    72fa:	4a07      	ldr	r2, [pc, #28]	; (7318 <IntPendSet+0x58>)
    72fc:	6013      	str	r3, [r2, #0]
    72fe:	4770      	bx	lr
    }
    else if(ulInterrupt >= 48)
    7300:	282f      	cmp	r0, #47	; 0x2f
    7302:	d905      	bls.n	7310 <IntPendSet+0x50>
    {
        //
        // Pend the general interrupt.
        //
        HWREG(NVIC_PEND1) = 1 << (ulInterrupt - 48);
    7304:	2301      	movs	r3, #1
    7306:	3830      	subs	r0, #48	; 0x30
    7308:	fa13 f000 	lsls.w	r0, r3, r0
    730c:	4b03      	ldr	r3, [pc, #12]	; (731c <IntPendSet+0x5c>)
    730e:	6018      	str	r0, [r3, #0]
    7310:	4770      	bx	lr
    7312:	bf00      	nop
    7314:	e000ed04 	.word	0xe000ed04
    7318:	e000e200 	.word	0xe000e200
    731c:	e000e204 	.word	0xe000e204

00007320 <IntPendClear>:
    ASSERT(ulInterrupt < NUM_INTERRUPTS);

    //
    // Determine the interrupt to unpend.
    //
    if(ulInterrupt == FAULT_PENDSV)
    7320:	280e      	cmp	r0, #14
    7322:	d104      	bne.n	732e <IntPendClear+0xe>
    {
        //
        // Unpend the PendSV interrupt.
        //
        HWREG(NVIC_INT_CTRL) |= NVIC_INT_CTRL_UNPEND_SV;
    7324:	4b0f      	ldr	r3, [pc, #60]	; (7364 <IntPendClear+0x44>)
    7326:	681a      	ldr	r2, [r3, #0]
    7328:	f042 6200 	orr.w	r2, r2, #134217728	; 0x8000000
    732c:	e005      	b.n	733a <IntPendClear+0x1a>
    }
    else if(ulInterrupt == FAULT_SYSTICK)
    732e:	280f      	cmp	r0, #15
    7330:	d105      	bne.n	733e <IntPendClear+0x1e>
    {
        //
        // Unpend the SysTick interrupt.
        //
        HWREG(NVIC_INT_CTRL) |= NVIC_INT_CTRL_PENDSTCLR;
    7332:	4b0c      	ldr	r3, [pc, #48]	; (7364 <IntPendClear+0x44>)
    7334:	681a      	ldr	r2, [r3, #0]
    7336:	f042 7200 	orr.w	r2, r2, #33554432	; 0x2000000
    733a:	601a      	str	r2, [r3, #0]
    733c:	4770      	bx	lr
    }
    else if((ulInterrupt >= 16) && (ulInterrupt <= 47))
    733e:	f1a0 0310 	sub.w	r3, r0, #16
    7342:	2b1f      	cmp	r3, #31
    7344:	d805      	bhi.n	7352 <IntPendClear+0x32>
    {
        //
        // Unpend the general interrupt.
        //
        HWREG(NVIC_UNPEND0) = 1 << (ulInterrupt - 16);
    7346:	2201      	movs	r2, #1
    7348:	fa12 f303 	lsls.w	r3, r2, r3
    734c:	4a06      	ldr	r2, [pc, #24]	; (7368 <IntPendClear+0x48>)
    734e:	6013      	str	r3, [r2, #0]
    7350:	4770      	bx	lr
    }
    else if(ulInterrupt >= 48)
    7352:	282f      	cmp	r0, #47	; 0x2f
    7354:	d905      	bls.n	7362 <IntPendClear+0x42>
    {
        //
        // Unpend the general interrupt.
        //
        HWREG(NVIC_UNPEND1) = 1 << (ulInterrupt - 48);
    7356:	2301      	movs	r3, #1
    7358:	3830      	subs	r0, #48	; 0x30
    735a:	fa13 f000 	lsls.w	r0, r3, r0
    735e:	4b03      	ldr	r3, [pc, #12]	; (736c <IntPendClear+0x4c>)
    7360:	6018      	str	r0, [r3, #0]
    7362:	4770      	bx	lr
    7364:	e000ed04 	.word	0xe000ed04
    7368:	e000e280 	.word	0xe000e280
    736c:	e000e284 	.word	0xe000e284

00007370 <IntMasterDisable>:
//! function was called or \b false if they were initially enabled.
//
//*****************************************************************************
tBoolean
IntMasterDisable(void)
{
    7370:	b508      	push	{r3, lr}
    //
    // Disable processor interrupts.
    //
    return(CPUcpsid());
    7372:	f7ff fc03 	bl	6b7c <CPUcpsid>
}
    7376:	b2c0      	uxtb	r0, r0
    7378:	bd08      	pop	{r3, pc}

0000737a <IntMasterEnable>:
//! called or \b false if they were initially enabled.
//
//*****************************************************************************
tBoolean
IntMasterEnable(void)
{
    737a:	b508      	push	{r3, lr}
    //
    // Enable processor interrupts.
    //
    return(CPUcpsie());
    737c:	f7ff fc02 	bl	6b84 <CPUcpsie>
}
    7380:	b2c0      	uxtb	r0, r0
    7382:	bd08      	pop	{r3, pc}

00007384 <QEIEnable>:
    ASSERT((ulBase == QEI0_BASE) || (ulBase == QEI1_BASE));

    //
    // Enable the QEI module.
    //
    HWREG(ulBase + QEI_O_CTL) |= QEI_CTL_ENABLE;
    7384:	6803      	ldr	r3, [r0, #0]
    7386:	f043 0301 	orr.w	r3, r3, #1
    738a:	6003      	str	r3, [r0, #0]
}
    738c:	4770      	bx	lr

0000738e <QEIDisable>:
    ASSERT((ulBase == QEI0_BASE) || (ulBase == QEI1_BASE));

    //
    // Disable the QEI module.
    //
    HWREG(ulBase + QEI_O_CTL) &= ~(QEI_CTL_ENABLE);
    738e:	6803      	ldr	r3, [r0, #0]
    7390:	f023 0301 	bic.w	r3, r3, #1
    7394:	6003      	str	r3, [r0, #0]
}
    7396:	4770      	bx	lr

00007398 <QEIConfigure>:
    ASSERT((ulBase == QEI0_BASE) || (ulBase == QEI1_BASE));

    //
    // Write the new configuration to the hardware.
    //
    HWREG(ulBase + QEI_O_CTL) = ((HWREG(ulBase + QEI_O_CTL) &
    7398:	6803      	ldr	r3, [r0, #0]
    739a:	f023 031e 	bic.w	r3, r3, #30
    739e:	430b      	orrs	r3, r1
    73a0:	6003      	str	r3, [r0, #0]
                                 ulConfig);

    //
    // Set the maximum position.
    //
    HWREG(ulBase + QEI_O_MAXPOS) = ulMaxPosition;
    73a2:	60c2      	str	r2, [r0, #12]
}
    73a4:	4770      	bx	lr

000073a6 <QEIPositionGet>:
    ASSERT((ulBase == QEI0_BASE) || (ulBase == QEI1_BASE));

    //
    // Return the current position counter.
    //
    return(HWREG(ulBase + QEI_O_POS));
    73a6:	6880      	ldr	r0, [r0, #8]
}
    73a8:	4770      	bx	lr

000073aa <QEIPositionSet>:
    ASSERT((ulBase == QEI0_BASE) || (ulBase == QEI1_BASE));

    //
    // Set the position counter.
    //
    HWREG(ulBase + QEI_O_POS) = ulPosition;
    73aa:	6081      	str	r1, [r0, #8]
}
    73ac:	4770      	bx	lr

000073ae <QEIDirectionGet>:
    ASSERT((ulBase == QEI0_BASE) || (ulBase == QEI1_BASE));

    //
    // Return the direction of rotation.
    //
    return((HWREG(ulBase + QEI_O_STAT) & QEI_STAT_DIRECTION) ? -1 : 1);
    73ae:	6840      	ldr	r0, [r0, #4]
    73b0:	f000 0002 	and.w	r0, r0, #2
}
    73b4:	2800      	cmp	r0, #0
    73b6:	bf14      	ite	ne
    73b8:	f04f 30ff 	movne.w	r0, #4294967295
    73bc:	2001      	moveq	r0, #1
    73be:	4770      	bx	lr

000073c0 <QEIErrorGet>:
    ASSERT((ulBase == QEI0_BASE) || (ulBase == QEI1_BASE));

    //
    // Return the error indicator.
    //
    return((HWREG(ulBase + QEI_O_STAT) & QEI_STAT_ERROR) ? true : false);
    73c0:	6840      	ldr	r0, [r0, #4]
}
    73c2:	f000 0001 	and.w	r0, r0, #1
    73c6:	4770      	bx	lr

000073c8 <QEIVelocityEnable>:
    ASSERT((ulBase == QEI0_BASE) || (ulBase == QEI1_BASE));

    //
    // Enable the velocity capture.
    //
    HWREG(ulBase + QEI_O_CTL) |= QEI_CTL_VELEN;
    73c8:	6803      	ldr	r3, [r0, #0]
    73ca:	f043 0320 	orr.w	r3, r3, #32
    73ce:	6003      	str	r3, [r0, #0]
}
    73d0:	4770      	bx	lr

000073d2 <QEIVelocityDisable>:
    ASSERT((ulBase == QEI0_BASE) || (ulBase == QEI1_BASE));

    //
    // Disable the velocity capture.
    //
    HWREG(ulBase + QEI_O_CTL) &= ~(QEI_CTL_VELEN);
    73d2:	6803      	ldr	r3, [r0, #0]
    73d4:	f023 0320 	bic.w	r3, r3, #32
    73d8:	6003      	str	r3, [r0, #0]
}
    73da:	4770      	bx	lr

000073dc <QEIVelocityConfigure>:
    ASSERT(ulPeriod != 0);

    //
    // Set the velocity predivider.
    //
    HWREG(ulBase + QEI_O_CTL) = ((HWREG(ulBase + QEI_O_CTL) &
    73dc:	6803      	ldr	r3, [r0, #0]
                                  ~(QEI_CTL_VELDIV_M)) | ulPreDiv);

    //
    // Set the timer period.
    //
    HWREG(ulBase + QEI_O_LOAD) = ulPeriod - 1;
    73de:	3a01      	subs	r2, #1
    ASSERT(ulPeriod != 0);

    //
    // Set the velocity predivider.
    //
    HWREG(ulBase + QEI_O_CTL) = ((HWREG(ulBase + QEI_O_CTL) &
    73e0:	f423 73e0 	bic.w	r3, r3, #448	; 0x1c0
    73e4:	430b      	orrs	r3, r1
    73e6:	6003      	str	r3, [r0, #0]
                                  ~(QEI_CTL_VELDIV_M)) | ulPreDiv);

    //
    // Set the timer period.
    //
    HWREG(ulBase + QEI_O_LOAD) = ulPeriod - 1;
    73e8:	6102      	str	r2, [r0, #16]
}
    73ea:	4770      	bx	lr

000073ec <QEIVelocityGet>:
    ASSERT((ulBase == QEI0_BASE) || (ulBase == QEI1_BASE));

    //
    // Return the speed capture value.
    //
    return(HWREG(ulBase + QEI_O_SPEED));
    73ec:	69c0      	ldr	r0, [r0, #28]
}
    73ee:	4770      	bx	lr

000073f0 <QEIIntEnable>:
    ASSERT((ulBase == QEI0_BASE) || (ulBase == QEI1_BASE));

    //
    // Enable the specified interrupts.
    //
    HWREG(ulBase + QEI_O_INTEN) |= ulIntFlags;
    73f0:	6a03      	ldr	r3, [r0, #32]
    73f2:	430b      	orrs	r3, r1
    73f4:	6203      	str	r3, [r0, #32]
}
    73f6:	4770      	bx	lr

000073f8 <QEIIntDisable>:
    ASSERT((ulBase == QEI0_BASE) || (ulBase == QEI1_BASE));

    //
    // Disable the specified interrupts.
    //
    HWREG(ulBase + QEI_O_INTEN) &= ~(ulIntFlags);
    73f8:	6a03      	ldr	r3, [r0, #32]
    73fa:	ea23 0301 	bic.w	r3, r3, r1
    73fe:	6203      	str	r3, [r0, #32]
}
    7400:	4770      	bx	lr

00007402 <QEIIntStatus>:

    //
    // Return either the interrupt status or the raw interrupt status as
    // requested.
    //
    if(bMasked)
    7402:	b109      	cbz	r1, 7408 <QEIIntStatus+0x6>
    {
        return(HWREG(ulBase + QEI_O_ISC));
    7404:	6a80      	ldr	r0, [r0, #40]	; 0x28
    7406:	4770      	bx	lr
    }
    else
    {
        return(HWREG(ulBase + QEI_O_RIS));
    7408:	6a40      	ldr	r0, [r0, #36]	; 0x24
    }
}
    740a:	4770      	bx	lr

0000740c <QEIIntClear>:
    ASSERT((ulBase == QEI0_BASE) || (ulBase == QEI1_BASE));

    //
    // Clear the requested interrupt sources.
    //
    HWREG(ulBase + QEI_O_ISC) = ulIntFlags;
    740c:	6281      	str	r1, [r0, #40]	; 0x28
}
    740e:	4770      	bx	lr

00007410 <QEIIntUnregister>:
//! \return None.
//
//*****************************************************************************
void
QEIIntUnregister(unsigned long ulBase)
{
    7410:	b510      	push	{r4, lr}
    ASSERT((ulBase == QEI0_BASE) || (ulBase == QEI1_BASE));

    //
    // Determine the interrupt number based on the QEI module.
    //
    ulInt = (ulBase == QEI0_BASE) ? INT_QEI0 : INT_QEI1;
    7412:	4c06      	ldr	r4, [pc, #24]	; (742c <QEIIntUnregister+0x1c>)
    7414:	42a0      	cmp	r0, r4
    7416:	bf0c      	ite	eq
    7418:	241d      	moveq	r4, #29
    741a:	2436      	movne	r4, #54	; 0x36

    //
    // Disable the interrupt.
    //
    IntDisable(ulInt);
    741c:	4620      	mov	r0, r4
    741e:	f7ff ff17 	bl	7250 <IntDisable>

    //
    // Unregister the interrupt handler.
    //
    IntUnregister(ulInt);
    7422:	4620      	mov	r0, r4
}
    7424:	e8bd 4010 	ldmia.w	sp!, {r4, lr}
    IntDisable(ulInt);

    //
    // Unregister the interrupt handler.
    //
    IntUnregister(ulInt);
    7428:	f7ff be8a 	b.w	7140 <IntUnregister>
    742c:	4002c000 	.word	0x4002c000

00007430 <QEIIntRegister>:
//! \return None.
//
//*****************************************************************************
void
QEIIntRegister(unsigned long ulBase, void (*pfnHandler)(void))
{
    7430:	b510      	push	{r4, lr}
    ASSERT((ulBase == QEI0_BASE) || (ulBase == QEI1_BASE));

    //
    // Determine the interrupt number based on the QEI module.
    //
    ulInt = (ulBase == QEI0_BASE) ? INT_QEI0 : INT_QEI1;
    7432:	4c06      	ldr	r4, [pc, #24]	; (744c <QEIIntRegister+0x1c>)
    7434:	42a0      	cmp	r0, r4
    7436:	bf0c      	ite	eq
    7438:	241d      	moveq	r4, #29
    743a:	2436      	movne	r4, #54	; 0x36

    //
    // Register the interrupt handler, returning an error if an error occurs.
    //
    IntRegister(ulInt, pfnHandler);
    743c:	4620      	mov	r0, r4
    743e:	f7ff fe66 	bl	710e <IntRegister>

    //
    // Enable the quadrature encoder interrupt.
    //
    IntEnable(ulInt);
    7442:	4620      	mov	r0, r4
}
    7444:	e8bd 4010 	ldmia.w	sp!, {r4, lr}
    IntRegister(ulInt, pfnHandler);

    //
    // Enable the quadrature encoder interrupt.
    //
    IntEnable(ulInt);
    7448:	f7ff beca 	b.w	71e0 <IntEnable>
    744c:	4002c000 	.word	0x4002c000

00007450 <SSIConfigSetExpClk>:
    ASSERT((ulDataWidth >= 4) && (ulDataWidth <= 16));

    //
    // Set the mode.
    //
    ulRegVal = (ulMode == SSI_MODE_SLAVE_OD) ? SSI_CR1_SOD : 0;
    7450:	2b02      	cmp	r3, #2
    7452:	d101      	bne.n	7458 <SSIConfigSetExpClk+0x8>
    7454:	3306      	adds	r3, #6
    7456:	e003      	b.n	7460 <SSIConfigSetExpClk+0x10>
    ulRegVal |= (ulMode == SSI_MODE_MASTER) ? 0 : SSI_CR1_MS;
    7458:	b90b      	cbnz	r3, 745e <SSIConfigSetExpClk+0xe>
    745a:	469c      	mov	ip, r3
    745c:	e002      	b.n	7464 <SSIConfigSetExpClk+0x14>
    745e:	2300      	movs	r3, #0
    7460:	f04f 0c04 	mov.w	ip, #4
    7464:	ea43 030c 	orr.w	r3, r3, ip
    HWREG(ulBase + SSI_O_CR1) = ulRegVal;
    7468:	6043      	str	r3, [r0, #4]

    //
    // Set the clock predivider.
    //
    ulMaxBitRate = ulSSIClk / ulBitRate;
    746a:	9b00      	ldr	r3, [sp, #0]
    746c:	fbb1 f1f3 	udiv	r1, r1, r3
    7470:	2300      	movs	r3, #0
    ulPreDiv = 0;
    do
    {
        ulPreDiv += 2;
    7472:	3302      	adds	r3, #2
        ulSCR = (ulMaxBitRate / ulPreDiv) - 1;
    7474:	fbb1 fcf3 	udiv	ip, r1, r3
    7478:	f10c 3cff 	add.w	ip, ip, #4294967295
    }
    while(ulSCR > 255);
    747c:	f1bc 0fff 	cmp.w	ip, #255	; 0xff
    7480:	d8f7      	bhi.n	7472 <SSIConfigSetExpClk+0x22>
    HWREG(ulBase + SSI_O_CPSR) = ulPreDiv;
    7482:	6103      	str	r3, [r0, #16]
    //
    // Set protocol and clock rate.
    //
    ulSPH_SPO = (ulProtocol & 3) << 6;
    ulProtocol &= SSI_CR0_FRF_M;
    ulRegVal = (ulSCR << 8) | ulSPH_SPO | ulProtocol | (ulDataWidth - 1);
    7484:	0193      	lsls	r3, r2, #6
    7486:	f003 03ff 	and.w	r3, r3, #255	; 0xff
    748a:	f002 0230 	and.w	r2, r2, #48	; 0x30
    748e:	ea43 0202 	orr.w	r2, r3, r2
    7492:	9b01      	ldr	r3, [sp, #4]
    7494:	3b01      	subs	r3, #1
    7496:	431a      	orrs	r2, r3
    7498:	ea42 220c 	orr.w	r2, r2, ip, lsl #8
    HWREG(ulBase + SSI_O_CR0) = ulRegVal;
    749c:	6002      	str	r2, [r0, #0]
}
    749e:	4770      	bx	lr

000074a0 <SSIEnable>:
    ASSERT((ulBase == SSI0_BASE) || (ulBase == SSI1_BASE));

    //
    // Read-modify-write the enable bit.
    //
    HWREG(ulBase + SSI_O_CR1) |= SSI_CR1_SSE;
    74a0:	6843      	ldr	r3, [r0, #4]
    74a2:	f043 0302 	orr.w	r3, r3, #2
    74a6:	6043      	str	r3, [r0, #4]
}
    74a8:	4770      	bx	lr

000074aa <SSIDisable>:
    ASSERT((ulBase == SSI0_BASE) || (ulBase == SSI1_BASE));

    //
    // Read-modify-write the enable bit.
    //
    HWREG(ulBase + SSI_O_CR1) &= ~(SSI_CR1_SSE);
    74aa:	6843      	ldr	r3, [r0, #4]
    74ac:	f023 0302 	bic.w	r3, r3, #2
    74b0:	6043      	str	r3, [r0, #4]
}
    74b2:	4770      	bx	lr

000074b4 <SSIIntEnable>:
    ASSERT((ulBase == SSI0_BASE) || (ulBase == SSI1_BASE));

    //
    // Enable the specified interrupts.
    //
    HWREG(ulBase + SSI_O_IM) |= ulIntFlags;
    74b4:	6943      	ldr	r3, [r0, #20]
    74b6:	430b      	orrs	r3, r1
    74b8:	6143      	str	r3, [r0, #20]
}
    74ba:	4770      	bx	lr

000074bc <SSIIntDisable>:
    ASSERT((ulBase == SSI0_BASE) || (ulBase == SSI1_BASE));

    //
    // Disable the specified interrupts.
    //
    HWREG(ulBase + SSI_O_IM) &= ~(ulIntFlags);
    74bc:	6943      	ldr	r3, [r0, #20]
    74be:	ea23 0301 	bic.w	r3, r3, r1
    74c2:	6143      	str	r3, [r0, #20]
}
    74c4:	4770      	bx	lr

000074c6 <SSIIntStatus>:

    //
    // Return either the interrupt status or the raw interrupt status as
    // requested.
    //
    if(bMasked)
    74c6:	b109      	cbz	r1, 74cc <SSIIntStatus+0x6>
    {
        return(HWREG(ulBase + SSI_O_MIS));
    74c8:	69c0      	ldr	r0, [r0, #28]
    74ca:	4770      	bx	lr
    }
    else
    {
        return(HWREG(ulBase + SSI_O_RIS));
    74cc:	6980      	ldr	r0, [r0, #24]
    }
}
    74ce:	4770      	bx	lr

000074d0 <SSIIntClear>:
    ASSERT((ulBase == SSI0_BASE) || (ulBase == SSI1_BASE));

    //
    // Clear the requested interrupt sources.
    //
    HWREG(ulBase + SSI_O_ICR) = ulIntFlags;
    74d0:	6201      	str	r1, [r0, #32]
}
    74d2:	4770      	bx	lr

000074d4 <SSIDataPut>:
                                     SSI_CR0_DSS_M))) == 0);

    //
    // Wait until there is space.
    //
    while(!(HWREG(ulBase + SSI_O_SR) & SSI_SR_TNF))
    74d4:	68c3      	ldr	r3, [r0, #12]
    74d6:	f013 0f02 	tst.w	r3, #2
    74da:	d0fb      	beq.n	74d4 <SSIDataPut>
    }

    //
    // Write the data to the SSI.
    //
    HWREG(ulBase + SSI_O_DR) = ulData;
    74dc:	6081      	str	r1, [r0, #8]
}
    74de:	4770      	bx	lr

000074e0 <SSIDataPutNonBlocking>:
                                     SSI_CR0_DSS_M))) == 0);

    //
    // Check for space to write.
    //
    if(HWREG(ulBase + SSI_O_SR) & SSI_SR_TNF)
    74e0:	68c3      	ldr	r3, [r0, #12]
    74e2:	f013 0302 	ands.w	r3, r3, #2
    74e6:	bf0e      	itee	eq
    74e8:	4618      	moveq	r0, r3
    {
        HWREG(ulBase + SSI_O_DR) = ulData;
    74ea:	6081      	strne	r1, [r0, #8]
    74ec:	2001      	movne	r0, #1
    }
    else
    {
        return(0);
    }
}
    74ee:	4770      	bx	lr

000074f0 <SSIDataGet>:
    ASSERT((ulBase == SSI0_BASE) || (ulBase == SSI1_BASE));

    //
    // Wait until there is data to be read.
    //
    while(!(HWREG(ulBase + SSI_O_SR) & SSI_SR_RNE))
    74f0:	68c3      	ldr	r3, [r0, #12]
    74f2:	f013 0f04 	tst.w	r3, #4
    74f6:	d0fb      	beq.n	74f0 <SSIDataGet>
    }

    //
    // Read data from SSI.
    //
    *pulData = HWREG(ulBase + SSI_O_DR);
    74f8:	6883      	ldr	r3, [r0, #8]
    74fa:	600b      	str	r3, [r1, #0]
}
    74fc:	4770      	bx	lr

000074fe <SSIDataGetNonBlocking>:
    ASSERT((ulBase == SSI0_BASE) || (ulBase == SSI1_BASE));

    //
    // Check for data to read.
    //
    if(HWREG(ulBase + SSI_O_SR) & SSI_SR_RNE)
    74fe:	68c3      	ldr	r3, [r0, #12]
    7500:	f013 0304 	ands.w	r3, r3, #4
    7504:	d101      	bne.n	750a <SSIDataGetNonBlocking+0xc>
    7506:	4618      	mov	r0, r3
    7508:	4770      	bx	lr
    {
        *pulData = HWREG(ulBase + SSI_O_DR);
    750a:	6883      	ldr	r3, [r0, #8]
    750c:	2001      	movs	r0, #1
    750e:	600b      	str	r3, [r1, #0]
    }
    else
    {
        return(0);
    }
}
    7510:	4770      	bx	lr

00007512 <SSIDMAEnable>:
    ASSERT((ulBase == SSI0_BASE) || (ulBase == SSI1_BASE));

    //
    // Set the requested bits in the UART DMA control register.
    //
    HWREG(ulBase + SSI_O_DMACTL) |= ulDMAFlags;
    7512:	6a43      	ldr	r3, [r0, #36]	; 0x24
    7514:	430b      	orrs	r3, r1
    7516:	6243      	str	r3, [r0, #36]	; 0x24
}
    7518:	4770      	bx	lr

0000751a <SSIDMADisable>:
    ASSERT((ulBase == SSI0_BASE) || (ulBase == SSI1_BASE));

    //
    // Clear the requested bits in the UART DMA control register.
    //
    HWREG(ulBase + SSI_O_DMACTL) &= ~ulDMAFlags;
    751a:	6a43      	ldr	r3, [r0, #36]	; 0x24
    751c:	ea23 0301 	bic.w	r3, r3, r1
    7520:	6243      	str	r3, [r0, #36]	; 0x24
}
    7522:	4770      	bx	lr

00007524 <SSIBusy>:
    ASSERT((ulBase == SSI0_BASE) || (ulBase == SSI1_BASE));

    //
    // Determine if the SSI is busy.
    //
    return((HWREG(ulBase + SSI_O_SR) & SSI_SR_BSY) ? true : false);
    7524:	68c0      	ldr	r0, [r0, #12]
    7526:	0900      	lsrs	r0, r0, #4
}
    7528:	f000 0001 	and.w	r0, r0, #1
    752c:	4770      	bx	lr

0000752e <SSIIntUnregister>:
//! \return None.
//
//*****************************************************************************
void
SSIIntUnregister(unsigned long ulBase)
{
    752e:	b510      	push	{r4, lr}
    ASSERT((ulBase == SSI0_BASE) || (ulBase == SSI1_BASE));

    //
    // Determine the interrupt number based on the SSI port.
    //
    ulInt = (ulBase == SSI0_BASE) ? INT_SSI0 : INT_SSI1;
    7530:	4c06      	ldr	r4, [pc, #24]	; (754c <SSIIntUnregister+0x1e>)
    7532:	42a0      	cmp	r0, r4
    7534:	bf0c      	ite	eq
    7536:	2417      	moveq	r4, #23
    7538:	2432      	movne	r4, #50	; 0x32

    //
    // Disable the interrupt.
    //
    IntDisable(ulInt);
    753a:	4620      	mov	r0, r4
    753c:	f7ff fe88 	bl	7250 <IntDisable>

    //
    // Unregister the interrupt handler.
    //
    IntUnregister(ulInt);
    7540:	4620      	mov	r0, r4
}
    7542:	e8bd 4010 	ldmia.w	sp!, {r4, lr}
    IntDisable(ulInt);

    //
    // Unregister the interrupt handler.
    //
    IntUnregister(ulInt);
    7546:	f7ff bdfb 	b.w	7140 <IntUnregister>
    754a:	bf00      	nop
    754c:	40008000 	.word	0x40008000

00007550 <SSIIntRegister>:
//! \return None.
//
//*****************************************************************************
void
SSIIntRegister(unsigned long ulBase, void (*pfnHandler)(void))
{
    7550:	b510      	push	{r4, lr}
    ASSERT((ulBase == SSI0_BASE) || (ulBase == SSI1_BASE));

    //
    // Determine the interrupt number based on the SSI port.
    //
    ulInt = (ulBase == SSI0_BASE) ? INT_SSI0 : INT_SSI1;
    7552:	4c06      	ldr	r4, [pc, #24]	; (756c <SSIIntRegister+0x1c>)
    7554:	42a0      	cmp	r0, r4
    7556:	bf0c      	ite	eq
    7558:	2417      	moveq	r4, #23
    755a:	2432      	movne	r4, #50	; 0x32

    //
    // Register the interrupt handler, returning an error if an error occurs.
    //
    IntRegister(ulInt, pfnHandler);
    755c:	4620      	mov	r0, r4
    755e:	f7ff fdd6 	bl	710e <IntRegister>

    //
    // Enable the synchronous serial interface interrupt.
    //
    IntEnable(ulInt);
    7562:	4620      	mov	r0, r4
}
    7564:	e8bd 4010 	ldmia.w	sp!, {r4, lr}
    IntRegister(ulInt, pfnHandler);

    //
    // Enable the synchronous serial interface interrupt.
    //
    IntEnable(ulInt);
    7568:	f7ff be3a 	b.w	71e0 <IntEnable>
    756c:	40008000 	.word	0x40008000

00007570 <SysCtlSRAMSizeGet>:
SysCtlSRAMSizeGet(void)
{
    //
    // Compute the size of the SRAM.
    //
    return(((HWREG(SYSCTL_DC0) & SYSCTL_DC0_SRAMSZ_M) >> 8) + 0x100);
    7570:	4b03      	ldr	r3, [pc, #12]	; (7580 <SysCtlSRAMSizeGet+0x10>)
    7572:	6818      	ldr	r0, [r3, #0]
    7574:	0c00      	lsrs	r0, r0, #16
    7576:	0400      	lsls	r0, r0, #16
    7578:	0a00      	lsrs	r0, r0, #8
}
    757a:	f500 7080 	add.w	r0, r0, #256	; 0x100
    757e:	4770      	bx	lr
    7580:	400fe008 	.word	0x400fe008

00007584 <SysCtlFlashSizeGet>:
SysCtlFlashSizeGet(void)
{
    //
    // Compute the size of the flash.
    //
    return(((HWREG(SYSCTL_DC0) & SYSCTL_DC0_FLASHSZ_M) << 11) + 0x800);
    7584:	4b03      	ldr	r3, [pc, #12]	; (7594 <SysCtlFlashSizeGet+0x10>)
    7586:	6818      	ldr	r0, [r3, #0]
    7588:	b280      	uxth	r0, r0
    758a:	02c0      	lsls	r0, r0, #11
}
    758c:	f500 6000 	add.w	r0, r0, #2048	; 0x800
    7590:	4770      	bx	lr
    7592:	bf00      	nop
    7594:	400fe008 	.word	0x400fe008

00007598 <SysCtlPinPresent>:
           (ulPin == SYSCTL_PIN_32KHZ));

    //
    // Determine if this pin is present.
    //
    if(HWREG(SYSCTL_DC3) & ulPin)
    7598:	4b03      	ldr	r3, [pc, #12]	; (75a8 <SysCtlPinPresent+0x10>)
    759a:	681b      	ldr	r3, [r3, #0]
    759c:	4218      	tst	r0, r3
    }
    else
    {
        return(false);
    }
}
    759e:	bf0c      	ite	eq
    75a0:	2000      	moveq	r0, #0
    75a2:	2001      	movne	r0, #1
    75a4:	4770      	bx	lr
    75a6:	bf00      	nop
    75a8:	400fe018 	.word	0x400fe018

000075ac <SysCtlPeripheralPresent>:
    ASSERT(SysCtlPeripheralValid(ulPeripheral));

    //
    // Read the correct DC register and determine if this peripheral exists.
    //
    if(ulPeripheral == SYSCTL_PERIPH_USB0)
    75ac:	4b0c      	ldr	r3, [pc, #48]	; (75e0 <SysCtlPeripheralPresent+0x34>)
    75ae:	4298      	cmp	r0, r3
    75b0:	d105      	bne.n	75be <SysCtlPeripheralPresent+0x12>
    {
        //
        // USB is a special case since the DC bit is missing for USB0.
        //
        if(HWREG(SYSCTL_DC6) && SYSCTL_DC6_USB0_M)
    75b2:	4b0c      	ldr	r3, [pc, #48]	; (75e4 <SysCtlPeripheralPresent+0x38>)
    75b4:	6818      	ldr	r0, [r3, #0]
    75b6:	3800      	subs	r0, #0
    75b8:	bf18      	it	ne
    75ba:	2001      	movne	r0, #1
    75bc:	4770      	bx	lr
        else
        {
            return(false);
        }
    }
    else if(HWREG(g_pulDCRegs[SYSCTL_PERIPH_INDEX(ulPeripheral)]) &
    75be:	4b0a      	ldr	r3, [pc, #40]	; (75e8 <SysCtlPeripheralPresent+0x3c>)
    75c0:	0f02      	lsrs	r2, r0, #28
    75c2:	f853 3022 	ldr.w	r3, [r3, r2, lsl #2]
    75c6:	b282      	uxth	r2, r0
    75c8:	f400 10f8 	and.w	r0, r0, #2031616	; 0x1f0000
    75cc:	0c00      	lsrs	r0, r0, #16
    75ce:	fa12 f000 	lsls.w	r0, r2, r0
    75d2:	681b      	ldr	r3, [r3, #0]
    75d4:	4218      	tst	r0, r3
    75d6:	bf0c      	ite	eq
    75d8:	2000      	moveq	r0, #0
    75da:	2001      	movne	r0, #1
    }
    else
    {
        return(false);
    }
}
    75dc:	4770      	bx	lr
    75de:	bf00      	nop
    75e0:	20100001 	.word	0x20100001
    75e4:	400fe024 	.word	0x400fe024
    75e8:	00009624 	.word	0x00009624

000075ec <SysCtlPeripheralReset>:
    ASSERT(SysCtlPeripheralValid(ulPeripheral));

    //
    // Put the peripheral into the reset state.
    //
    HWREG(g_pulSRCRRegs[SYSCTL_PERIPH_INDEX(ulPeripheral)]) |=
    75ec:	0f02      	lsrs	r2, r0, #28
        SYSCTL_PERIPH_MASK(ulPeripheral);
    75ee:	b281      	uxth	r1, r0
    75f0:	f400 10f8 	and.w	r0, r0, #2031616	; 0x1f0000
    75f4:	0c00      	lsrs	r0, r0, #16
    75f6:	fa11 f000 	lsls.w	r0, r1, r0
    ASSERT(SysCtlPeripheralValid(ulPeripheral));

    //
    // Put the peripheral into the reset state.
    //
    HWREG(g_pulSRCRRegs[SYSCTL_PERIPH_INDEX(ulPeripheral)]) |=
    75fa:	4b0b      	ldr	r3, [pc, #44]	; (7628 <SysCtlPeripheralReset+0x3c>)
//! \return None.
//
//*****************************************************************************
void
SysCtlPeripheralReset(unsigned long ulPeripheral)
{
    75fc:	b082      	sub	sp, #8
    ASSERT(SysCtlPeripheralValid(ulPeripheral));

    //
    // Put the peripheral into the reset state.
    //
    HWREG(g_pulSRCRRegs[SYSCTL_PERIPH_INDEX(ulPeripheral)]) |=
    75fe:	eb03 0382 	add.w	r3, r3, r2, lsl #2
    7602:	691b      	ldr	r3, [r3, #16]
    7604:	681a      	ldr	r2, [r3, #0]
    7606:	ea40 0202 	orr.w	r2, r0, r2
    760a:	601a      	str	r2, [r3, #0]
        SYSCTL_PERIPH_MASK(ulPeripheral);

    //
    // Delay for a little bit.
    //
    for(ulDelay = 0; ulDelay < 16; ulDelay++)
    760c:	2200      	movs	r2, #0
    760e:	e001      	b.n	7614 <SysCtlPeripheralReset+0x28>
    7610:	9a01      	ldr	r2, [sp, #4]
    7612:	3201      	adds	r2, #1
    7614:	9201      	str	r2, [sp, #4]
    7616:	9a01      	ldr	r2, [sp, #4]
    7618:	2a0f      	cmp	r2, #15
    761a:	d9f9      	bls.n	7610 <SysCtlPeripheralReset+0x24>
    }

    //
    // Take the peripheral out of the reset state.
    //
    HWREG(g_pulSRCRRegs[SYSCTL_PERIPH_INDEX(ulPeripheral)]) &=
    761c:	681a      	ldr	r2, [r3, #0]
    761e:	ea22 0000 	bic.w	r0, r2, r0
    7622:	6018      	str	r0, [r3, #0]
        ~SYSCTL_PERIPH_MASK(ulPeripheral);
}
    7624:	b002      	add	sp, #8
    7626:	4770      	bx	lr
    7628:	00009624 	.word	0x00009624

0000762c <SysCtlPeripheralEnable>:
    ASSERT(SysCtlPeripheralValid(ulPeripheral));

    //
    // Enable this peripheral.
    //
    HWREG(g_pulRCGCRegs[SYSCTL_PERIPH_INDEX(ulPeripheral)]) |=
    762c:	0f02      	lsrs	r2, r0, #28
    762e:	b281      	uxth	r1, r0
    7630:	f400 10f8 	and.w	r0, r0, #2031616	; 0x1f0000
    7634:	0c00      	lsrs	r0, r0, #16
    7636:	fa11 f000 	lsls.w	r0, r1, r0
    763a:	4b04      	ldr	r3, [pc, #16]	; (764c <SysCtlPeripheralEnable+0x20>)
    763c:	eb03 0382 	add.w	r3, r3, r2, lsl #2
    7640:	69db      	ldr	r3, [r3, #28]
    7642:	681a      	ldr	r2, [r3, #0]
    7644:	4310      	orrs	r0, r2
    7646:	6018      	str	r0, [r3, #0]
        SYSCTL_PERIPH_MASK(ulPeripheral);
}
    7648:	4770      	bx	lr
    764a:	bf00      	nop
    764c:	00009624 	.word	0x00009624

00007650 <SysCtlPeripheralDisable>:
    ASSERT(SysCtlPeripheralValid(ulPeripheral));

    //
    // Disable this peripheral.
    //
    HWREG(g_pulRCGCRegs[SYSCTL_PERIPH_INDEX(ulPeripheral)]) &=
    7650:	0f02      	lsrs	r2, r0, #28
    7652:	b281      	uxth	r1, r0
    7654:	f400 10f8 	and.w	r0, r0, #2031616	; 0x1f0000
    7658:	0c00      	lsrs	r0, r0, #16
    765a:	fa11 f000 	lsls.w	r0, r1, r0
    765e:	4b04      	ldr	r3, [pc, #16]	; (7670 <SysCtlPeripheralDisable+0x20>)
    7660:	eb03 0382 	add.w	r3, r3, r2, lsl #2
    7664:	69db      	ldr	r3, [r3, #28]
    7666:	681a      	ldr	r2, [r3, #0]
    7668:	ea22 0000 	bic.w	r0, r2, r0
    766c:	6018      	str	r0, [r3, #0]
        ~SYSCTL_PERIPH_MASK(ulPeripheral);
}
    766e:	4770      	bx	lr
    7670:	00009624 	.word	0x00009624

00007674 <SysCtlPeripheralSleepEnable>:
    ASSERT(SysCtlPeripheralValid(ulPeripheral));

    //
    // Enable this peripheral in sleep mode.
    //
    HWREG(g_pulSCGCRegs[SYSCTL_PERIPH_INDEX(ulPeripheral)]) |=
    7674:	0f02      	lsrs	r2, r0, #28
    7676:	b281      	uxth	r1, r0
    7678:	f400 10f8 	and.w	r0, r0, #2031616	; 0x1f0000
    767c:	0c00      	lsrs	r0, r0, #16
    767e:	fa11 f000 	lsls.w	r0, r1, r0
    7682:	4b04      	ldr	r3, [pc, #16]	; (7694 <SysCtlPeripheralSleepEnable+0x20>)
    7684:	eb03 0382 	add.w	r3, r3, r2, lsl #2
    7688:	6a9b      	ldr	r3, [r3, #40]	; 0x28
    768a:	681a      	ldr	r2, [r3, #0]
    768c:	4310      	orrs	r0, r2
    768e:	6018      	str	r0, [r3, #0]
        SYSCTL_PERIPH_MASK(ulPeripheral);
}
    7690:	4770      	bx	lr
    7692:	bf00      	nop
    7694:	00009624 	.word	0x00009624

00007698 <SysCtlPeripheralSleepDisable>:
    ASSERT(SysCtlPeripheralValid(ulPeripheral));

    //
    // Disable this peripheral in sleep mode.
    //
    HWREG(g_pulSCGCRegs[SYSCTL_PERIPH_INDEX(ulPeripheral)]) &=
    7698:	0f02      	lsrs	r2, r0, #28
    769a:	b281      	uxth	r1, r0
    769c:	f400 10f8 	and.w	r0, r0, #2031616	; 0x1f0000
    76a0:	0c00      	lsrs	r0, r0, #16
    76a2:	fa11 f000 	lsls.w	r0, r1, r0
    76a6:	4b04      	ldr	r3, [pc, #16]	; (76b8 <SysCtlPeripheralSleepDisable+0x20>)
    76a8:	eb03 0382 	add.w	r3, r3, r2, lsl #2
    76ac:	6a9b      	ldr	r3, [r3, #40]	; 0x28
    76ae:	681a      	ldr	r2, [r3, #0]
    76b0:	ea22 0000 	bic.w	r0, r2, r0
    76b4:	6018      	str	r0, [r3, #0]
        ~SYSCTL_PERIPH_MASK(ulPeripheral);
}
    76b6:	4770      	bx	lr
    76b8:	00009624 	.word	0x00009624

000076bc <SysCtlPeripheralDeepSleepEnable>:
    ASSERT(SysCtlPeripheralValid(ulPeripheral));

    //
    // Enable this peripheral in deep-sleep mode.
    //
    HWREG(g_pulDCGCRegs[SYSCTL_PERIPH_INDEX(ulPeripheral)]) |=
    76bc:	0f02      	lsrs	r2, r0, #28
    76be:	b281      	uxth	r1, r0
    76c0:	f400 10f8 	and.w	r0, r0, #2031616	; 0x1f0000
    76c4:	0c00      	lsrs	r0, r0, #16
    76c6:	fa11 f000 	lsls.w	r0, r1, r0
    76ca:	4b04      	ldr	r3, [pc, #16]	; (76dc <SysCtlPeripheralDeepSleepEnable+0x20>)
    76cc:	eb03 0382 	add.w	r3, r3, r2, lsl #2
    76d0:	6b5b      	ldr	r3, [r3, #52]	; 0x34
    76d2:	681a      	ldr	r2, [r3, #0]
    76d4:	4310      	orrs	r0, r2
    76d6:	6018      	str	r0, [r3, #0]
        SYSCTL_PERIPH_MASK(ulPeripheral);
}
    76d8:	4770      	bx	lr
    76da:	bf00      	nop
    76dc:	00009624 	.word	0x00009624

000076e0 <SysCtlPeripheralDeepSleepDisable>:
    ASSERT(SysCtlPeripheralValid(ulPeripheral));

    //
    // Disable this peripheral in deep-sleep mode.
    //
    HWREG(g_pulDCGCRegs[SYSCTL_PERIPH_INDEX(ulPeripheral)]) &=
    76e0:	0f02      	lsrs	r2, r0, #28
    76e2:	b281      	uxth	r1, r0
    76e4:	f400 10f8 	and.w	r0, r0, #2031616	; 0x1f0000
    76e8:	0c00      	lsrs	r0, r0, #16
    76ea:	fa11 f000 	lsls.w	r0, r1, r0
    76ee:	4b04      	ldr	r3, [pc, #16]	; (7700 <SysCtlPeripheralDeepSleepDisable+0x20>)
    76f0:	eb03 0382 	add.w	r3, r3, r2, lsl #2
    76f4:	6b5b      	ldr	r3, [r3, #52]	; 0x34
    76f6:	681a      	ldr	r2, [r3, #0]
    76f8:	ea22 0000 	bic.w	r0, r2, r0
    76fc:	6018      	str	r0, [r3, #0]
        ~SYSCTL_PERIPH_MASK(ulPeripheral);
}
    76fe:	4770      	bx	lr
    7700:	00009624 	.word	0x00009624

00007704 <SysCtlPeripheralClockGating>:
SysCtlPeripheralClockGating(tBoolean bEnable)
{
    //
    // Enable peripheral clock gating as requested.
    //
    if(bEnable)
    7704:	b120      	cbz	r0, 7710 <SysCtlPeripheralClockGating+0xc>
    {
        HWREG(SYSCTL_RCC) |= SYSCTL_RCC_ACG;
    7706:	4b05      	ldr	r3, [pc, #20]	; (771c <SysCtlPeripheralClockGating+0x18>)
    7708:	681a      	ldr	r2, [r3, #0]
    770a:	f042 6200 	orr.w	r2, r2, #134217728	; 0x8000000
    770e:	e003      	b.n	7718 <SysCtlPeripheralClockGating+0x14>
    }
    else
    {
        HWREG(SYSCTL_RCC) &= ~(SYSCTL_RCC_ACG);
    7710:	4b02      	ldr	r3, [pc, #8]	; (771c <SysCtlPeripheralClockGating+0x18>)
    7712:	681a      	ldr	r2, [r3, #0]
    7714:	f022 6200 	bic.w	r2, r2, #134217728	; 0x8000000
    7718:	601a      	str	r2, [r3, #0]
    771a:	4770      	bx	lr
    771c:	400fe060 	.word	0x400fe060

00007720 <SysCtlIntEnable>:
SysCtlIntEnable(unsigned long ulInts)
{
    //
    // Enable the specified interrupts.
    //
    HWREG(SYSCTL_IMC) |= ulInts;
    7720:	4b02      	ldr	r3, [pc, #8]	; (772c <SysCtlIntEnable+0xc>)
    7722:	681a      	ldr	r2, [r3, #0]
    7724:	ea40 0202 	orr.w	r2, r0, r2
    7728:	601a      	str	r2, [r3, #0]
}
    772a:	4770      	bx	lr
    772c:	400fe054 	.word	0x400fe054

00007730 <SysCtlIntDisable>:
SysCtlIntDisable(unsigned long ulInts)
{
    //
    // Disable the specified interrupts.
    //
    HWREG(SYSCTL_IMC) &= ~(ulInts);
    7730:	4b02      	ldr	r3, [pc, #8]	; (773c <SysCtlIntDisable+0xc>)
    7732:	681a      	ldr	r2, [r3, #0]
    7734:	ea22 0200 	bic.w	r2, r2, r0
    7738:	601a      	str	r2, [r3, #0]
}
    773a:	4770      	bx	lr
    773c:	400fe054 	.word	0x400fe054

00007740 <SysCtlIntClear>:
SysCtlIntClear(unsigned long ulInts)
{
    //
    // Clear the requested interrupt sources.
    //
    HWREG(SYSCTL_MISC) = ulInts;
    7740:	4b01      	ldr	r3, [pc, #4]	; (7748 <SysCtlIntClear+0x8>)
    7742:	6018      	str	r0, [r3, #0]
}
    7744:	4770      	bx	lr
    7746:	bf00      	nop
    7748:	400fe058 	.word	0x400fe058

0000774c <SysCtlIntStatus>:
{
    //
    // Return either the interrupt status or the raw interrupt status as
    // requested.
    //
    if(bMasked)
    774c:	b110      	cbz	r0, 7754 <SysCtlIntStatus+0x8>
    {
        return(HWREG(SYSCTL_MISC));
    774e:	4b03      	ldr	r3, [pc, #12]	; (775c <SysCtlIntStatus+0x10>)
    7750:	6818      	ldr	r0, [r3, #0]
    7752:	4770      	bx	lr
    }
    else
    {
        return(HWREG(SYSCTL_RIS));
    7754:	4b02      	ldr	r3, [pc, #8]	; (7760 <SysCtlIntStatus+0x14>)
    7756:	6818      	ldr	r0, [r3, #0]
    }
}
    7758:	4770      	bx	lr
    775a:	bf00      	nop
    775c:	400fe058 	.word	0x400fe058
    7760:	400fe050 	.word	0x400fe050

00007764 <SysCtlLDOSet>:
           (ulVoltage == SYSCTL_LDO_2_75V));

    //
    // Set the LDO voltage to the requested value.
    //
    HWREG(SYSCTL_LDOPCTL) = ulVoltage;
    7764:	4b01      	ldr	r3, [pc, #4]	; (776c <SysCtlLDOSet+0x8>)
    7766:	6018      	str	r0, [r3, #0]
}
    7768:	4770      	bx	lr
    776a:	bf00      	nop
    776c:	400fe034 	.word	0x400fe034

00007770 <SysCtlLDOGet>:
SysCtlLDOGet(void)
{
    //
    // Return the LDO voltage setting.
    //
    return(HWREG(SYSCTL_LDOPCTL));
    7770:	4b01      	ldr	r3, [pc, #4]	; (7778 <SysCtlLDOGet+0x8>)
    7772:	6818      	ldr	r0, [r3, #0]
}
    7774:	4770      	bx	lr
    7776:	bf00      	nop
    7778:	400fe034 	.word	0x400fe034

0000777c <SysCtlLDOConfigSet>:
           (ulConfig == SYSCTL_LDOCFG_NORST));

    //
    // Set the reset control as requested.
    //
    HWREG(SYSCTL_LDOARST) = ulConfig;
    777c:	4b01      	ldr	r3, [pc, #4]	; (7784 <SysCtlLDOConfigSet+0x8>)
    777e:	6018      	str	r0, [r3, #0]
}
    7780:	4770      	bx	lr
    7782:	bf00      	nop
    7784:	400fe160 	.word	0x400fe160

00007788 <SysCtlReset>:
{
    //
    // Perform a software reset request.  This will cause the device to reset,
    // no further code will be executed.
    //
    HWREG(NVIC_APINT) = NVIC_APINT_VECTKEY | NVIC_APINT_SYSRESETREQ;
    7788:	4a01      	ldr	r2, [pc, #4]	; (7790 <SysCtlReset+0x8>)
    778a:	4b02      	ldr	r3, [pc, #8]	; (7794 <SysCtlReset+0xc>)
    778c:	601a      	str	r2, [r3, #0]
    778e:	e7fe      	b.n	778e <SysCtlReset+0x6>
    7790:	05fa0004 	.word	0x05fa0004
    7794:	e000ed0c 	.word	0xe000ed0c

00007798 <SysCtlResetCauseGet>:
SysCtlResetCauseGet(void)
{
    //
    // Return the reset reasons.
    //
    return(HWREG(SYSCTL_RESC));
    7798:	4b01      	ldr	r3, [pc, #4]	; (77a0 <SysCtlResetCauseGet+0x8>)
    779a:	6818      	ldr	r0, [r3, #0]
}
    779c:	4770      	bx	lr
    779e:	bf00      	nop
    77a0:	400fe05c 	.word	0x400fe05c

000077a4 <SysCtlResetCauseClear>:
SysCtlResetCauseClear(unsigned long ulCauses)
{
    //
    // Clear the given reset reasons.
    //
    HWREG(SYSCTL_RESC) &= ~(ulCauses);
    77a4:	4b02      	ldr	r3, [pc, #8]	; (77b0 <SysCtlResetCauseClear+0xc>)
    77a6:	681a      	ldr	r2, [r3, #0]
    77a8:	ea22 0200 	bic.w	r2, r2, r0
    77ac:	601a      	str	r2, [r3, #0]
}
    77ae:	4770      	bx	lr
    77b0:	400fe05c 	.word	0x400fe05c

000077b4 <SysCtlBrownOutConfigSet>:
    ASSERT(ulDelay < 8192);

    //
    // Configure the brown-out reset control.
    //
    HWREG(SYSCTL_PBORCTL) = (ulDelay << SYSCTL_PBORCTL_BORTIM_S) | ulConfig;
    77b4:	4b02      	ldr	r3, [pc, #8]	; (77c0 <SysCtlBrownOutConfigSet+0xc>)
    77b6:	ea40 0181 	orr.w	r1, r0, r1, lsl #2
    77ba:	6019      	str	r1, [r3, #0]
}
    77bc:	4770      	bx	lr
    77be:	bf00      	nop
    77c0:	400fe030 	.word	0x400fe030

000077c4 <SysCtlDelay>:
#endif
#if defined(codered) || defined(gcc) || defined(sourcerygxx)
void __attribute__((naked))
SysCtlDelay(unsigned long ulCount)
{
    __asm("    subs    r0, #1\n"
    77c4:	3801      	subs	r0, #1
    77c6:	d1fd      	bne.n	77c4 <SysCtlDelay>
    77c8:	4770      	bx	lr

000077ca <SysCtlClockSet>:

    //
    // See if this is a Sandstorm-class device and clocking features from newer
    // devices were requested.
    //
    if(CLASS_IS_SANDSTORM && (ulConfig & SYSCTL_RCC2_USERCC2))
    77ca:	4b4d      	ldr	r3, [pc, #308]	; (7900 <SysCtlClockSet+0x136>)
//! \return None.
//
//*****************************************************************************
void
SysCtlClockSet(unsigned long ulConfig)
{
    77cc:	b570      	push	{r4, r5, r6, lr}

    //
    // See if this is a Sandstorm-class device and clocking features from newer
    // devices were requested.
    //
    if(CLASS_IS_SANDSTORM && (ulConfig & SYSCTL_RCC2_USERCC2))
    77ce:	681a      	ldr	r2, [r3, #0]
//! \return None.
//
//*****************************************************************************
void
SysCtlClockSet(unsigned long ulConfig)
{
    77d0:	4604      	mov	r4, r0

    //
    // See if this is a Sandstorm-class device and clocking features from newer
    // devices were requested.
    //
    if(CLASS_IS_SANDSTORM && (ulConfig & SYSCTL_RCC2_USERCC2))
    77d2:	f012 4fe0 	tst.w	r2, #1879048192	; 0x70000000
    77d6:	d006      	beq.n	77e6 <SysCtlClockSet+0x1c>
    77d8:	681a      	ldr	r2, [r3, #0]
    77da:	4b4a      	ldr	r3, [pc, #296]	; (7904 <SysCtlClockSet+0x13a>)
    77dc:	ea02 0303 	and.w	r3, r2, r3
    77e0:	f1b3 5f80 	cmp.w	r3, #268435456	; 0x10000000
    77e4:	d102      	bne.n	77ec <SysCtlClockSet+0x22>
    77e6:	2c00      	cmp	r4, #0
    77e8:	f2c0 8089 	blt.w	78fe <SysCtlClockSet+0x134>
    //
    // Get the current value of the RCC and RCC2 registers.  If using a
    // Sandstorm-class device, the RCC2 register will read back as zero and the
    // writes to it from within this function will be ignored.
    //
    ulRCC = HWREG(SYSCTL_RCC);
    77ec:	4946      	ldr	r1, [pc, #280]	; (7908 <SysCtlClockSet+0x13e>)
    ulRCC2 = HWREG(SYSCTL_RCC2);
    77ee:	4a47      	ldr	r2, [pc, #284]	; (790c <SysCtlClockSet+0x142>)
    //
    // Get the current value of the RCC and RCC2 registers.  If using a
    // Sandstorm-class device, the RCC2 register will read back as zero and the
    // writes to it from within this function will be ignored.
    //
    ulRCC = HWREG(SYSCTL_RCC);
    77f0:	680b      	ldr	r3, [r1, #0]
    ulRCC2 = HWREG(SYSCTL_RCC2);
    77f2:	6816      	ldr	r6, [r2, #0]

    //
    // Bypass the PLL and system clock dividers for now.
    //
    ulRCC |= SYSCTL_RCC_BYPASS;
    77f4:	f443 6300 	orr.w	r3, r3, #2048	; 0x800
    ulRCC &= ~(SYSCTL_RCC_USESYSDIV);
    77f8:	f423 0580 	bic.w	r5, r3, #4194304	; 0x400000
    ulRCC2 |= SYSCTL_RCC2_BYPASS2;
    77fc:	f446 6600 	orr.w	r6, r6, #2048	; 0x800
    HWREG(SYSCTL_RCC2) = ulRCC2;

    //
    // See if either oscillator needs to be enabled.
    //
    if(((ulRCC & SYSCTL_RCC_IOSCDIS) && !(ulConfig & SYSCTL_RCC_IOSCDIS)) ||
    7800:	f013 0f02 	tst.w	r3, #2
    ulRCC2 |= SYSCTL_RCC2_BYPASS2;

    //
    // Write the new RCC value.
    //
    HWREG(SYSCTL_RCC) = ulRCC;
    7804:	600d      	str	r5, [r1, #0]
    HWREG(SYSCTL_RCC2) = ulRCC2;
    7806:	6016      	str	r6, [r2, #0]

    //
    // See if either oscillator needs to be enabled.
    //
    if(((ulRCC & SYSCTL_RCC_IOSCDIS) && !(ulConfig & SYSCTL_RCC_IOSCDIS)) ||
    7808:	d002      	beq.n	7810 <SysCtlClockSet+0x46>
    780a:	f014 0f02 	tst.w	r4, #2
    780e:	d005      	beq.n	781c <SysCtlClockSet+0x52>
    7810:	f015 0f01 	tst.w	r5, #1
    7814:	d01c      	beq.n	7850 <SysCtlClockSet+0x86>
    7816:	f014 0f01 	tst.w	r4, #1
    781a:	d119      	bne.n	7850 <SysCtlClockSet+0x86>
        //
        // Make sure that the required oscillators are enabled.  For now, the
        // previously enabled oscillators must be enabled along with the newly
        // requested oscillators.
        //
        ulRCC &= (~(SYSCTL_RCC_IOSCDIS | SYSCTL_RCC_MOSCDIS) |
    781c:	ea6f 7384 	mvn.w	r3, r4, lsl #30
    7820:	ea6f 7393 	mvn.w	r3, r3, lsr #30
    7824:	401d      	ands	r5, r3
                  (ulConfig & (SYSCTL_RCC_IOSCDIS | SYSCTL_RCC_MOSCDIS)));

        //
        // Write the new RCC value.
        //
        HWREG(SYSCTL_RCC) = ulRCC;
    7826:	4b38      	ldr	r3, [pc, #224]	; (7908 <SysCtlClockSet+0x13e>)
        //
        // Wait for a bit, giving the oscillator time to stabilize.  The number
        // of iterations is adjusted based on the current clock source; a
        // smaller number of iterations is required for slower clock rates.
        //
        if(((ulRCC2 & SYSCTL_RCC2_USERCC2) &&
    7828:	2e00      	cmp	r6, #0
                  (ulConfig & (SYSCTL_RCC_IOSCDIS | SYSCTL_RCC_MOSCDIS)));

        //
        // Write the new RCC value.
        //
        HWREG(SYSCTL_RCC) = ulRCC;
    782a:	601d      	str	r5, [r3, #0]
        //
        // Wait for a bit, giving the oscillator time to stabilize.  The number
        // of iterations is adjusted based on the current clock source; a
        // smaller number of iterations is required for slower clock rates.
        //
        if(((ulRCC2 & SYSCTL_RCC2_USERCC2) &&
    782c:	da05      	bge.n	783a <SysCtlClockSet+0x70>
            (((ulRCC2 & SYSCTL_RCC2_OSCSRC2_M) == SYSCTL_RCC2_OSCSRC2_30) ||
    782e:	f006 0370 	and.w	r3, r6, #112	; 0x70
        //
        // Wait for a bit, giving the oscillator time to stabilize.  The number
        // of iterations is adjusted based on the current clock source; a
        // smaller number of iterations is required for slower clock rates.
        //
        if(((ulRCC2 & SYSCTL_RCC2_USERCC2) &&
    7832:	2b30      	cmp	r3, #48	; 0x30
    7834:	d005      	beq.n	7842 <SysCtlClockSet+0x78>
    7836:	2b70      	cmp	r3, #112	; 0x70
    7838:	e002      	b.n	7840 <SysCtlClockSet+0x76>
    783a:	f005 0330 	and.w	r3, r5, #48	; 0x30
    783e:	2b30      	cmp	r3, #48	; 0x30
    7840:	d102      	bne.n	7848 <SysCtlClockSet+0x7e>
            ((ulRCC & SYSCTL_RCC_OSCSRC_M) == SYSCTL_RCC_OSCSRC_30)))
        {
            //
            // Delay for 4096 iterations.
            //
            SysCtlDelay(4096);
    7842:	f44f 5080 	mov.w	r0, #4096	; 0x1000
    7846:	e001      	b.n	784c <SysCtlClockSet+0x82>
        else
        {
            //
            // Delay for 524,288 iterations.
            //
            SysCtlDelay(524288);
    7848:	f44f 2000 	mov.w	r0, #524288	; 0x80000
    784c:	f7ff ffba 	bl	77c4 <SysCtlDelay>
    // Set the new crystal value, oscillator source, and PLL configuration.
    // Since the OSCSRC2 field in RCC2 overlaps the XTAL field in RCC, the
    // OSCSRC field has a special encoding within ulConfig to avoid the
    // overlap.
    //
    ulRCC &= ~(SYSCTL_RCC_XTAL_M | SYSCTL_RCC_OSCSRC_M |
    7850:	f425 555e 	bic.w	r5, r5, #14208	; 0x3780
               SYSCTL_RCC_PWRDN | SYSCTL_RCC_OEN);
    ulRCC |= ulConfig & (SYSCTL_RCC_XTAL_M | SYSCTL_RCC_OSCSRC_M |
    7854:	f243 73f0 	movw	r3, #14320	; 0x37f0
    7858:	ea04 0303 	and.w	r3, r4, r3
    // Set the new crystal value, oscillator source, and PLL configuration.
    // Since the OSCSRC2 field in RCC2 overlaps the XTAL field in RCC, the
    // OSCSRC field has a special encoding within ulConfig to avoid the
    // overlap.
    //
    ulRCC &= ~(SYSCTL_RCC_XTAL_M | SYSCTL_RCC_OSCSRC_M |
    785c:	f025 0570 	bic.w	r5, r5, #112	; 0x70
               SYSCTL_RCC_PWRDN | SYSCTL_RCC_OEN);
    ulRCC |= ulConfig & (SYSCTL_RCC_XTAL_M | SYSCTL_RCC_OSCSRC_M |
    7860:	431d      	orrs	r5, r3
                         SYSCTL_RCC_PWRDN | SYSCTL_RCC_OEN);
    ulRCC2 &= ~(SYSCTL_RCC2_USERCC2 | SYSCTL_RCC2_OSCSRC2_M |
    7862:	4b2b      	ldr	r3, [pc, #172]	; (7910 <SysCtlClockSet+0x146>)
    ulRCC2 |= (ulConfig & 0x00000008) << 3;

    //
    // Clear the PLL lock interrupt.
    //
    HWREG(SYSCTL_MISC) = SYSCTL_INT_PLL_LOCK;
    7864:	4a2b      	ldr	r2, [pc, #172]	; (7914 <SysCtlClockSet+0x14a>)
    //
    ulRCC &= ~(SYSCTL_RCC_XTAL_M | SYSCTL_RCC_OSCSRC_M |
               SYSCTL_RCC_PWRDN | SYSCTL_RCC_OEN);
    ulRCC |= ulConfig & (SYSCTL_RCC_XTAL_M | SYSCTL_RCC_OSCSRC_M |
                         SYSCTL_RCC_PWRDN | SYSCTL_RCC_OEN);
    ulRCC2 &= ~(SYSCTL_RCC2_USERCC2 | SYSCTL_RCC2_OSCSRC2_M |
    7866:	ea06 0303 	and.w	r3, r6, r3
                SYSCTL_RCC2_PWRDN2);
    ulRCC2 |= ulConfig & (SYSCTL_RCC2_USERCC2 | SYSCTL_RCC_OSCSRC_M |
    786a:	4e2b      	ldr	r6, [pc, #172]	; (7918 <SysCtlClockSet+0x14e>)
    ulRCC2 |= (ulConfig & 0x00000008) << 3;

    //
    // Clear the PLL lock interrupt.
    //
    HWREG(SYSCTL_MISC) = SYSCTL_INT_PLL_LOCK;
    786c:	2140      	movs	r1, #64	; 0x40
               SYSCTL_RCC_PWRDN | SYSCTL_RCC_OEN);
    ulRCC |= ulConfig & (SYSCTL_RCC_XTAL_M | SYSCTL_RCC_OSCSRC_M |
                         SYSCTL_RCC_PWRDN | SYSCTL_RCC_OEN);
    ulRCC2 &= ~(SYSCTL_RCC2_USERCC2 | SYSCTL_RCC2_OSCSRC2_M |
                SYSCTL_RCC2_PWRDN2);
    ulRCC2 |= ulConfig & (SYSCTL_RCC2_USERCC2 | SYSCTL_RCC_OSCSRC_M |
    786e:	ea04 0606 	and.w	r6, r4, r6
    7872:	431e      	orrs	r6, r3
                          SYSCTL_RCC2_PWRDN2);
    ulRCC2 |= (ulConfig & 0x00000008) << 3;
    7874:	f004 0308 	and.w	r3, r4, #8
    HWREG(SYSCTL_MISC) = SYSCTL_INT_PLL_LOCK;

    //
    // Write the new RCC value.
    //
    if(ulRCC2 & SYSCTL_RCC2_USERCC2)
    7878:	ea56 06c3 	orrs.w	r6, r6, r3, lsl #3
    ulRCC2 |= (ulConfig & 0x00000008) << 3;

    //
    // Clear the PLL lock interrupt.
    //
    HWREG(SYSCTL_MISC) = SYSCTL_INT_PLL_LOCK;
    787c:	6011      	str	r1, [r2, #0]

    //
    // Write the new RCC value.
    //
    if(ulRCC2 & SYSCTL_RCC2_USERCC2)
    787e:	d504      	bpl.n	788a <SysCtlClockSet+0xc0>
    {
        HWREG(SYSCTL_RCC2) = ulRCC2;
    7880:	4b22      	ldr	r3, [pc, #136]	; (790c <SysCtlClockSet+0x142>)
    7882:	601e      	str	r6, [r3, #0]
        HWREG(SYSCTL_RCC) = ulRCC;
    7884:	3b10      	subs	r3, #16
    7886:	601d      	str	r5, [r3, #0]
    7888:	e003      	b.n	7892 <SysCtlClockSet+0xc8>
    }
    else
    {
        HWREG(SYSCTL_RCC) = ulRCC;
    788a:	4b1f      	ldr	r3, [pc, #124]	; (7908 <SysCtlClockSet+0x13e>)
    788c:	601d      	str	r5, [r3, #0]
        HWREG(SYSCTL_RCC2) = ulRCC2;
    788e:	3310      	adds	r3, #16
    7890:	601e      	str	r6, [r3, #0]

    //
    // Wait for a bit so that new crystal value and oscillator source can take
    // effect.
    //
    SysCtlDelay(16);
    7892:	2010      	movs	r0, #16
    7894:	f7ff ff96 	bl	77c4 <SysCtlDelay>
    // Set the requested system divider and disable the appropriate
    // oscillators.  This will not get written immediately.
    //
    ulRCC &= ~(SYSCTL_RCC_SYSDIV_M | SYSCTL_RCC_USESYSDIV |
               SYSCTL_RCC_IOSCDIS | SYSCTL_RCC_MOSCDIS);
    ulRCC |= ulConfig & (SYSCTL_RCC_SYSDIV_M | SYSCTL_RCC_USESYSDIV |
    7898:	4b20      	ldr	r3, [pc, #128]	; (791c <SysCtlClockSet+0x152>)

    //
    // Set the requested system divider and disable the appropriate
    // oscillators.  This will not get written immediately.
    //
    ulRCC &= ~(SYSCTL_RCC_SYSDIV_M | SYSCTL_RCC_USESYSDIV |
    789a:	f025 65f8 	bic.w	r5, r5, #130023424	; 0x7c00000
               SYSCTL_RCC_IOSCDIS | SYSCTL_RCC_MOSCDIS);
    ulRCC |= ulConfig & (SYSCTL_RCC_SYSDIV_M | SYSCTL_RCC_USESYSDIV |
    789e:	ea04 0303 	and.w	r3, r4, r3

    //
    // Set the requested system divider and disable the appropriate
    // oscillators.  This will not get written immediately.
    //
    ulRCC &= ~(SYSCTL_RCC_SYSDIV_M | SYSCTL_RCC_USESYSDIV |
    78a2:	f025 0503 	bic.w	r5, r5, #3
               SYSCTL_RCC_IOSCDIS | SYSCTL_RCC_MOSCDIS);
    ulRCC |= ulConfig & (SYSCTL_RCC_SYSDIV_M | SYSCTL_RCC_USESYSDIV |
    78a6:	431d      	orrs	r5, r3
                         SYSCTL_RCC_IOSCDIS | SYSCTL_RCC_MOSCDIS);
    ulRCC2 &= ~(SYSCTL_RCC2_SYSDIV2_M);
    78a8:	f026 56fc 	bic.w	r6, r6, #528482304	; 0x1f800000
    ulRCC2 |= ulConfig & SYSCTL_RCC2_SYSDIV2_M;
    78ac:	f004 53fc 	and.w	r3, r4, #528482304	; 0x1f800000
    78b0:	431e      	orrs	r6, r3
    if(ulConfig & SYSCTL_RCC2_USEFRACT)
    78b2:	f014 4f80 	tst.w	r4, #1073741824	; 0x40000000
    78b6:	d008      	beq.n	78ca <SysCtlClockSet+0x100>
    {
        ulRCC |= SYSCTL_RCC_USESYSDIV;
        ulRCC2 &= ~(SYSCTL_RCC_USESYSDIV);
        ulRCC2 |= ulConfig & (SYSCTL_RCC2_USEFRACT | SYSCTL_RCC2_FRACT);
    78b8:	4b19      	ldr	r3, [pc, #100]	; (7920 <SysCtlClockSet+0x156>)
    ulRCC2 &= ~(SYSCTL_RCC2_SYSDIV2_M);
    ulRCC2 |= ulConfig & SYSCTL_RCC2_SYSDIV2_M;
    if(ulConfig & SYSCTL_RCC2_USEFRACT)
    {
        ulRCC |= SYSCTL_RCC_USESYSDIV;
        ulRCC2 &= ~(SYSCTL_RCC_USESYSDIV);
    78ba:	f426 0680 	bic.w	r6, r6, #4194304	; 0x400000
        ulRCC2 |= ulConfig & (SYSCTL_RCC2_USEFRACT | SYSCTL_RCC2_FRACT);
    78be:	ea04 0303 	and.w	r3, r4, r3
                         SYSCTL_RCC_IOSCDIS | SYSCTL_RCC_MOSCDIS);
    ulRCC2 &= ~(SYSCTL_RCC2_SYSDIV2_M);
    ulRCC2 |= ulConfig & SYSCTL_RCC2_SYSDIV2_M;
    if(ulConfig & SYSCTL_RCC2_USEFRACT)
    {
        ulRCC |= SYSCTL_RCC_USESYSDIV;
    78c2:	f445 0580 	orr.w	r5, r5, #4194304	; 0x400000
        ulRCC2 &= ~(SYSCTL_RCC_USESYSDIV);
        ulRCC2 |= ulConfig & (SYSCTL_RCC2_USEFRACT | SYSCTL_RCC2_FRACT);
    78c6:	431e      	orrs	r6, r3
    78c8:	e001      	b.n	78ce <SysCtlClockSet+0x104>
    }
    else
    {
        ulRCC2 &= ~(SYSCTL_RCC2_USEFRACT);
    78ca:	f026 4680 	bic.w	r6, r6, #1073741824	; 0x40000000
    }

    //
    // See if the PLL output is being used to clock the system.
    //
    if(!(ulConfig & SYSCTL_RCC_BYPASS))
    78ce:	f414 6f00 	tst.w	r4, #2048	; 0x800
    78d2:	d10c      	bne.n	78ee <SysCtlClockSet+0x124>
    78d4:	f44f 4300 	mov.w	r3, #32768	; 0x8000
        //
        // Wait until the PLL has locked.
        //
        for(ulDelay = 32768; ulDelay > 0; ulDelay--)
        {
            if(HWREG(SYSCTL_RIS) & SYSCTL_INT_PLL_LOCK)
    78d8:	4a12      	ldr	r2, [pc, #72]	; (7924 <SysCtlClockSet+0x15a>)
    78da:	6812      	ldr	r2, [r2, #0]
    78dc:	f012 0f40 	tst.w	r2, #64	; 0x40
    78e0:	d101      	bne.n	78e6 <SysCtlClockSet+0x11c>
    if(!(ulConfig & SYSCTL_RCC_BYPASS))
    {
        //
        // Wait until the PLL has locked.
        //
        for(ulDelay = 32768; ulDelay > 0; ulDelay--)
    78e2:	3b01      	subs	r3, #1
    78e4:	d1f8      	bne.n	78d8 <SysCtlClockSet+0x10e>
        }

        //
        // Enable use of the PLL.
        //
        ulRCC &= ~(SYSCTL_RCC_BYPASS);
    78e6:	f425 6500 	bic.w	r5, r5, #2048	; 0x800
        ulRCC2 &= ~(SYSCTL_RCC2_BYPASS2);
    78ea:	f426 6600 	bic.w	r6, r6, #2048	; 0x800
    }

    //
    // Write the final RCC value.
    //
    HWREG(SYSCTL_RCC) = ulRCC;
    78ee:	4b06      	ldr	r3, [pc, #24]	; (7908 <SysCtlClockSet+0x13e>)
    HWREG(SYSCTL_RCC2) = ulRCC2;

    //
    // Delay for a little bit so that the system divider takes effect.
    //
    SysCtlDelay(16);
    78f0:	2010      	movs	r0, #16
    }

    //
    // Write the final RCC value.
    //
    HWREG(SYSCTL_RCC) = ulRCC;
    78f2:	601d      	str	r5, [r3, #0]
    HWREG(SYSCTL_RCC2) = ulRCC2;
    78f4:	3310      	adds	r3, #16
    78f6:	601e      	str	r6, [r3, #0]

    //
    // Delay for a little bit so that the system divider takes effect.
    //
    SysCtlDelay(16);
}
    78f8:	e8bd 4070 	ldmia.w	sp!, {r4, r5, r6, lr}
    HWREG(SYSCTL_RCC2) = ulRCC2;

    //
    // Delay for a little bit so that the system divider takes effect.
    //
    SysCtlDelay(16);
    78fc:	e762      	b.n	77c4 <SysCtlDelay>
    78fe:	bd70      	pop	{r4, r5, r6, pc}
    7900:	400fe000 	.word	0x400fe000
    7904:	70ff0000 	.word	0x70ff0000
    7908:	400fe060 	.word	0x400fe060
    790c:	400fe070 	.word	0x400fe070
    7910:	7fffdf8f 	.word	0x7fffdf8f
    7914:	400fe058 	.word	0x400fe058
    7918:	80002030 	.word	0x80002030
    791c:	07c00003 	.word	0x07c00003
    7920:	40400000 	.word	0x40400000
    7924:	400fe050 	.word	0x400fe050

00007928 <SysCtlClockGet>:
    //
    // Read RCC and RCC2.  For Sandstorm-class devices (which do not have
    // RCC2), the RCC2 read will return 0, which indicates that RCC2 is
    // disabled (since the SYSCTL_RCC2_USERCC2 bit is clear).
    //
    ulRCC = HWREG(SYSCTL_RCC);
    7928:	4b6a      	ldr	r3, [pc, #424]	; (7ad4 <SysCtlClockGet+0x1ac>)
//! \return The processor clock rate.
//
//*****************************************************************************
unsigned long
SysCtlClockGet(void)
{
    792a:	b530      	push	{r4, r5, lr}
    //
    // Read RCC and RCC2.  For Sandstorm-class devices (which do not have
    // RCC2), the RCC2 read will return 0, which indicates that RCC2 is
    // disabled (since the SYSCTL_RCC2_USERCC2 bit is clear).
    //
    ulRCC = HWREG(SYSCTL_RCC);
    792c:	681a      	ldr	r2, [r3, #0]
    ulRCC2 = HWREG(SYSCTL_RCC2);
    792e:	3310      	adds	r3, #16
    7930:	681b      	ldr	r3, [r3, #0]
    //
    // Get the base clock rate.
    //
    switch((ulRCC2 & SYSCTL_RCC2_USERCC2) ?
           (ulRCC2 & SYSCTL_RCC2_OSCSRC2_M) :
           (ulRCC & SYSCTL_RCC_OSCSRC_M))
    7932:	2b00      	cmp	r3, #0
    7934:	bfb4      	ite	lt
    7936:	f003 0170 	andlt.w	r1, r3, #112	; 0x70
    793a:	f002 0130 	andge.w	r1, r2, #48	; 0x30
    793e:	2920      	cmp	r1, #32
    7940:	d03d      	beq.n	79be <SysCtlClockGet+0x96>
    7942:	d803      	bhi.n	794c <SysCtlClockGet+0x24>
    7944:	b181      	cbz	r1, 7968 <SysCtlClockGet+0x40>
    7946:	2910      	cmp	r1, #16
    7948:	d106      	bne.n	7958 <SysCtlClockGet+0x30>
    794a:	e014      	b.n	7976 <SysCtlClockGet+0x4e>
    794c:	2960      	cmp	r1, #96	; 0x60
    794e:	d005      	beq.n	795c <SysCtlClockGet+0x34>
    7950:	2970      	cmp	r1, #112	; 0x70
    7952:	d057      	beq.n	7a04 <SysCtlClockGet+0xdc>
    7954:	2930      	cmp	r1, #48	; 0x30
    7956:	d004      	beq.n	7962 <SysCtlClockGet+0x3a>
    7958:	2000      	movs	r0, #0
    795a:	bd30      	pop	{r4, r5, pc}
    795c:	f44f 0080 	mov.w	r0, #4194304	; 0x400000
    7960:	e05e      	b.n	7a20 <SysCtlClockGet+0xf8>
    7962:	f247 5030 	movw	r0, #30000	; 0x7530
    7966:	e05b      	b.n	7a20 <SysCtlClockGet+0xf8>
        // The main oscillator is the clock source.  Determine its rate from
        // the crystal setting field.
        //
        case SYSCTL_RCC_OSCSRC_MAIN:
        {
            ulClk = g_pulXtals[(ulRCC & SYSCTL_RCC_XTAL_M) >>
    7968:	495b      	ldr	r1, [pc, #364]	; (7ad8 <SysCtlClockGet+0x1b0>)
    796a:	f402 60f8 	and.w	r0, r2, #1984	; 0x7c0
    796e:	eb01 1110 	add.w	r1, r1, r0, lsr #4
    7972:	6c08      	ldr	r0, [r1, #64]	; 0x40
                               SYSCTL_RCC_XTAL_S];
            break;
    7974:	e054      	b.n	7a20 <SysCtlClockGet+0xf8>
        case SYSCTL_RCC_OSCSRC_INT:
        {
            //
            // See if this is a Sandstorm-class or Fury-class device.
            //
            if(CLASS_IS_SANDSTORM)
    7976:	4959      	ldr	r1, [pc, #356]	; (7adc <SysCtlClockGet+0x1b4>)
    7978:	6808      	ldr	r0, [r1, #0]
    797a:	f010 4fe0 	tst.w	r0, #1879048192	; 0x70000000
    797e:	d048      	beq.n	7a12 <SysCtlClockGet+0xea>
    7980:	680c      	ldr	r4, [r1, #0]
    7982:	4857      	ldr	r0, [pc, #348]	; (7ae0 <SysCtlClockGet+0x1b8>)
    7984:	ea04 0000 	and.w	r0, r4, r0
    7988:	f1b0 5f80 	cmp.w	r0, #268435456	; 0x10000000
    798c:	d041      	beq.n	7a12 <SysCtlClockGet+0xea>
                // The internal oscillator on a Sandstorm-class device is
                // 15 MHz +/- 50%.
                //
                ulClk = 15000000;
            }
            else if((CLASS_IS_FURY && REVISION_IS_A2) ||
    798e:	680c      	ldr	r4, [r1, #0]
    7990:	4853      	ldr	r0, [pc, #332]	; (7ae0 <SysCtlClockGet+0x1b8>)
    7992:	ea04 0000 	and.w	r0, r4, r0
    7996:	4c53      	ldr	r4, [pc, #332]	; (7ae4 <SysCtlClockGet+0x1bc>)
    7998:	42a0      	cmp	r0, r4
    799a:	d103      	bne.n	79a4 <SysCtlClockGet+0x7c>
    799c:	6809      	ldr	r1, [r1, #0]
    799e:	b289      	uxth	r1, r1
    79a0:	2902      	cmp	r1, #2
    79a2:	d032      	beq.n	7a0a <SysCtlClockGet+0xe2>
                    (CLASS_IS_DUSTDEVIL && REVISION_IS_A0))
    79a4:	484d      	ldr	r0, [pc, #308]	; (7adc <SysCtlClockGet+0x1b4>)
                // The internal oscillator on a Sandstorm-class device is
                // 15 MHz +/- 50%.
                //
                ulClk = 15000000;
            }
            else if((CLASS_IS_FURY && REVISION_IS_A2) ||
    79a6:	494e      	ldr	r1, [pc, #312]	; (7ae0 <SysCtlClockGet+0x1b8>)
                    (CLASS_IS_DUSTDEVIL && REVISION_IS_A0))
    79a8:	6804      	ldr	r4, [r0, #0]
                // The internal oscillator on a Sandstorm-class device is
                // 15 MHz +/- 50%.
                //
                ulClk = 15000000;
            }
            else if((CLASS_IS_FURY && REVISION_IS_A2) ||
    79aa:	ea04 0101 	and.w	r1, r4, r1
    79ae:	4c4e      	ldr	r4, [pc, #312]	; (7ae8 <SysCtlClockGet+0x1c0>)
    79b0:	42a1      	cmp	r1, r4
    79b2:	d130      	bne.n	7a16 <SysCtlClockGet+0xee>
                    (CLASS_IS_DUSTDEVIL && REVISION_IS_A0))
    79b4:	6801      	ldr	r1, [r0, #0]
                // The internal oscillator on a Sandstorm-class device is
                // 15 MHz +/- 50%.
                //
                ulClk = 15000000;
            }
            else if((CLASS_IS_FURY && REVISION_IS_A2) ||
    79b6:	b289      	uxth	r1, r1
    79b8:	2900      	cmp	r1, #0
    79ba:	d026      	beq.n	7a0a <SysCtlClockGet+0xe2>
    79bc:	e02b      	b.n	7a16 <SysCtlClockGet+0xee>
        case SYSCTL_RCC_OSCSRC_INT4:
        {
            //
            // See if this is a Sandstorm-class or Fury-class device.
            //
            if(CLASS_IS_SANDSTORM)
    79be:	4947      	ldr	r1, [pc, #284]	; (7adc <SysCtlClockGet+0x1b4>)
    79c0:	6808      	ldr	r0, [r1, #0]
    79c2:	f010 4fe0 	tst.w	r0, #1879048192	; 0x70000000
    79c6:	d028      	beq.n	7a1a <SysCtlClockGet+0xf2>
    79c8:	680c      	ldr	r4, [r1, #0]
    79ca:	4845      	ldr	r0, [pc, #276]	; (7ae0 <SysCtlClockGet+0x1b8>)
    79cc:	ea04 0000 	and.w	r0, r4, r0
    79d0:	f1b0 5f80 	cmp.w	r0, #268435456	; 0x10000000
    79d4:	d021      	beq.n	7a1a <SysCtlClockGet+0xf2>
                // The internal oscillator on a Sandstorm-class device is
                // 15 MHz +/- 50%.
                //
                ulClk = 15000000 / 4;
            }
            else if((CLASS_IS_FURY && REVISION_IS_A2) ||
    79d6:	680c      	ldr	r4, [r1, #0]
    79d8:	4841      	ldr	r0, [pc, #260]	; (7ae0 <SysCtlClockGet+0x1b8>)
    79da:	ea04 0000 	and.w	r0, r4, r0
    79de:	4c41      	ldr	r4, [pc, #260]	; (7ae4 <SysCtlClockGet+0x1bc>)
    79e0:	42a0      	cmp	r0, r4
    79e2:	d103      	bne.n	79ec <SysCtlClockGet+0xc4>
    79e4:	6809      	ldr	r1, [r1, #0]
    79e6:	b289      	uxth	r1, r1
    79e8:	2902      	cmp	r1, #2
    79ea:	d010      	beq.n	7a0e <SysCtlClockGet+0xe6>
                    (CLASS_IS_DUSTDEVIL && REVISION_IS_A0))
    79ec:	483b      	ldr	r0, [pc, #236]	; (7adc <SysCtlClockGet+0x1b4>)
                // The internal oscillator on a Sandstorm-class device is
                // 15 MHz +/- 50%.
                //
                ulClk = 15000000 / 4;
            }
            else if((CLASS_IS_FURY && REVISION_IS_A2) ||
    79ee:	493c      	ldr	r1, [pc, #240]	; (7ae0 <SysCtlClockGet+0x1b8>)
                    (CLASS_IS_DUSTDEVIL && REVISION_IS_A0))
    79f0:	6804      	ldr	r4, [r0, #0]
                // The internal oscillator on a Sandstorm-class device is
                // 15 MHz +/- 50%.
                //
                ulClk = 15000000 / 4;
            }
            else if((CLASS_IS_FURY && REVISION_IS_A2) ||
    79f2:	ea04 0101 	and.w	r1, r4, r1
    79f6:	4c3c      	ldr	r4, [pc, #240]	; (7ae8 <SysCtlClockGet+0x1c0>)
    79f8:	42a1      	cmp	r1, r4
    79fa:	d110      	bne.n	7a1e <SysCtlClockGet+0xf6>
                    (CLASS_IS_DUSTDEVIL && REVISION_IS_A0))
    79fc:	6801      	ldr	r1, [r0, #0]
                // The internal oscillator on a Sandstorm-class device is
                // 15 MHz +/- 50%.
                //
                ulClk = 15000000 / 4;
            }
            else if((CLASS_IS_FURY && REVISION_IS_A2) ||
    79fe:	b289      	uxth	r1, r1
    7a00:	b129      	cbz	r1, 7a0e <SysCtlClockGet+0xe6>
    7a02:	e00c      	b.n	7a1e <SysCtlClockGet+0xf6>
    7a04:	f44f 4000 	mov.w	r0, #32768	; 0x8000
        // The 32 KHz clock from the hibernate module is the source clock.
        //
        case SYSCTL_RCC2_OSCSRC2_32:
        {
            ulClk = 32768;
            break;
    7a08:	e00a      	b.n	7a20 <SysCtlClockGet+0xf8>
    7a0a:	4838      	ldr	r0, [pc, #224]	; (7aec <SysCtlClockGet+0x1c4>)
    7a0c:	e008      	b.n	7a20 <SysCtlClockGet+0xf8>
    7a0e:	4838      	ldr	r0, [pc, #224]	; (7af0 <SysCtlClockGet+0x1c8>)
    7a10:	e006      	b.n	7a20 <SysCtlClockGet+0xf8>
    7a12:	4838      	ldr	r0, [pc, #224]	; (7af4 <SysCtlClockGet+0x1cc>)
    7a14:	e004      	b.n	7a20 <SysCtlClockGet+0xf8>
    7a16:	4838      	ldr	r0, [pc, #224]	; (7af8 <SysCtlClockGet+0x1d0>)
    7a18:	e002      	b.n	7a20 <SysCtlClockGet+0xf8>
    7a1a:	4838      	ldr	r0, [pc, #224]	; (7afc <SysCtlClockGet+0x1d4>)
    7a1c:	e000      	b.n	7a20 <SysCtlClockGet+0xf8>
    7a1e:	4838      	ldr	r0, [pc, #224]	; (7b00 <SysCtlClockGet+0x1d8>)
    }

    //
    // See if the PLL is being used.
    //
    if(((ulRCC2 & SYSCTL_RCC2_USERCC2) && !(ulRCC2 & SYSCTL_RCC2_BYPASS2)) ||
    7a20:	2b00      	cmp	r3, #0
    7a22:	da02      	bge.n	7a2a <SysCtlClockGet+0x102>
    7a24:	f413 6f00 	tst.w	r3, #2048	; 0x800
    7a28:	e001      	b.n	7a2e <SysCtlClockGet+0x106>
    7a2a:	f412 6f00 	tst.w	r2, #2048	; 0x800
    7a2e:	d133      	bne.n	7a98 <SysCtlClockGet+0x170>
       (!(ulRCC2 & SYSCTL_RCC2_USERCC2) && !(ulRCC & SYSCTL_RCC_BYPASS)))
    {
        //
        // Get the PLL configuration.
        //
        ulPLL = HWREG(SYSCTL_PLLCFG);
    7a30:	4934      	ldr	r1, [pc, #208]	; (7b04 <SysCtlClockGet+0x1dc>)

        //
        // See if this is a Sandstorm-class or Fury-class device.
        //
        if(CLASS_IS_SANDSTORM)
    7a32:	4c2a      	ldr	r4, [pc, #168]	; (7adc <SysCtlClockGet+0x1b4>)
       (!(ulRCC2 & SYSCTL_RCC2_USERCC2) && !(ulRCC & SYSCTL_RCC_BYPASS)))
    {
        //
        // Get the PLL configuration.
        //
        ulPLL = HWREG(SYSCTL_PLLCFG);
    7a34:	6809      	ldr	r1, [r1, #0]

        //
        // See if this is a Sandstorm-class or Fury-class device.
        //
        if(CLASS_IS_SANDSTORM)
    7a36:	6825      	ldr	r5, [r4, #0]
    7a38:	f015 4fe0 	tst.w	r5, #1879048192	; 0x70000000
    7a3c:	d006      	beq.n	7a4c <SysCtlClockGet+0x124>
    7a3e:	6825      	ldr	r5, [r4, #0]
    7a40:	4c27      	ldr	r4, [pc, #156]	; (7ae0 <SysCtlClockGet+0x1b8>)
    7a42:	ea05 0404 	and.w	r4, r5, r4
    7a46:	f1b4 5f80 	cmp.w	r4, #268435456	; 0x10000000
    7a4a:	d10d      	bne.n	7a68 <SysCtlClockGet+0x140>
            //
            // Compute the PLL output frequency based on its input frequency.
            // The formula for a Sandstorm-class devices is
            // "(xtal * (f + 2)) / (r + 2)".
            //
            ulClk = ((ulClk * (((ulPLL & SYSCTL_PLLCFG_F_M) >>
    7a4c:	f643 7ce0 	movw	ip, #16352	; 0x3fe0
    7a50:	ea01 0c0c 	and.w	ip, r1, ip
    7a54:	ea4f 1c5c 	mov.w	ip, ip, lsr #5
    7a58:	f10c 0c02 	add.w	ip, ip, #2
    7a5c:	f001 041f 	and.w	r4, r1, #31
    7a60:	fb0c f000 	mul.w	r0, ip, r0
    7a64:	3402      	adds	r4, #2
    7a66:	e00b      	b.n	7a80 <SysCtlClockGet+0x158>
            //
            // Compute the PLL output frequency based on its input frequency.
            // The formula for a Fury-class device is
            // "(xtal * f) / ((r + 1) * 2)".
            //
            ulClk = ((ulClk * ((ulPLL & SYSCTL_PLLCFG_F_M) >>
    7a68:	f643 7ce0 	movw	ip, #16352	; 0x3fe0
    7a6c:	ea01 0c0c 	and.w	ip, r1, ip
    7a70:	ea4f 1c5c 	mov.w	ip, ip, lsr #5
    7a74:	fb0c f000 	mul.w	r0, ip, r0
    7a78:	f001 041f 	and.w	r4, r1, #31
    7a7c:	3401      	adds	r4, #1
    7a7e:	0064      	lsls	r4, r4, #1
    7a80:	fbb0 f0f4 	udiv	r0, r0, r4
        }

        //
        // See if the optional output divide by 2 is being used.
        //
        if(ulPLL & SYSCTL_PLLCFG_OD_2)
    7a84:	f411 4f80 	tst.w	r1, #16384	; 0x4000
        {
            ulClk /= 2;
    7a88:	bf18      	it	ne
    7a8a:	0840      	lsrne	r0, r0, #1
        }

        //
        // See if the optional output divide by 4 is being used.
        //
        if(ulPLL & SYSCTL_PLLCFG_OD_4)
    7a8c:	f411 4f00 	tst.w	r1, #32768	; 0x8000
        {
            ulClk /= 4;
    7a90:	bf18      	it	ne
    7a92:	0880      	lsrne	r0, r0, #2

        //
        // Force the system divider to be enabled.  It is always used when
        // using the PLL, but in some cases it will not read as being enabled.
        //
        ulRCC |= SYSCTL_RCC_USESYSDIV;
    7a94:	f442 0280 	orr.w	r2, r2, #4194304	; 0x400000
    }

    //
    // See if the system divider is being used.
    //
    if(ulRCC & SYSCTL_RCC_USESYSDIV)
    7a98:	f412 0f80 	tst.w	r2, #4194304	; 0x400000
    7a9c:	d019      	beq.n	7ad2 <SysCtlClockGet+0x1aa>
    {
        //
        // Adjust the clock rate by the system clock divider.
        //
        if(ulRCC2 & SYSCTL_RCC2_USERCC2)
    7a9e:	2b00      	cmp	r3, #0
    7aa0:	da11      	bge.n	7ac6 <SysCtlClockGet+0x19e>
        {
            if((ulRCC2 & SYSCTL_RCC2_USEFRACT) &&
    7aa2:	f013 4f80 	tst.w	r3, #1073741824	; 0x40000000
    7aa6:	d007      	beq.n	7ab8 <SysCtlClockGet+0x190>
    7aa8:	f413 6f00 	tst.w	r3, #2048	; 0x800
    7aac:	d104      	bne.n	7ab8 <SysCtlClockGet+0x190>
                 !(ulRCC2 & SYSCTL_RCC2_BYPASS2)) ||
                (!(ulRCC2 & SYSCTL_RCC2_USERCC2) &&
                 !(ulRCC & SYSCTL_RCC_BYPASS))))

            {
                ulClk = ((ulClk * 2) / (((ulRCC2 & (SYSCTL_RCC2_SYSDIV2_M |
    7aae:	f003 53fe 	and.w	r3, r3, #532676608	; 0x1fc00000
    7ab2:	0040      	lsls	r0, r0, #1
    7ab4:	0d9b      	lsrs	r3, r3, #22
    7ab6:	e002      	b.n	7abe <SysCtlClockGet+0x196>
                                                    SYSCTL_RCC2_FRACT)) >>
                                         (SYSCTL_RCC2_SYSDIV2_S - 1)) + 1));
            }
            else
            {
                ulClk /= (((ulRCC2 & SYSCTL_RCC2_SYSDIV2_M) >>
    7ab8:	f003 53fc 	and.w	r3, r3, #528482304	; 0x1f800000
    7abc:	0ddb      	lsrs	r3, r3, #23
    7abe:	3301      	adds	r3, #1
    7ac0:	fbb0 f0f3 	udiv	r0, r0, r3
    7ac4:	bd30      	pop	{r4, r5, pc}
                           SYSCTL_RCC2_SYSDIV2_S) + 1);
            }
        }
        else
        {
            ulClk /= (((ulRCC & SYSCTL_RCC_SYSDIV_M) >> SYSCTL_RCC_SYSDIV_S) +
    7ac6:	f002 62f0 	and.w	r2, r2, #125829120	; 0x7800000
    7aca:	0dd2      	lsrs	r2, r2, #23
    7acc:	3201      	adds	r2, #1
    7ace:	fbb0 f0f2 	udiv	r0, r0, r2

    //
    // Return the computed clock rate.
    //
    return(ulClk);
}
    7ad2:	bd30      	pop	{r4, r5, pc}
    7ad4:	400fe060 	.word	0x400fe060
    7ad8:	00009624 	.word	0x00009624
    7adc:	400fe000 	.word	0x400fe000
    7ae0:	70ff0000 	.word	0x70ff0000
    7ae4:	10010000 	.word	0x10010000
    7ae8:	10030000 	.word	0x10030000
    7aec:	00b71b00 	.word	0x00b71b00
    7af0:	002dc6c0 	.word	0x002dc6c0
    7af4:	00e4e1c0 	.word	0x00e4e1c0
    7af8:	00f42400 	.word	0x00f42400
    7afc:	00393870 	.word	0x00393870
    7b00:	003d0900 	.word	0x003d0900
    7b04:	400fe064 	.word	0x400fe064

00007b08 <SysCtlPWMClockSet>:

    //
    // Set the PWM clock configuration into the run-mode clock configuration
    // register.
    //
    HWREG(SYSCTL_RCC) = ((HWREG(SYSCTL_RCC) &
    7b08:	4b03      	ldr	r3, [pc, #12]	; (7b18 <SysCtlPWMClockSet+0x10>)
    7b0a:	681a      	ldr	r2, [r3, #0]
    7b0c:	f422 12f0 	bic.w	r2, r2, #1966080	; 0x1e0000
    7b10:	ea40 0202 	orr.w	r2, r0, r2
    7b14:	601a      	str	r2, [r3, #0]
                          ~(SYSCTL_RCC_USEPWMDIV | SYSCTL_RCC_PWMDIV_M)) |
                         ulConfig);
}
    7b16:	4770      	bx	lr
    7b18:	400fe060 	.word	0x400fe060

00007b1c <SysCtlPWMClockGet>:

    //
    // Return the current PWM clock configuration.  Make sure that
    // SYSCTL_PWMDIV_1 is returned in all cases where the divider is disabled.
    //
    if(!(HWREG(SYSCTL_RCC) & SYSCTL_RCC_USEPWMDIV))
    7b1c:	4b04      	ldr	r3, [pc, #16]	; (7b30 <SysCtlPWMClockGet+0x14>)
    7b1e:	6818      	ldr	r0, [r3, #0]
    7b20:	f410 1080 	ands.w	r0, r0, #1048576	; 0x100000
    else
    {
        //
        // The divider is active so directly return the masked register value.
        //
        return(HWREG(SYSCTL_RCC) &
    7b24:	bf1c      	itt	ne
    7b26:	6818      	ldrne	r0, [r3, #0]
    7b28:	f400 10f0 	andne.w	r0, r0, #1966080	; 0x1e0000
               (SYSCTL_RCC_USEPWMDIV | SYSCTL_RCC_PWMDIV_M));
    }
}
    7b2c:	4770      	bx	lr
    7b2e:	bf00      	nop
    7b30:	400fe060 	.word	0x400fe060

00007b34 <SysCtlADCSpeedSet>:
    ASSERT(HWREG(SYSCTL_DC1) & SYSCTL_DC1_ADC0);

    //
    // Set the ADC speed in run, sleep, and deep-sleep mode.
    //
    HWREG(SYSCTL_RCGC0) = ((HWREG(SYSCTL_RCGC0) & ~(SYSCTL_RCGC0_ADCSPD_M)) |
    7b34:	4b06      	ldr	r3, [pc, #24]	; (7b50 <SysCtlADCSpeedSet+0x1c>)
    7b36:	681a      	ldr	r2, [r3, #0]
    7b38:	f422 6270 	bic.w	r2, r2, #3840	; 0xf00
    7b3c:	ea40 0202 	orr.w	r2, r0, r2
    7b40:	601a      	str	r2, [r3, #0]
                           ulSpeed);
    HWREG(SYSCTL_SCGC0) = ((HWREG(SYSCTL_SCGC0) & ~(SYSCTL_SCGC0_ADCSPD_M)) |
    7b42:	3310      	adds	r3, #16
    7b44:	681a      	ldr	r2, [r3, #0]
    7b46:	f422 6270 	bic.w	r2, r2, #3840	; 0xf00
    7b4a:	4310      	orrs	r0, r2
    7b4c:	6018      	str	r0, [r3, #0]
                           ulSpeed);
}
    7b4e:	4770      	bx	lr
    7b50:	400fe100 	.word	0x400fe100

00007b54 <SysCtlADCSpeedGet>:
    ASSERT(HWREG(SYSCTL_DC1) & SYSCTL_DC1_ADC0);

    //
    // Return the current ADC speed.
    //
    return(HWREG(SYSCTL_RCGC0) & SYSCTL_RCGC0_ADCSPD_M);
    7b54:	4b02      	ldr	r3, [pc, #8]	; (7b60 <SysCtlADCSpeedGet+0xc>)
    7b56:	6818      	ldr	r0, [r3, #0]
}
    7b58:	f400 6070 	and.w	r0, r0, #3840	; 0xf00
    7b5c:	4770      	bx	lr
    7b5e:	bf00      	nop
    7b60:	400fe100 	.word	0x400fe100

00007b64 <SysCtlIOSCVerificationSet>:
{
    //
    // Enable or disable the internal oscillator verification timer as
    // requested.
    //
    if(bEnable)
    7b64:	b120      	cbz	r0, 7b70 <SysCtlIOSCVerificationSet+0xc>
    {
        HWREG(SYSCTL_RCC) |= SYSCTL_RCC_IOSCVER;
    7b66:	4b05      	ldr	r3, [pc, #20]	; (7b7c <SysCtlIOSCVerificationSet+0x18>)
    7b68:	681a      	ldr	r2, [r3, #0]
    7b6a:	f042 0208 	orr.w	r2, r2, #8
    7b6e:	e003      	b.n	7b78 <SysCtlIOSCVerificationSet+0x14>
    }
    else
    {
        HWREG(SYSCTL_RCC) &= ~(SYSCTL_RCC_IOSCVER);
    7b70:	4b02      	ldr	r3, [pc, #8]	; (7b7c <SysCtlIOSCVerificationSet+0x18>)
    7b72:	681a      	ldr	r2, [r3, #0]
    7b74:	f022 0208 	bic.w	r2, r2, #8
    7b78:	601a      	str	r2, [r3, #0]
    7b7a:	4770      	bx	lr
    7b7c:	400fe060 	.word	0x400fe060

00007b80 <SysCtlMOSCVerificationSet>:
SysCtlMOSCVerificationSet(tBoolean bEnable)
{
    //
    // Enable or disable the main oscillator verification timer as requested.
    //
    if(bEnable)
    7b80:	b120      	cbz	r0, 7b8c <SysCtlMOSCVerificationSet+0xc>
    {
        HWREG(SYSCTL_RCC) |= SYSCTL_RCC_MOSCVER;
    7b82:	4b05      	ldr	r3, [pc, #20]	; (7b98 <SysCtlMOSCVerificationSet+0x18>)
    7b84:	681a      	ldr	r2, [r3, #0]
    7b86:	f042 0204 	orr.w	r2, r2, #4
    7b8a:	e003      	b.n	7b94 <SysCtlMOSCVerificationSet+0x14>
    }
    else
    {
        HWREG(SYSCTL_RCC) &= ~(SYSCTL_RCC_MOSCVER);
    7b8c:	4b02      	ldr	r3, [pc, #8]	; (7b98 <SysCtlMOSCVerificationSet+0x18>)
    7b8e:	681a      	ldr	r2, [r3, #0]
    7b90:	f022 0204 	bic.w	r2, r2, #4
    7b94:	601a      	str	r2, [r3, #0]
    7b96:	4770      	bx	lr
    7b98:	400fe060 	.word	0x400fe060

00007b9c <SysCtlPLLVerificationSet>:
SysCtlPLLVerificationSet(tBoolean bEnable)
{
    //
    // Enable or disable the PLL verification timer as requested.
    //
    if(bEnable)
    7b9c:	b120      	cbz	r0, 7ba8 <SysCtlPLLVerificationSet+0xc>
    {
        HWREG(SYSCTL_RCC) |= SYSCTL_RCC_PLLVER;
    7b9e:	4b05      	ldr	r3, [pc, #20]	; (7bb4 <SysCtlPLLVerificationSet+0x18>)
    7ba0:	681a      	ldr	r2, [r3, #0]
    7ba2:	f442 6280 	orr.w	r2, r2, #1024	; 0x400
    7ba6:	e003      	b.n	7bb0 <SysCtlPLLVerificationSet+0x14>
    }
    else
    {
        HWREG(SYSCTL_RCC) &= ~(SYSCTL_RCC_PLLVER);
    7ba8:	4b02      	ldr	r3, [pc, #8]	; (7bb4 <SysCtlPLLVerificationSet+0x18>)
    7baa:	681a      	ldr	r2, [r3, #0]
    7bac:	f422 6280 	bic.w	r2, r2, #1024	; 0x400
    7bb0:	601a      	str	r2, [r3, #0]
    7bb2:	4770      	bx	lr
    7bb4:	400fe060 	.word	0x400fe060

00007bb8 <SysCtlClkVerificationClear>:
SysCtlClkVerificationClear(void)
{
    //
    // Clear the clock verification.
    //
    HWREG(SYSCTL_CLKVCLR) = SYSCTL_CLKVCLR_VERCLR;
    7bb8:	4b02      	ldr	r3, [pc, #8]	; (7bc4 <SysCtlClkVerificationClear+0xc>)
    7bba:	2201      	movs	r2, #1
    7bbc:	601a      	str	r2, [r3, #0]

    //
    // The bit does not self-reset, so clear it.
    //
    HWREG(SYSCTL_CLKVCLR) = 0;
    7bbe:	3a01      	subs	r2, #1
    7bc0:	601a      	str	r2, [r3, #0]
}
    7bc2:	4770      	bx	lr
    7bc4:	400fe150 	.word	0x400fe150

00007bc8 <SysCtlGPIOAHBEnable>:
           (ulGPIOPeripheral == SYSCTL_PERIPH_GPIOJ));

    //
    // Enable this GPIO for AHB access.
    //
    HWREG(SYSCTL_GPIOHSCTL) |= ulGPIOPeripheral & 0xFFFF;
    7bc8:	4b03      	ldr	r3, [pc, #12]	; (7bd8 <SysCtlGPIOAHBEnable+0x10>)
    7bca:	b280      	uxth	r0, r0
    7bcc:	681a      	ldr	r2, [r3, #0]
    7bce:	ea40 0202 	orr.w	r2, r0, r2
    7bd2:	601a      	str	r2, [r3, #0]
}
    7bd4:	4770      	bx	lr
    7bd6:	bf00      	nop
    7bd8:	400fe06c 	.word	0x400fe06c

00007bdc <SysCtlGPIOAHBDisable>:
           (ulGPIOPeripheral == SYSCTL_PERIPH_GPIOJ));

    //
    // Disable this GPIO for AHB access.
    //
    HWREG(SYSCTL_GPIOHSCTL) &= ~(ulGPIOPeripheral & 0xFFFF);
    7bdc:	4b03      	ldr	r3, [pc, #12]	; (7bec <SysCtlGPIOAHBDisable+0x10>)
    7bde:	b280      	uxth	r0, r0
    7be0:	681a      	ldr	r2, [r3, #0]
    7be2:	ea22 0200 	bic.w	r2, r2, r0
    7be6:	601a      	str	r2, [r3, #0]
}
    7be8:	4770      	bx	lr
    7bea:	bf00      	nop
    7bec:	400fe06c 	.word	0x400fe06c

00007bf0 <SysCtlUSBPLLEnable>:
SysCtlUSBPLLEnable(void)
{
    //
    // Turn on the USB PLL.
    //
    HWREG(SYSCTL_RCC2) &= ~SYSCTL_RCC2_USBPWRDN;
    7bf0:	4b02      	ldr	r3, [pc, #8]	; (7bfc <SysCtlUSBPLLEnable+0xc>)
    7bf2:	681a      	ldr	r2, [r3, #0]
    7bf4:	f422 4280 	bic.w	r2, r2, #16384	; 0x4000
    7bf8:	601a      	str	r2, [r3, #0]
}
    7bfa:	4770      	bx	lr
    7bfc:	400fe070 	.word	0x400fe070

00007c00 <SysCtlUSBPLLDisable>:
SysCtlUSBPLLDisable(void)
{
    //
    // Turn of USB PLL.
    //
    HWREG(SYSCTL_RCC2) |= SYSCTL_RCC2_USBPWRDN;
    7c00:	4b02      	ldr	r3, [pc, #8]	; (7c0c <SysCtlUSBPLLDisable+0xc>)
    7c02:	681a      	ldr	r2, [r3, #0]
    7c04:	f442 4280 	orr.w	r2, r2, #16384	; 0x4000
    7c08:	601a      	str	r2, [r3, #0]
}
    7c0a:	4770      	bx	lr
    7c0c:	400fe070 	.word	0x400fe070

00007c10 <SysCtlI2SMClkSet>:
//! \return Returns the actual MCLK frequency.
//
//*****************************************************************************
unsigned long
SysCtlI2SMClkSet(unsigned long ulInputClock, unsigned long ulMClk)
{
    7c10:	b530      	push	{r4, r5, lr}
    unsigned long ulDivInt, ulDivFrac, ulPLL;

    //
    // See if the I2S MCLK should be disabled.
    //
    if(ulMClk == 0)
    7c12:	460b      	mov	r3, r1
    7c14:	b911      	cbnz	r1, 7c1c <SysCtlI2SMClkSet+0xc>
    {
        //
        // Disable the I2S MCLK and return.
        //
        HWREG(SYSCTL_I2SMCLKCFG) = 0;
    7c16:	4a31      	ldr	r2, [pc, #196]	; (7cdc <SysCtlI2SMClkSet+0xcc>)
    7c18:	6011      	str	r1, [r2, #0]
        return(0);
    7c1a:	e05d      	b.n	7cd8 <SysCtlI2SMClkSet+0xc8>
    }

    //
    // See if the input clock was specified.
    //
    if(ulInputClock == 0)
    7c1c:	b9e0      	cbnz	r0, 7c58 <SysCtlI2SMClkSet+0x48>
    {
        //
        // The input clock was not specified, so compute the output frequency
        // of the PLL.  Get the current PLL configuration.
        //
        ulPLL = HWREG(SYSCTL_PLLCFG);
    7c1e:	4a30      	ldr	r2, [pc, #192]	; (7ce0 <SysCtlI2SMClkSet+0xd0>)

        //
        // Get the frequency of the crystal in use.
        //
        ulInputClock = g_pulXtals[(HWREG(SYSCTL_RCC) & SYSCTL_RCC_XTAL_M) >>
    7c20:	4930      	ldr	r1, [pc, #192]	; (7ce4 <SysCtlI2SMClkSet+0xd4>)
    {
        //
        // The input clock was not specified, so compute the output frequency
        // of the PLL.  Get the current PLL configuration.
        //
        ulPLL = HWREG(SYSCTL_PLLCFG);
    7c22:	6812      	ldr	r2, [r2, #0]

        //
        // Get the frequency of the crystal in use.
        //
        ulInputClock = g_pulXtals[(HWREG(SYSCTL_RCC) & SYSCTL_RCC_XTAL_M) >>
    7c24:	6809      	ldr	r1, [r1, #0]
                                  SYSCTL_RCC_XTAL_S];

        //
        // Calculate the PLL output frequency.
        //
        ulInputClock = ((ulInputClock * ((ulPLL & SYSCTL_PLLCFG_F_M) >>
    7c26:	4830      	ldr	r0, [pc, #192]	; (7ce8 <SysCtlI2SMClkSet+0xd8>)
    7c28:	f401 61f8 	and.w	r1, r1, #1984	; 0x7c0
    7c2c:	eb00 1111 	add.w	r1, r0, r1, lsr #4
    7c30:	f643 70e0 	movw	r0, #16352	; 0x3fe0
    7c34:	6c09      	ldr	r1, [r1, #64]	; 0x40
    7c36:	ea02 0000 	and.w	r0, r2, r0
    7c3a:	0940      	lsrs	r0, r0, #5
    7c3c:	4348      	muls	r0, r1
    7c3e:	f002 011f 	and.w	r1, r2, #31
    7c42:	3101      	adds	r1, #1
    7c44:	fbb0 f0f1 	udiv	r0, r0, r1
                           SYSCTL_PLLCFG_R_S) + 1)));

        //
        // See if the optional output divide by 2 is being used.
        //
        if(ulPLL & SYSCTL_PLLCFG_OD_2)
    7c48:	f412 4f80 	tst.w	r2, #16384	; 0x4000
        {
            ulInputClock /= 2;
    7c4c:	bf18      	it	ne
    7c4e:	0840      	lsrne	r0, r0, #1
        }

        //
        // See if the optional output divide by 4 is being used.
        //
        if(ulPLL & SYSCTL_PLLCFG_OD_4)
    7c50:	f412 4f00 	tst.w	r2, #32768	; 0x8000
        {
            ulInputClock /= 4;
    7c54:	bf18      	it	ne
    7c56:	0880      	lsrne	r0, r0, #2
    ulDivInt = ulInputClock / ulMClk;

    //
    // If the divisor is too large, then simply use the maximum divisor.
    //
    if(CLASS_IS_TEMPEST && REVISION_IS_B1 && (ulDivInt > 255))
    7c58:	4c24      	ldr	r4, [pc, #144]	; (7cec <SysCtlI2SMClkSet+0xdc>)
    7c5a:	4925      	ldr	r1, [pc, #148]	; (7cf0 <SysCtlI2SMClkSet+0xe0>)
    7c5c:	6825      	ldr	r5, [r4, #0]

    //
    // Add a rounding factor to the input clock, so that the MCLK frequency
    // that is closest to the desire value is selected.
    //
    ulInputClock += (ulMClk / 32) - 1;
    7c5e:	ea4f 1c53 	mov.w	ip, r3, lsr #5
    ulDivInt = ulInputClock / ulMClk;

    //
    // If the divisor is too large, then simply use the maximum divisor.
    //
    if(CLASS_IS_TEMPEST && REVISION_IS_B1 && (ulDivInt > 255))
    7c62:	ea05 0101 	and.w	r1, r5, r1
    7c66:	4d23      	ldr	r5, [pc, #140]	; (7cf4 <SysCtlI2SMClkSet+0xe4>)

    //
    // Add a rounding factor to the input clock, so that the MCLK frequency
    // that is closest to the desire value is selected.
    //
    ulInputClock += (ulMClk / 32) - 1;
    7c68:	f10c 32ff 	add.w	r2, ip, #4294967295
    7c6c:	1810      	adds	r0, r2, r0
    ulDivInt = ulInputClock / ulMClk;

    //
    // If the divisor is too large, then simply use the maximum divisor.
    //
    if(CLASS_IS_TEMPEST && REVISION_IS_B1 && (ulDivInt > 255))
    7c6e:	42a9      	cmp	r1, r5
    ulInputClock += (ulMClk / 32) - 1;

    //
    // Compute the integer portion of the MCLK divider.
    //
    ulDivInt = ulInputClock / ulMClk;
    7c70:	fbb0 f2f3 	udiv	r2, r0, r3

    //
    // If the divisor is too large, then simply use the maximum divisor.
    //
    if(CLASS_IS_TEMPEST && REVISION_IS_B1 && (ulDivInt > 255))
    7c74:	d10a      	bne.n	7c8c <SysCtlI2SMClkSet+0x7c>
    7c76:	6824      	ldr	r4, [r4, #0]
    7c78:	f240 1101 	movw	r1, #257	; 0x101
    7c7c:	b2a4      	uxth	r4, r4
    7c7e:	428c      	cmp	r4, r1
    7c80:	d104      	bne.n	7c8c <SysCtlI2SMClkSet+0x7c>
    7c82:	2aff      	cmp	r2, #255	; 0xff
    7c84:	d909      	bls.n	7c9a <SysCtlI2SMClkSet+0x8a>
    7c86:	230f      	movs	r3, #15
    7c88:	22ff      	movs	r2, #255	; 0xff
    7c8a:	e00b      	b.n	7ca4 <SysCtlI2SMClkSet+0x94>
    {
        ulDivInt = 255;
        ulDivFrac = 15;
    }
    else if(ulDivInt > 1023)
    7c8c:	f240 31ff 	movw	r1, #1023	; 0x3ff
    7c90:	428a      	cmp	r2, r1
    7c92:	d902      	bls.n	7c9a <SysCtlI2SMClkSet+0x8a>
    7c94:	230f      	movs	r3, #15
    7c96:	460a      	mov	r2, r1
    7c98:	e004      	b.n	7ca4 <SysCtlI2SMClkSet+0x94>
    else
    {
        //
        // Compute the fractional portion of the MCLK divider.
        //
        ulDivFrac = ((ulInputClock - (ulDivInt * ulMClk)) * 16) / ulMClk;
    7c9a:	fb03 0112 	mls	r1, r3, r2, r0
    7c9e:	0109      	lsls	r1, r1, #4
    7ca0:	fbb1 f3f3 	udiv	r3, r1, r3
    }

    //
    // Set the divisor for the Tx and Rx MCLK generators and enable the clocks.
    //
    HWREG(SYSCTL_I2SMCLKCFG) = (SYSCTL_I2SMCLKCFG_RXEN |
    7ca4:	f043 4100 	orr.w	r1, r3, #2147483648	; 0x80000000
    7ca8:	f441 4100 	orr.w	r1, r1, #32768	; 0x8000
    7cac:	ea41 5102 	orr.w	r1, r1, r2, lsl #20
    7cb0:	ea41 4103 	orr.w	r1, r1, r3, lsl #16
    7cb4:	0112      	lsls	r2, r2, #4
    7cb6:	4c09      	ldr	r4, [pc, #36]	; (7cdc <SysCtlI2SMClkSet+0xcc>)
                                (ulDivFrac << SYSCTL_I2SMCLKCFG_TXF_S));

    //
    // Return the actual MCLK frequency.
    //
    ulInputClock -= (ulMClk / 32) - 1;
    7cb8:	f1cc 0c01 	rsb	ip, ip, #1
    }

    //
    // Set the divisor for the Tx and Rx MCLK generators and enable the clocks.
    //
    HWREG(SYSCTL_I2SMCLKCFG) = (SYSCTL_I2SMCLKCFG_RXEN |
    7cbc:	4311      	orrs	r1, r2
                                (ulDivFrac << SYSCTL_I2SMCLKCFG_TXF_S));

    //
    // Return the actual MCLK frequency.
    //
    ulInputClock -= (ulMClk / 32) - 1;
    7cbe:	4460      	add	r0, ip
    ulDivInt = (ulDivInt * 16) + ulDivFrac;
    7cc0:	18d2      	adds	r2, r2, r3
    }

    //
    // Set the divisor for the Tx and Rx MCLK generators and enable the clocks.
    //
    HWREG(SYSCTL_I2SMCLKCFG) = (SYSCTL_I2SMCLKCFG_RXEN |
    7cc2:	6021      	str	r1, [r4, #0]
    //
    // Return the actual MCLK frequency.
    //
    ulInputClock -= (ulMClk / 32) - 1;
    ulDivInt = (ulDivInt * 16) + ulDivFrac;
    ulMClk = (ulInputClock / ulDivInt) * 16;
    7cc4:	fbb0 f1f2 	udiv	r1, r0, r2
    7cc8:	0109      	lsls	r1, r1, #4
    ulMClk += ((ulInputClock - ((ulMClk / 16) * ulDivInt)) * 16) / ulDivInt;
    7cca:	090b      	lsrs	r3, r1, #4
    7ccc:	fb02 0013 	mls	r0, r2, r3, r0
    7cd0:	0103      	lsls	r3, r0, #4
    7cd2:	fbb3 f3f2 	udiv	r3, r3, r2
    7cd6:	185b      	adds	r3, r3, r1
    return(ulMClk);
}
    7cd8:	4618      	mov	r0, r3
    7cda:	bd30      	pop	{r4, r5, pc}
    7cdc:	400fe170 	.word	0x400fe170
    7ce0:	400fe064 	.word	0x400fe064
    7ce4:	400fe060 	.word	0x400fe060
    7ce8:	00009624 	.word	0x00009624
    7cec:	400fe000 	.word	0x400fe000
    7cf0:	70ff0000 	.word	0x70ff0000
    7cf4:	10040000 	.word	0x10040000

00007cf8 <SysCtlDeepSleep>:
//! \return None.
//
//*****************************************************************************
void
SysCtlDeepSleep(void)
{
    7cf8:	b510      	push	{r4, lr}
    //
    // Enable deep-sleep.
    //
    HWREG(NVIC_SYS_CTRL) |= NVIC_SYS_CTRL_SLEEPDEEP;
    7cfa:	4c06      	ldr	r4, [pc, #24]	; (7d14 <SysCtlDeepSleep+0x1c>)
    7cfc:	6823      	ldr	r3, [r4, #0]
    7cfe:	f043 0304 	orr.w	r3, r3, #4
    7d02:	6023      	str	r3, [r4, #0]

    //
    // Wait for an interrupt.
    //
    CPUwfi();
    7d04:	f7fe ff42 	bl	6b8c <CPUwfi>

    //
    // Disable deep-sleep so that a future sleep will work correctly.
    //
    HWREG(NVIC_SYS_CTRL) &= ~(NVIC_SYS_CTRL_SLEEPDEEP);
    7d08:	6823      	ldr	r3, [r4, #0]
    7d0a:	f023 0304 	bic.w	r3, r3, #4
    7d0e:	6023      	str	r3, [r4, #0]
}
    7d10:	bd10      	pop	{r4, pc}
    7d12:	bf00      	nop
    7d14:	e000ed10 	.word	0xe000ed10

00007d18 <SysCtlSleep>:
SysCtlSleep(void)
{
    //
    // Wait for an interrupt.
    //
    CPUwfi();
    7d18:	f7fe bf38 	b.w	6b8c <CPUwfi>

00007d1c <SysCtlIntUnregister>:
SysCtlIntUnregister(void)
{
    //
    // Disable the interrupt.
    //
    IntDisable(INT_SYSCTL);
    7d1c:	202c      	movs	r0, #44	; 0x2c
//! \return None.
//
//*****************************************************************************
void
SysCtlIntUnregister(void)
{
    7d1e:	b510      	push	{r4, lr}
    //
    // Disable the interrupt.
    //
    IntDisable(INT_SYSCTL);
    7d20:	f7ff fa96 	bl	7250 <IntDisable>

    //
    // Unregister the interrupt handler.
    //
    IntUnregister(INT_SYSCTL);
    7d24:	202c      	movs	r0, #44	; 0x2c
}
    7d26:	e8bd 4010 	ldmia.w	sp!, {r4, lr}
    IntDisable(INT_SYSCTL);

    //
    // Unregister the interrupt handler.
    //
    IntUnregister(INT_SYSCTL);
    7d2a:	f7ff ba09 	b.w	7140 <IntUnregister>

00007d2e <SysCtlIntRegister>:
//! \return None.
//
//*****************************************************************************
void
SysCtlIntRegister(void (*pfnHandler)(void))
{
    7d2e:	4601      	mov	r1, r0
    7d30:	b510      	push	{r4, lr}
    //
    // Register the interrupt handler, returning an error if an error occurs.
    //
    IntRegister(INT_SYSCTL, pfnHandler);
    7d32:	202c      	movs	r0, #44	; 0x2c
    7d34:	f7ff f9eb 	bl	710e <IntRegister>

    //
    // Enable the system control interrupt.
    //
    IntEnable(INT_SYSCTL);
    7d38:	202c      	movs	r0, #44	; 0x2c
}
    7d3a:	e8bd 4010 	ldmia.w	sp!, {r4, lr}
    IntRegister(INT_SYSCTL, pfnHandler);

    //
    // Enable the system control interrupt.
    //
    IntEnable(INT_SYSCTL);
    7d3e:	f7ff ba4f 	b.w	71e0 <IntEnable>
    7d42:	bf00      	nop

00007d44 <SysTickEnable>:
SysTickEnable(void)
{
    //
    // Enable SysTick.
    //
    HWREG(NVIC_ST_CTRL) |= NVIC_ST_CTRL_CLK_SRC | NVIC_ST_CTRL_ENABLE;
    7d44:	4b02      	ldr	r3, [pc, #8]	; (7d50 <SysTickEnable+0xc>)
    7d46:	681a      	ldr	r2, [r3, #0]
    7d48:	f042 0205 	orr.w	r2, r2, #5
    7d4c:	601a      	str	r2, [r3, #0]
}
    7d4e:	4770      	bx	lr
    7d50:	e000e010 	.word	0xe000e010

00007d54 <SysTickDisable>:
SysTickDisable(void)
{
    //
    // Disable SysTick.
    //
    HWREG(NVIC_ST_CTRL) &= ~(NVIC_ST_CTRL_ENABLE);
    7d54:	4b02      	ldr	r3, [pc, #8]	; (7d60 <SysTickDisable+0xc>)
    7d56:	681a      	ldr	r2, [r3, #0]
    7d58:	f022 0201 	bic.w	r2, r2, #1
    7d5c:	601a      	str	r2, [r3, #0]
}
    7d5e:	4770      	bx	lr
    7d60:	e000e010 	.word	0xe000e010

00007d64 <SysTickIntEnable>:
SysTickIntEnable(void)
{
    //
    // Enable the SysTick interrupt.
    //
    HWREG(NVIC_ST_CTRL) |= NVIC_ST_CTRL_INTEN;
    7d64:	4b02      	ldr	r3, [pc, #8]	; (7d70 <SysTickIntEnable+0xc>)
    7d66:	681a      	ldr	r2, [r3, #0]
    7d68:	f042 0202 	orr.w	r2, r2, #2
    7d6c:	601a      	str	r2, [r3, #0]
}
    7d6e:	4770      	bx	lr
    7d70:	e000e010 	.word	0xe000e010

00007d74 <SysTickIntDisable>:
SysTickIntDisable(void)
{
    //
    // Disable the SysTick interrupt.
    //
    HWREG(NVIC_ST_CTRL) &= ~(NVIC_ST_CTRL_INTEN);
    7d74:	4b02      	ldr	r3, [pc, #8]	; (7d80 <SysTickIntDisable+0xc>)
    7d76:	681a      	ldr	r2, [r3, #0]
    7d78:	f022 0202 	bic.w	r2, r2, #2
    7d7c:	601a      	str	r2, [r3, #0]
}
    7d7e:	4770      	bx	lr
    7d80:	e000e010 	.word	0xe000e010

00007d84 <SysTickPeriodSet>:
    ASSERT((ulPeriod > 0) && (ulPeriod <= 16777216));

    //
    // Set the period of the SysTick counter.
    //
    HWREG(NVIC_ST_RELOAD) = ulPeriod - 1;
    7d84:	4b01      	ldr	r3, [pc, #4]	; (7d8c <SysTickPeriodSet+0x8>)
    7d86:	3801      	subs	r0, #1
    7d88:	6018      	str	r0, [r3, #0]
}
    7d8a:	4770      	bx	lr
    7d8c:	e000e014 	.word	0xe000e014

00007d90 <SysTickPeriodGet>:
SysTickPeriodGet(void)
{
    //
    // Return the period of the SysTick counter.
    //
    return(HWREG(NVIC_ST_RELOAD) + 1);
    7d90:	4b01      	ldr	r3, [pc, #4]	; (7d98 <SysTickPeriodGet+0x8>)
    7d92:	6818      	ldr	r0, [r3, #0]
}
    7d94:	3001      	adds	r0, #1
    7d96:	4770      	bx	lr
    7d98:	e000e014 	.word	0xe000e014

00007d9c <SysTickValueGet>:
SysTickValueGet(void)
{
    //
    // Return the current value of the SysTick counter.
    //
    return(HWREG(NVIC_ST_CURRENT));
    7d9c:	4b01      	ldr	r3, [pc, #4]	; (7da4 <SysTickValueGet+0x8>)
    7d9e:	6818      	ldr	r0, [r3, #0]
}
    7da0:	4770      	bx	lr
    7da2:	bf00      	nop
    7da4:	e000e018 	.word	0xe000e018

00007da8 <SysTickIntUnregister>:
SysTickIntUnregister(void)
{
    //
    // Disable the SysTick interrupt.
    //
    HWREG(NVIC_ST_CTRL) &= ~(NVIC_ST_CTRL_INTEN);
    7da8:	4b03      	ldr	r3, [pc, #12]	; (7db8 <SysTickIntUnregister+0x10>)

    //
    // Unregister the interrupt handler.
    //
    IntUnregister(FAULT_SYSTICK);
    7daa:	200f      	movs	r0, #15
SysTickIntUnregister(void)
{
    //
    // Disable the SysTick interrupt.
    //
    HWREG(NVIC_ST_CTRL) &= ~(NVIC_ST_CTRL_INTEN);
    7dac:	681a      	ldr	r2, [r3, #0]
    7dae:	f022 0202 	bic.w	r2, r2, #2
    7db2:	601a      	str	r2, [r3, #0]

    //
    // Unregister the interrupt handler.
    //
    IntUnregister(FAULT_SYSTICK);
    7db4:	f7ff b9c4 	b.w	7140 <IntUnregister>
    7db8:	e000e010 	.word	0xe000e010

00007dbc <SysTickIntRegister>:
//! \return None.
//
//*****************************************************************************
void
SysTickIntRegister(void (*pfnHandler)(void))
{
    7dbc:	b508      	push	{r3, lr}
    7dbe:	4601      	mov	r1, r0
    //
    // Register the interrupt handler, returning an error if an error occurs.
    //
    IntRegister(FAULT_SYSTICK, pfnHandler);
    7dc0:	200f      	movs	r0, #15
    7dc2:	f7ff f9a4 	bl	710e <IntRegister>

    //
    // Enable the SysTick interrupt.
    //
    HWREG(NVIC_ST_CTRL) |= NVIC_ST_CTRL_INTEN;
    7dc6:	4b03      	ldr	r3, [pc, #12]	; (7dd4 <SysTickIntRegister+0x18>)
    7dc8:	681a      	ldr	r2, [r3, #0]
    7dca:	f042 0202 	orr.w	r2, r2, #2
    7dce:	601a      	str	r2, [r3, #0]
}
    7dd0:	bd08      	pop	{r3, pc}
    7dd2:	bf00      	nop
    7dd4:	e000e010 	.word	0xe000e010

00007dd8 <TimerEnable>:
           (ulTimer == TIMER_BOTH));

    //
    // Enable the timer(s) module.
    //
    HWREG(ulBase + TIMER_O_CTL) |= ulTimer & (TIMER_CTL_TAEN | TIMER_CTL_TBEN);
    7dd8:	68c2      	ldr	r2, [r0, #12]
    7dda:	f240 1301 	movw	r3, #257	; 0x101
    7dde:	ea01 0303 	and.w	r3, r1, r3
    7de2:	ea42 0303 	orr.w	r3, r2, r3
    7de6:	60c3      	str	r3, [r0, #12]
}
    7de8:	4770      	bx	lr

00007dea <TimerDisable>:
           (ulTimer == TIMER_BOTH));

    //
    // Disable the timer module.
    //
    HWREG(ulBase + TIMER_O_CTL) &= ~(ulTimer &
    7dea:	68c2      	ldr	r2, [r0, #12]
    7dec:	f240 1301 	movw	r3, #257	; 0x101
    7df0:	ea01 0303 	and.w	r3, r1, r3
    7df4:	ea22 0303 	bic.w	r3, r2, r3
    7df8:	60c3      	str	r3, [r0, #12]
                                     (TIMER_CTL_TAEN | TIMER_CTL_TBEN));
}
    7dfa:	4770      	bx	lr

00007dfc <TimerConfigure>:
             ((ulConfig & 0x0000ff00) == TIMER_CFG_B_PWM))));

    //
    // Disable the timers.
    //
    HWREG(ulBase + TIMER_O_CTL) &= ~(TIMER_CTL_TAEN | TIMER_CTL_TBEN);
    7dfc:	68c3      	ldr	r3, [r0, #12]
    7dfe:	f423 7380 	bic.w	r3, r3, #256	; 0x100
    7e02:	f023 0301 	bic.w	r3, r3, #1
    7e06:	60c3      	str	r3, [r0, #12]

    //
    // Set the global timer configuration.
    //
    HWREG(ulBase + TIMER_O_CFG) = ulConfig >> 24;
    7e08:	0e0b      	lsrs	r3, r1, #24
    7e0a:	6003      	str	r3, [r0, #0]

    //
    // Set the configuration of the A and B timers.  Note that the B timer
    // configuration is ignored by the hardware in 32-bit modes.
    //
    HWREG(ulBase + TIMER_O_TAMR) = ulConfig & 255;
    7e0c:	f001 03ff 	and.w	r3, r1, #255	; 0xff
    HWREG(ulBase + TIMER_O_TBMR) = (ulConfig >> 8) & 255;
    7e10:	0a09      	lsrs	r1, r1, #8
    7e12:	f001 01ff 	and.w	r1, r1, #255	; 0xff

    //
    // Set the configuration of the A and B timers.  Note that the B timer
    // configuration is ignored by the hardware in 32-bit modes.
    //
    HWREG(ulBase + TIMER_O_TAMR) = ulConfig & 255;
    7e16:	6043      	str	r3, [r0, #4]
    HWREG(ulBase + TIMER_O_TBMR) = (ulConfig >> 8) & 255;
    7e18:	6081      	str	r1, [r0, #8]
}
    7e1a:	4770      	bx	lr

00007e1c <TimerControlLevel>:
           (ulTimer == TIMER_BOTH));

    //
    // Set the output levels as requested.
    //
    ulTimer &= TIMER_CTL_TAPWML | TIMER_CTL_TBPWML;
    7e1c:	f244 0340 	movw	r3, #16448	; 0x4040
    7e20:	ea01 0303 	and.w	r3, r1, r3
    7e24:	f100 010c 	add.w	r1, r0, #12
    HWREG(ulBase + TIMER_O_CTL) = (bInvert ?
    7e28:	b11a      	cbz	r2, 7e32 <TimerControlLevel+0x16>
                                   (HWREG(ulBase + TIMER_O_CTL) | ulTimer) :
    7e2a:	68c2      	ldr	r2, [r0, #12]

    //
    // Set the output levels as requested.
    //
    ulTimer &= TIMER_CTL_TAPWML | TIMER_CTL_TBPWML;
    HWREG(ulBase + TIMER_O_CTL) = (bInvert ?
    7e2c:	ea42 0303 	orr.w	r3, r2, r3
    7e30:	e002      	b.n	7e38 <TimerControlLevel+0x1c>
                                   (HWREG(ulBase + TIMER_O_CTL) | ulTimer) :
                                   (HWREG(ulBase + TIMER_O_CTL) & ~(ulTimer)));
    7e32:	68c2      	ldr	r2, [r0, #12]

    //
    // Set the output levels as requested.
    //
    ulTimer &= TIMER_CTL_TAPWML | TIMER_CTL_TBPWML;
    HWREG(ulBase + TIMER_O_CTL) = (bInvert ?
    7e34:	ea22 0303 	bic.w	r3, r2, r3
    7e38:	600b      	str	r3, [r1, #0]
                                   (HWREG(ulBase + TIMER_O_CTL) | ulTimer) :
                                   (HWREG(ulBase + TIMER_O_CTL) & ~(ulTimer)));
}
    7e3a:	4770      	bx	lr

00007e3c <TimerControlTrigger>:
           (ulTimer == TIMER_BOTH));

    //
    // Set the trigger output as requested.
    //
    ulTimer &= TIMER_CTL_TAOTE | TIMER_CTL_TBOTE;
    7e3c:	f242 0320 	movw	r3, #8224	; 0x2020
    7e40:	ea01 0303 	and.w	r3, r1, r3
    7e44:	f100 010c 	add.w	r1, r0, #12
    HWREG(ulBase + TIMER_O_CTL) = (bEnable ?
    7e48:	b11a      	cbz	r2, 7e52 <TimerControlTrigger+0x16>
                                   (HWREG(ulBase + TIMER_O_CTL) | ulTimer) :
    7e4a:	68c2      	ldr	r2, [r0, #12]

    //
    // Set the trigger output as requested.
    //
    ulTimer &= TIMER_CTL_TAOTE | TIMER_CTL_TBOTE;
    HWREG(ulBase + TIMER_O_CTL) = (bEnable ?
    7e4c:	ea42 0303 	orr.w	r3, r2, r3
    7e50:	e002      	b.n	7e58 <TimerControlTrigger+0x1c>
                                   (HWREG(ulBase + TIMER_O_CTL) | ulTimer) :
                                   (HWREG(ulBase + TIMER_O_CTL) & ~(ulTimer)));
    7e52:	68c2      	ldr	r2, [r0, #12]

    //
    // Set the trigger output as requested.
    //
    ulTimer &= TIMER_CTL_TAOTE | TIMER_CTL_TBOTE;
    HWREG(ulBase + TIMER_O_CTL) = (bEnable ?
    7e54:	ea22 0303 	bic.w	r3, r2, r3
    7e58:	600b      	str	r3, [r1, #0]
                                   (HWREG(ulBase + TIMER_O_CTL) | ulTimer) :
                                   (HWREG(ulBase + TIMER_O_CTL) & ~(ulTimer)));
}
    7e5a:	4770      	bx	lr

00007e5c <TimerControlEvent>:

    //
    // Set the event type.
    //
    ulEvent &= ulTimer & (TIMER_CTL_TAEVENT_M | TIMER_CTL_TBEVENT_M);
    HWREG(ulBase + TIMER_O_CTL) = ((HWREG(ulBase + TIMER_O_CTL) &
    7e5c:	68c3      	ldr	r3, [r0, #12]
    7e5e:	f640 4c0c 	movw	ip, #3084	; 0xc0c
    7e62:	f423 6340 	bic.w	r3, r3, #3072	; 0xc00
    7e66:	ea01 0c0c 	and.w	ip, r1, ip
    7e6a:	f023 030c 	bic.w	r3, r3, #12
    7e6e:	ea0c 0c02 	and.w	ip, ip, r2
    7e72:	ea43 030c 	orr.w	r3, r3, ip
    7e76:	60c3      	str	r3, [r0, #12]
                                    ~(TIMER_CTL_TAEVENT_M |
                                      TIMER_CTL_TBEVENT_M)) | ulEvent);
}
    7e78:	4770      	bx	lr

00007e7a <TimerControlStall>:
           (ulTimer == TIMER_BOTH));

    //
    // Set the stall mode.
    //
    ulTimer &= TIMER_CTL_TASTALL | TIMER_CTL_TBSTALL;
    7e7a:	f240 2302 	movw	r3, #514	; 0x202
    7e7e:	ea01 0303 	and.w	r3, r1, r3
    7e82:	f100 010c 	add.w	r1, r0, #12
    HWREG(ulBase + TIMER_O_CTL) = (bStall ?
    7e86:	b11a      	cbz	r2, 7e90 <TimerControlStall+0x16>
                                   (HWREG(ulBase + TIMER_O_CTL) | ulTimer) :
    7e88:	68c2      	ldr	r2, [r0, #12]

    //
    // Set the stall mode.
    //
    ulTimer &= TIMER_CTL_TASTALL | TIMER_CTL_TBSTALL;
    HWREG(ulBase + TIMER_O_CTL) = (bStall ?
    7e8a:	ea42 0303 	orr.w	r3, r2, r3
    7e8e:	e002      	b.n	7e96 <TimerControlStall+0x1c>
                                   (HWREG(ulBase + TIMER_O_CTL) | ulTimer) :
                                   (HWREG(ulBase + TIMER_O_CTL) & ~(ulTimer)));
    7e90:	68c2      	ldr	r2, [r0, #12]

    //
    // Set the stall mode.
    //
    ulTimer &= TIMER_CTL_TASTALL | TIMER_CTL_TBSTALL;
    HWREG(ulBase + TIMER_O_CTL) = (bStall ?
    7e92:	ea22 0303 	bic.w	r3, r2, r3
    7e96:	600b      	str	r3, [r1, #0]
                                   (HWREG(ulBase + TIMER_O_CTL) | ulTimer) :
                                   (HWREG(ulBase + TIMER_O_CTL) & ~(ulTimer)));
}
    7e98:	4770      	bx	lr

00007e9a <TimerRTCEnable>:
    ASSERT(TimerBaseValid(ulBase));

    //
    // Enable RTC counting.
    //
    HWREG(ulBase + TIMER_O_CTL) |= TIMER_CTL_RTCEN;
    7e9a:	68c3      	ldr	r3, [r0, #12]
    7e9c:	f043 0310 	orr.w	r3, r3, #16
    7ea0:	60c3      	str	r3, [r0, #12]
}
    7ea2:	4770      	bx	lr

00007ea4 <TimerRTCDisable>:
    ASSERT(TimerBaseValid(ulBase));

    //
    // Disable RTC counting.
    //
    HWREG(ulBase + TIMER_O_CTL) &= ~(TIMER_CTL_RTCEN);
    7ea4:	68c3      	ldr	r3, [r0, #12]
    7ea6:	f023 0310 	bic.w	r3, r3, #16
    7eaa:	60c3      	str	r3, [r0, #12]
}
    7eac:	4770      	bx	lr

00007eae <TimerPrescaleSet>:
    ASSERT(ulValue < 256);

    //
    // Set the timer A prescaler if requested.
    //
    if(ulTimer & TIMER_A)
    7eae:	f011 0fff 	tst.w	r1, #255	; 0xff
    {
        HWREG(ulBase + TIMER_O_TAPR) = ulValue;
    7eb2:	bf18      	it	ne
    7eb4:	6382      	strne	r2, [r0, #56]	; 0x38
    }

    //
    // Set the timer B prescaler if requested.
    //
    if(ulTimer & TIMER_B)
    7eb6:	f411 4f7f 	tst.w	r1, #65280	; 0xff00
    {
        HWREG(ulBase + TIMER_O_TBPR) = ulValue;
    7eba:	bf18      	it	ne
    7ebc:	63c2      	strne	r2, [r0, #60]	; 0x3c
    7ebe:	4770      	bx	lr

00007ec0 <TimerPrescaleGet>:
           (ulTimer == TIMER_BOTH));

    //
    // Return the appropriate prescale value.
    //
    return((ulTimer == TIMER_A) ? HWREG(ulBase + TIMER_O_TAPR) :
    7ec0:	29ff      	cmp	r1, #255	; 0xff
    7ec2:	bf0c      	ite	eq
    7ec4:	6b80      	ldreq	r0, [r0, #56]	; 0x38
    7ec6:	6bc0      	ldrne	r0, [r0, #60]	; 0x3c
           HWREG(ulBase + TIMER_O_TBPR));
}
    7ec8:	4770      	bx	lr

00007eca <TimerLoadSet>:
           (ulTimer == TIMER_BOTH));

    //
    // Set the timer A load value if requested.
    //
    if(ulTimer & TIMER_A)
    7eca:	f011 0fff 	tst.w	r1, #255	; 0xff
    {
        HWREG(ulBase + TIMER_O_TAILR) = ulValue;
    7ece:	bf18      	it	ne
    7ed0:	6282      	strne	r2, [r0, #40]	; 0x28
    }

    //
    // Set the timer B load value if requested.
    //
    if(ulTimer & TIMER_B)
    7ed2:	f411 4f7f 	tst.w	r1, #65280	; 0xff00
    {
        HWREG(ulBase + TIMER_O_TBILR) = ulValue;
    7ed6:	bf18      	it	ne
    7ed8:	62c2      	strne	r2, [r0, #44]	; 0x2c
    7eda:	4770      	bx	lr

00007edc <TimerLoadGet>:
    ASSERT((ulTimer == TIMER_A) || (ulTimer == TIMER_B));

    //
    // Return the appropriate load value.
    //
    return((ulTimer == TIMER_A) ? HWREG(ulBase + TIMER_O_TAILR) :
    7edc:	29ff      	cmp	r1, #255	; 0xff
    7ede:	bf0c      	ite	eq
    7ee0:	6a80      	ldreq	r0, [r0, #40]	; 0x28
    7ee2:	6ac0      	ldrne	r0, [r0, #44]	; 0x2c
           HWREG(ulBase + TIMER_O_TBILR));
}
    7ee4:	4770      	bx	lr

00007ee6 <TimerValueGet>:
    ASSERT((ulTimer == TIMER_A) || (ulTimer == TIMER_B));

    //
    // Return the appropriate timer value.
    //
    return((ulTimer == TIMER_A) ? HWREG(ulBase + TIMER_O_TAR) :
    7ee6:	29ff      	cmp	r1, #255	; 0xff
    7ee8:	bf0c      	ite	eq
    7eea:	6c80      	ldreq	r0, [r0, #72]	; 0x48
    7eec:	6cc0      	ldrne	r0, [r0, #76]	; 0x4c
           HWREG(ulBase + TIMER_O_TBR));
}
    7eee:	4770      	bx	lr

00007ef0 <TimerMatchSet>:
           (ulTimer == TIMER_BOTH));

    //
    // Set the timer A match value if requested.
    //
    if(ulTimer & TIMER_A)
    7ef0:	f011 0fff 	tst.w	r1, #255	; 0xff
    {
        HWREG(ulBase + TIMER_O_TAMATCHR) = ulValue;
    7ef4:	bf18      	it	ne
    7ef6:	6302      	strne	r2, [r0, #48]	; 0x30
    }

    //
    // Set the timer B match value if requested.
    //
    if(ulTimer & TIMER_B)
    7ef8:	f411 4f7f 	tst.w	r1, #65280	; 0xff00
    {
        HWREG(ulBase + TIMER_O_TBMATCHR) = ulValue;
    7efc:	bf18      	it	ne
    7efe:	6342      	strne	r2, [r0, #52]	; 0x34
    7f00:	4770      	bx	lr

00007f02 <TimerMatchGet>:
    ASSERT((ulTimer == TIMER_A) || (ulTimer == TIMER_B));

    //
    // Return the appropriate match value.
    //
    return((ulTimer == TIMER_A) ? HWREG(ulBase + TIMER_O_TAMATCHR) :
    7f02:	29ff      	cmp	r1, #255	; 0xff
    7f04:	bf0c      	ite	eq
    7f06:	6b00      	ldreq	r0, [r0, #48]	; 0x30
    7f08:	6b40      	ldrne	r0, [r0, #52]	; 0x34
           HWREG(ulBase + TIMER_O_TBMATCHR));
}
    7f0a:	4770      	bx	lr

00007f0c <TimerIntEnable>:
    ASSERT(TimerBaseValid(ulBase));

    //
    // Enable the specified interrupts.
    //
    HWREG(ulBase + TIMER_O_IMR) |= ulIntFlags;
    7f0c:	6983      	ldr	r3, [r0, #24]
    7f0e:	430b      	orrs	r3, r1
    7f10:	6183      	str	r3, [r0, #24]
}
    7f12:	4770      	bx	lr

00007f14 <TimerIntDisable>:
    ASSERT(TimerBaseValid(ulBase));

    //
    // Disable the specified interrupts.
    //
    HWREG(ulBase + TIMER_O_IMR) &= ~(ulIntFlags);
    7f14:	6983      	ldr	r3, [r0, #24]
    7f16:	ea23 0301 	bic.w	r3, r3, r1
    7f1a:	6183      	str	r3, [r0, #24]
}
    7f1c:	4770      	bx	lr

00007f1e <TimerIntStatus>:

    //
    // Return either the interrupt status or the raw interrupt status as
    // requested.
    //
    return(bMasked ? HWREG(ulBase + TIMER_O_MIS) :
    7f1e:	b109      	cbz	r1, 7f24 <TimerIntStatus+0x6>
    7f20:	6a00      	ldr	r0, [r0, #32]
    7f22:	4770      	bx	lr
    7f24:	69c0      	ldr	r0, [r0, #28]
           HWREG(ulBase + TIMER_O_RIS));
}
    7f26:	4770      	bx	lr

00007f28 <TimerIntClear>:
    ASSERT(TimerBaseValid(ulBase));

    //
    // Clear the requested interrupt sources.
    //
    HWREG(ulBase + TIMER_O_ICR) = ulIntFlags;
    7f28:	6241      	str	r1, [r0, #36]	; 0x24
}
    7f2a:	4770      	bx	lr

00007f2c <TimerIntUnregister>:
           (ulTimer == TIMER_BOTH));

    //
    // Get the interrupt number for this timer module.
    //
    ulBase = ((ulBase == TIMER0_BASE) ? INT_TIMER0A :
    7f2c:	4b13      	ldr	r3, [pc, #76]	; (7f7c <TimerIntUnregister+0x50>)
//! \return None.
//
//*****************************************************************************
void
TimerIntUnregister(unsigned long ulBase, unsigned long ulTimer)
{
    7f2e:	b570      	push	{r4, r5, r6, lr}
           (ulTimer == TIMER_BOTH));

    //
    // Get the interrupt number for this timer module.
    //
    ulBase = ((ulBase == TIMER0_BASE) ? INT_TIMER0A :
    7f30:	4298      	cmp	r0, r3
//! \return None.
//
//*****************************************************************************
void
TimerIntUnregister(unsigned long ulBase, unsigned long ulTimer)
{
    7f32:	460d      	mov	r5, r1
           (ulTimer == TIMER_BOTH));

    //
    // Get the interrupt number for this timer module.
    //
    ulBase = ((ulBase == TIMER0_BASE) ? INT_TIMER0A :
    7f34:	d101      	bne.n	7f3a <TimerIntUnregister+0xe>
    7f36:	2423      	movs	r4, #35	; 0x23
    7f38:	e009      	b.n	7f4e <TimerIntUnregister+0x22>
    7f3a:	4b11      	ldr	r3, [pc, #68]	; (7f80 <TimerIntUnregister+0x54>)
    7f3c:	4298      	cmp	r0, r3
    7f3e:	d101      	bne.n	7f44 <TimerIntUnregister+0x18>
    7f40:	2425      	movs	r4, #37	; 0x25
    7f42:	e004      	b.n	7f4e <TimerIntUnregister+0x22>
    7f44:	4c0f      	ldr	r4, [pc, #60]	; (7f84 <TimerIntUnregister+0x58>)
    7f46:	42a0      	cmp	r0, r4
    7f48:	bf0c      	ite	eq
    7f4a:	2427      	moveq	r4, #39	; 0x27
    7f4c:	2433      	movne	r4, #51	; 0x33
               ((ulBase == TIMER2_BASE) ? INT_TIMER2A : INT_TIMER3A)));

    //
    // Unregister the interrupt handler for timer A if requested.
    //
    if(ulTimer & TIMER_A)
    7f4e:	f015 0fff 	tst.w	r5, #255	; 0xff
    7f52:	d005      	beq.n	7f60 <TimerIntUnregister+0x34>
    {
        //
        // Disable the interrupt.
        //
        IntDisable(ulBase);
    7f54:	4620      	mov	r0, r4
    7f56:	f7ff f97b 	bl	7250 <IntDisable>

        //
        // Unregister the interrupt handler.
        //
        IntUnregister(ulBase);
    7f5a:	4620      	mov	r0, r4
    7f5c:	f7ff f8f0 	bl	7140 <IntUnregister>
    }

    //
    // Unregister the interrupt handler for timer B if requested.
    //
    if(ulTimer & TIMER_B)
    7f60:	f415 4f7f 	tst.w	r5, #65280	; 0xff00
    7f64:	d008      	beq.n	7f78 <TimerIntUnregister+0x4c>
    {
        //
        // Disable the interrupt.
        //
        IntDisable(ulBase + 1);
    7f66:	3401      	adds	r4, #1
    7f68:	4620      	mov	r0, r4
    7f6a:	f7ff f971 	bl	7250 <IntDisable>

        //
        // Unregister the interrupt handler.
        //
        IntUnregister(ulBase + 1);
    7f6e:	4620      	mov	r0, r4
    }
}
    7f70:	e8bd 4070 	ldmia.w	sp!, {r4, r5, r6, lr}
        IntDisable(ulBase + 1);

        //
        // Unregister the interrupt handler.
        //
        IntUnregister(ulBase + 1);
    7f74:	f7ff b8e4 	b.w	7140 <IntUnregister>
    7f78:	bd70      	pop	{r4, r5, r6, pc}
    7f7a:	bf00      	nop
    7f7c:	40030000 	.word	0x40030000
    7f80:	40031000 	.word	0x40031000
    7f84:	40032000 	.word	0x40032000

00007f88 <TimerQuiesce>:
//
//*****************************************************************************
#ifndef DEPRECATED
void
TimerQuiesce(unsigned long ulBase)
{
    7f88:	b570      	push	{r4, r5, r6, lr}
    ASSERT(TimerBaseValid(ulBase));

    //
    // Disable the timer.
    //
    HWREG(ulBase + TIMER_O_CTL) = TIMER_RV_CTL;
    7f8a:	2500      	movs	r5, #0
    HWREG(ulBase + TIMER_O_IMR) = TIMER_RV_IMR;

    //
    // Clear all the timer interrupts.
    //
    HWREG(ulBase + TIMER_O_ICR) = 0xFFFFFFFF;
    7f8c:	f04f 36ff 	mov.w	r6, #4294967295
    ASSERT(TimerBaseValid(ulBase));

    //
    // Disable the timer.
    //
    HWREG(ulBase + TIMER_O_CTL) = TIMER_RV_CTL;
    7f90:	60c5      	str	r5, [r0, #12]

    //
    // Unregister the interrupt handler.  This also disables interrupts to the
    // core.
    //
    TimerIntUnregister(ulBase, TIMER_BOTH);
    7f92:	f64f 71ff 	movw	r1, #65535	; 0xffff
    HWREG(ulBase + TIMER_O_CTL) = TIMER_RV_CTL;

    //
    // Disable all the timer interrupts.
    //
    HWREG(ulBase + TIMER_O_IMR) = TIMER_RV_IMR;
    7f96:	6185      	str	r5, [r0, #24]

    //
    // Clear all the timer interrupts.
    //
    HWREG(ulBase + TIMER_O_ICR) = 0xFFFFFFFF;
    7f98:	6246      	str	r6, [r0, #36]	; 0x24
//
//*****************************************************************************
#ifndef DEPRECATED
void
TimerQuiesce(unsigned long ulBase)
{
    7f9a:	4604      	mov	r4, r0

    //
    // Unregister the interrupt handler.  This also disables interrupts to the
    // core.
    //
    TimerIntUnregister(ulBase, TIMER_BOTH);
    7f9c:	f7ff ffc6 	bl	7f2c <TimerIntUnregister>
    HWREG(ulBase + TIMER_O_TAMR) = TIMER_RV_TAMR;
    HWREG(ulBase + TIMER_O_TBMR) = TIMER_RV_TBMR;
    HWREG(ulBase + TIMER_O_RIS) = TIMER_RV_RIS;
    HWREG(ulBase + TIMER_O_MIS) = TIMER_RV_MIS;
    HWREG(ulBase + TIMER_O_TAILR) = TIMER_RV_TAILR;
    HWREG(ulBase + TIMER_O_TBILR) = TIMER_RV_TBILR;
    7fa0:	f64f 73ff 	movw	r3, #65535	; 0xffff
    TimerIntUnregister(ulBase, TIMER_BOTH);

    //
    // Set all the registers to their reset value.
    //
    HWREG(ulBase + TIMER_O_CFG) = TIMER_RV_CFG;
    7fa4:	6025      	str	r5, [r4, #0]
    HWREG(ulBase + TIMER_O_TAMR) = TIMER_RV_TAMR;
    7fa6:	6065      	str	r5, [r4, #4]
    HWREG(ulBase + TIMER_O_TBMR) = TIMER_RV_TBMR;
    7fa8:	60a5      	str	r5, [r4, #8]
    HWREG(ulBase + TIMER_O_RIS) = TIMER_RV_RIS;
    7faa:	61e5      	str	r5, [r4, #28]
    HWREG(ulBase + TIMER_O_MIS) = TIMER_RV_MIS;
    7fac:	6225      	str	r5, [r4, #32]
    HWREG(ulBase + TIMER_O_TAILR) = TIMER_RV_TAILR;
    7fae:	62a6      	str	r6, [r4, #40]	; 0x28
    HWREG(ulBase + TIMER_O_TBILR) = TIMER_RV_TBILR;
    7fb0:	62e3      	str	r3, [r4, #44]	; 0x2c
    HWREG(ulBase + TIMER_O_TAMATCHR) = TIMER_RV_TAMATCHR;
    7fb2:	6326      	str	r6, [r4, #48]	; 0x30
    HWREG(ulBase + TIMER_O_TBMATCHR) = TIMER_RV_TBMATCHR;
    7fb4:	6363      	str	r3, [r4, #52]	; 0x34
    HWREG(ulBase + TIMER_O_TAPR) = TIMER_RV_TAPR;
    7fb6:	63a5      	str	r5, [r4, #56]	; 0x38
    HWREG(ulBase + TIMER_O_TBPR) = TIMER_RV_TBPR;
    7fb8:	63e5      	str	r5, [r4, #60]	; 0x3c
    HWREG(ulBase + TIMER_O_TAPMR) = TIMER_RV_TAPMR;
    7fba:	6425      	str	r5, [r4, #64]	; 0x40
    HWREG(ulBase + TIMER_O_TBPMR) = TIMER_RV_TBPMR;
    7fbc:	6465      	str	r5, [r4, #68]	; 0x44
    HWREG(ulBase + TIMER_O_TAR) = TIMER_RV_TAR;
    7fbe:	64a6      	str	r6, [r4, #72]	; 0x48
    HWREG(ulBase + TIMER_O_TBR) = TIMER_RV_TBR;
    7fc0:	64e3      	str	r3, [r4, #76]	; 0x4c
}
    7fc2:	bd70      	pop	{r4, r5, r6, pc}

00007fc4 <TimerIntRegister>:
           (ulTimer == TIMER_BOTH));

    //
    // Get the interrupt number for this timer module.
    //
    ulBase = ((ulBase == TIMER0_BASE) ? INT_TIMER0A :
    7fc4:	4b14      	ldr	r3, [pc, #80]	; (8018 <TimerIntRegister+0x54>)
//
//*****************************************************************************
void
TimerIntRegister(unsigned long ulBase, unsigned long ulTimer,
                 void (*pfnHandler)(void))
{
    7fc6:	b570      	push	{r4, r5, r6, lr}
           (ulTimer == TIMER_BOTH));

    //
    // Get the interrupt number for this timer module.
    //
    ulBase = ((ulBase == TIMER0_BASE) ? INT_TIMER0A :
    7fc8:	4298      	cmp	r0, r3
//
//*****************************************************************************
void
TimerIntRegister(unsigned long ulBase, unsigned long ulTimer,
                 void (*pfnHandler)(void))
{
    7fca:	460c      	mov	r4, r1
    7fcc:	4616      	mov	r6, r2
           (ulTimer == TIMER_BOTH));

    //
    // Get the interrupt number for this timer module.
    //
    ulBase = ((ulBase == TIMER0_BASE) ? INT_TIMER0A :
    7fce:	d101      	bne.n	7fd4 <TimerIntRegister+0x10>
    7fd0:	2523      	movs	r5, #35	; 0x23
    7fd2:	e009      	b.n	7fe8 <TimerIntRegister+0x24>
    7fd4:	4b11      	ldr	r3, [pc, #68]	; (801c <TimerIntRegister+0x58>)
    7fd6:	4298      	cmp	r0, r3
    7fd8:	d101      	bne.n	7fde <TimerIntRegister+0x1a>
    7fda:	2525      	movs	r5, #37	; 0x25
    7fdc:	e004      	b.n	7fe8 <TimerIntRegister+0x24>
    7fde:	4d10      	ldr	r5, [pc, #64]	; (8020 <TimerIntRegister+0x5c>)
    7fe0:	42a8      	cmp	r0, r5
    7fe2:	bf0c      	ite	eq
    7fe4:	2527      	moveq	r5, #39	; 0x27
    7fe6:	2533      	movne	r5, #51	; 0x33
               ((ulBase == TIMER2_BASE) ? INT_TIMER2A : INT_TIMER3A)));

    //
    // Register an interrupt handler for timer A if requested.
    //
    if(ulTimer & TIMER_A)
    7fe8:	f014 0fff 	tst.w	r4, #255	; 0xff
    7fec:	d006      	beq.n	7ffc <TimerIntRegister+0x38>
    {
        //
        // Register the interrupt handler.
        //
        IntRegister(ulBase, pfnHandler);
    7fee:	4628      	mov	r0, r5
    7ff0:	4631      	mov	r1, r6
    7ff2:	f7ff f88c 	bl	710e <IntRegister>

        //
        // Enable the interrupt.
        //
        IntEnable(ulBase);
    7ff6:	4628      	mov	r0, r5
    7ff8:	f7ff f8f2 	bl	71e0 <IntEnable>
    }

    //
    // Register an interrupt handler for timer B if requested.
    //
    if(ulTimer & TIMER_B)
    7ffc:	f414 4f7f 	tst.w	r4, #65280	; 0xff00
    8000:	d009      	beq.n	8016 <TimerIntRegister+0x52>
    {
        //
        // Register the interrupt handler.
        //
        IntRegister(ulBase + 1, pfnHandler);
    8002:	3501      	adds	r5, #1
    8004:	4628      	mov	r0, r5
    8006:	4631      	mov	r1, r6
    8008:	f7ff f881 	bl	710e <IntRegister>

        //
        // Enable the interrupt.
        //
        IntEnable(ulBase + 1);
    800c:	4628      	mov	r0, r5
    }
}
    800e:	e8bd 4070 	ldmia.w	sp!, {r4, r5, r6, lr}
        IntRegister(ulBase + 1, pfnHandler);

        //
        // Enable the interrupt.
        //
        IntEnable(ulBase + 1);
    8012:	f7ff b8e5 	b.w	71e0 <IntEnable>
    8016:	bd70      	pop	{r4, r5, r6, pc}
    8018:	40030000 	.word	0x40030000
    801c:	40031000 	.word	0x40031000
    8020:	40032000 	.word	0x40032000

00008024 <UARTParityModeSet>:
           (ulParity == UART_CONFIG_PAR_ZERO));

    //
    // Set the parity mode.
    //
    HWREG(ulBase + UART_O_LCRH) = ((HWREG(ulBase + UART_O_LCRH) &
    8024:	6ac3      	ldr	r3, [r0, #44]	; 0x2c
    8026:	f023 0386 	bic.w	r3, r3, #134	; 0x86
    802a:	430b      	orrs	r3, r1
    802c:	62c3      	str	r3, [r0, #44]	; 0x2c
                                    ~(UART_LCRH_SPS | UART_LCRH_EPS |
                                      UART_LCRH_PEN)) | ulParity);
}
    802e:	4770      	bx	lr

00008030 <UARTParityModeGet>:
    ASSERT(UARTBaseValid(ulBase));

    //
    // Return the current parity setting.
    //
    return(HWREG(ulBase + UART_O_LCRH) &
    8030:	6ac0      	ldr	r0, [r0, #44]	; 0x2c
           (UART_LCRH_SPS | UART_LCRH_EPS | UART_LCRH_PEN));
}
    8032:	f000 0086 	and.w	r0, r0, #134	; 0x86
    8036:	4770      	bx	lr

00008038 <UARTFIFOLevelSet>:
           (ulRxLevel == UART_FIFO_RX7_8));

    //
    // Set the FIFO interrupt levels.
    //
    HWREG(ulBase + UART_O_IFLS) = ulTxLevel | ulRxLevel;
    8038:	430a      	orrs	r2, r1
    803a:	6342      	str	r2, [r0, #52]	; 0x34
}
    803c:	4770      	bx	lr

0000803e <UARTFIFOLevelGet>:
    ASSERT(UARTBaseValid(ulBase));

    //
    // Read the FIFO level register.
    //
    ulTemp = HWREG(ulBase + UART_O_IFLS);
    803e:	6b43      	ldr	r3, [r0, #52]	; 0x34

    //
    // Extract the transmit and receive FIFO levels.
    //
    *pulTxLevel = ulTemp & UART_IFLS_TX_M;
    8040:	f003 0007 	and.w	r0, r3, #7
    *pulRxLevel = ulTemp & UART_IFLS_RX_M;
    8044:	f003 0338 	and.w	r3, r3, #56	; 0x38
    ulTemp = HWREG(ulBase + UART_O_IFLS);

    //
    // Extract the transmit and receive FIFO levels.
    //
    *pulTxLevel = ulTemp & UART_IFLS_TX_M;
    8048:	6008      	str	r0, [r1, #0]
    *pulRxLevel = ulTemp & UART_IFLS_RX_M;
    804a:	6013      	str	r3, [r2, #0]
}
    804c:	4770      	bx	lr

0000804e <UARTConfigGetExpClk>:
//
//*****************************************************************************
void
UARTConfigGetExpClk(unsigned long ulBase, unsigned long ulUARTClk,
                    unsigned long *pulBaud, unsigned long *pulConfig)
{
    804e:	b530      	push	{r4, r5, lr}
    ASSERT(UARTBaseValid(ulBase));

    //
    // Compute the baud rate.
    //
    ulInt = HWREG(ulBase + UART_O_IBRD);
    8050:	6a45      	ldr	r5, [r0, #36]	; 0x24
    ulFrac = HWREG(ulBase + UART_O_FBRD);
    8052:	6a84      	ldr	r4, [r0, #40]	; 0x28
    *pulBaud = (ulUARTClk * 4) / ((64 * ulInt) + ulFrac);
    8054:	0089      	lsls	r1, r1, #2
    8056:	eb04 1485 	add.w	r4, r4, r5, lsl #6
    805a:	fbb1 f4f4 	udiv	r4, r1, r4
    805e:	6014      	str	r4, [r2, #0]

    //
    // See if high speed mode enabled.
    //
    if(HWREG(ulBase + UART_O_CTL) & UART_CTL_HSE)
    8060:	6b01      	ldr	r1, [r0, #48]	; 0x30
    8062:	f011 0f20 	tst.w	r1, #32
    8066:	d001      	beq.n	806c <UARTConfigGetExpClk+0x1e>
    {
        //
        // High speed mode is enabled so the actual baud rate is actually
        // double what was just calculated.
        //
        *pulBaud *= 2;
    8068:	0064      	lsls	r4, r4, #1
    806a:	6014      	str	r4, [r2, #0]
    }

    //
    // Get the parity, data length, and number of stop bits.
    //
    *pulConfig = (HWREG(ulBase + UART_O_LCRH) &
    806c:	6ac2      	ldr	r2, [r0, #44]	; 0x2c
    806e:	f002 02ee 	and.w	r2, r2, #238	; 0xee
    8072:	601a      	str	r2, [r3, #0]
                  (UART_LCRH_SPS | UART_LCRH_WLEN_M | UART_LCRH_STP2 |
                   UART_LCRH_EPS | UART_LCRH_PEN));
}
    8074:	bd30      	pop	{r4, r5, pc}

00008076 <UARTEnable>:
    ASSERT(UARTBaseValid(ulBase));

    //
    // Enable the FIFO.
    //
    HWREG(ulBase + UART_O_LCRH) |= UART_LCRH_FEN;
    8076:	6ac3      	ldr	r3, [r0, #44]	; 0x2c
    8078:	f043 0310 	orr.w	r3, r3, #16
    807c:	62c3      	str	r3, [r0, #44]	; 0x2c

    //
    // Enable RX, TX, and the UART.
    //
    HWREG(ulBase + UART_O_CTL) |= (UART_CTL_UARTEN | UART_CTL_TXE |
    807e:	6b03      	ldr	r3, [r0, #48]	; 0x30
    8080:	f443 7340 	orr.w	r3, r3, #768	; 0x300
    8084:	f043 0301 	orr.w	r3, r3, #1
    8088:	6303      	str	r3, [r0, #48]	; 0x30
                                   UART_CTL_RXE);
}
    808a:	4770      	bx	lr

0000808c <UARTDisable>:
    ASSERT(UARTBaseValid(ulBase));

    //
    // Wait for end of TX.
    //
    while(HWREG(ulBase + UART_O_FR) & UART_FR_BUSY)
    808c:	6983      	ldr	r3, [r0, #24]
    808e:	f013 0f08 	tst.w	r3, #8
    8092:	d1fb      	bne.n	808c <UARTDisable>
    }

    //
    // Disable the FIFO.
    //
    HWREG(ulBase + UART_O_LCRH) &= ~(UART_LCRH_FEN);
    8094:	6ac3      	ldr	r3, [r0, #44]	; 0x2c
    8096:	f023 0310 	bic.w	r3, r3, #16
    809a:	62c3      	str	r3, [r0, #44]	; 0x2c

    //
    // Disable the UART.
    //
    HWREG(ulBase + UART_O_CTL) &= ~(UART_CTL_UARTEN | UART_CTL_TXE |
    809c:	6b03      	ldr	r3, [r0, #48]	; 0x30
    809e:	f423 7340 	bic.w	r3, r3, #768	; 0x300
    80a2:	f023 0301 	bic.w	r3, r3, #1
    80a6:	6303      	str	r3, [r0, #48]	; 0x30
                                    UART_CTL_RXE);
}
    80a8:	4770      	bx	lr

000080aa <UARTConfigSetExpClk>:
//
//*****************************************************************************
void
UARTConfigSetExpClk(unsigned long ulBase, unsigned long ulUARTClk,
                    unsigned long ulBaud, unsigned long ulConfig)
{
    80aa:	e92d 41f0 	stmdb	sp!, {r4, r5, r6, r7, r8, lr}
    80ae:	460d      	mov	r5, r1
    80b0:	4616      	mov	r6, r2
    80b2:	4604      	mov	r4, r0
    80b4:	461f      	mov	r7, r3
    ASSERT(ulUARTClk >= (ulBaud * UART_CLK_DIVIDER));

    //
    // Stop the UART.
    //
    UARTDisable(ulBase);
    80b6:	f7ff ffe9 	bl	808c <UARTDisable>

    //
    // Is the required baud rate greater than the maximum rate supported
    // without the use of high speed mode?
    //
    if((ulBaud * 16) > ulUARTClk)
    80ba:	ebb5 1f06 	cmp.w	r5, r6, lsl #4
    {
        //
        // Enable high speed mode.
        //
        HWREG(ulBase + UART_O_CTL) |= UART_CTL_HSE;
    80be:	6b23      	ldr	r3, [r4, #48]	; 0x30

    //
    // Is the required baud rate greater than the maximum rate supported
    // without the use of high speed mode?
    //
    if((ulBaud * 16) > ulUARTClk)
    80c0:	d204      	bcs.n	80cc <UARTConfigSetExpClk+0x22>
    {
        //
        // Enable high speed mode.
        //
        HWREG(ulBase + UART_O_CTL) |= UART_CTL_HSE;
    80c2:	f043 0320 	orr.w	r3, r3, #32
    80c6:	6323      	str	r3, [r4, #48]	; 0x30

        //
        // Half the supplied baud rate to compensate for enabling high speed
        // mode.  This allows the following code to be common to both cases.
        //
        ulBaud /= 2;
    80c8:	0876      	lsrs	r6, r6, #1
    80ca:	e002      	b.n	80d2 <UARTConfigSetExpClk+0x28>
    else
    {
        //
        // Disable high speed mode.
        //
        HWREG(ulBase + UART_O_CTL) &= ~(UART_CTL_HSE);
    80cc:	f023 0320 	bic.w	r3, r3, #32
    80d0:	6323      	str	r3, [r4, #48]	; 0x30
    }

    //
    // Compute the fractional baud rate divider.
    //
    ulDiv = (((ulUARTClk * 8) / ulBaud) + 1) / 2;
    80d2:	00ed      	lsls	r5, r5, #3
    80d4:	fbb5 f6f6 	udiv	r6, r5, r6
    80d8:	3601      	adds	r6, #1
    80da:	0873      	lsrs	r3, r6, #1

    //
    // Set the baud rate.
    //
    HWREG(ulBase + UART_O_IBRD) = ulDiv / 64;
    HWREG(ulBase + UART_O_FBRD) = ulDiv % 64;
    80dc:	f003 033f 	and.w	r3, r3, #63	; 0x3f
    ulDiv = (((ulUARTClk * 8) / ulBaud) + 1) / 2;

    //
    // Set the baud rate.
    //
    HWREG(ulBase + UART_O_IBRD) = ulDiv / 64;
    80e0:	09f6      	lsrs	r6, r6, #7
    80e2:	6266      	str	r6, [r4, #36]	; 0x24
    HWREG(ulBase + UART_O_FR) = 0;

    //
    // Start the UART.
    //
    UARTEnable(ulBase);
    80e4:	4620      	mov	r0, r4

    //
    // Set the baud rate.
    //
    HWREG(ulBase + UART_O_IBRD) = ulDiv / 64;
    HWREG(ulBase + UART_O_FBRD) = ulDiv % 64;
    80e6:	62a3      	str	r3, [r4, #40]	; 0x28
    HWREG(ulBase + UART_O_LCRH) = ulConfig;

    //
    // Clear the flags register.
    //
    HWREG(ulBase + UART_O_FR) = 0;
    80e8:	2300      	movs	r3, #0
    HWREG(ulBase + UART_O_FBRD) = ulDiv % 64;

    //
    // Set parity, data length, and number of stop bits.
    //
    HWREG(ulBase + UART_O_LCRH) = ulConfig;
    80ea:	62e7      	str	r7, [r4, #44]	; 0x2c

    //
    // Clear the flags register.
    //
    HWREG(ulBase + UART_O_FR) = 0;
    80ec:	61a3      	str	r3, [r4, #24]

    //
    // Start the UART.
    //
    UARTEnable(ulBase);
}
    80ee:	e8bd 41f0 	ldmia.w	sp!, {r4, r5, r6, r7, r8, lr}
    HWREG(ulBase + UART_O_FR) = 0;

    //
    // Start the UART.
    //
    UARTEnable(ulBase);
    80f2:	e7c0      	b.n	8076 <UARTEnable>

000080f4 <UARTFIFOEnable>:
    ASSERT(UARTBaseValid(ulBase));

    //
    // Enable the FIFO.
    //
    HWREG(ulBase + UART_O_LCRH) |= UART_LCRH_FEN;
    80f4:	6ac3      	ldr	r3, [r0, #44]	; 0x2c
    80f6:	f043 0310 	orr.w	r3, r3, #16
    80fa:	62c3      	str	r3, [r0, #44]	; 0x2c
}
    80fc:	4770      	bx	lr

000080fe <UARTFIFODisable>:
    ASSERT(UARTBaseValid(ulBase));

    //
    // Disable the FIFO.
    //
    HWREG(ulBase + UART_O_LCRH) &= ~(UART_LCRH_FEN);
    80fe:	6ac3      	ldr	r3, [r0, #44]	; 0x2c
    8100:	f023 0310 	bic.w	r3, r3, #16
    8104:	62c3      	str	r3, [r0, #44]	; 0x2c
}
    8106:	4770      	bx	lr

00008108 <UARTEnableSIR>:
    ASSERT(UARTBaseValid(ulBase));

    //
    // Enable SIR and SIRLP (if appropriate).
    //
    if(bLowPower)
    8108:	b119      	cbz	r1, 8112 <UARTEnableSIR+0xa>
    {
        HWREG(ulBase + UART_O_CTL) |= (UART_CTL_SIREN | UART_CTL_SIRLP);
    810a:	6b03      	ldr	r3, [r0, #48]	; 0x30
    810c:	f043 0306 	orr.w	r3, r3, #6
    8110:	e002      	b.n	8118 <UARTEnableSIR+0x10>
    }
    else
    {
        HWREG(ulBase + UART_O_CTL) |= (UART_CTL_SIREN);
    8112:	6b03      	ldr	r3, [r0, #48]	; 0x30
    8114:	f043 0302 	orr.w	r3, r3, #2
    8118:	6303      	str	r3, [r0, #48]	; 0x30
    811a:	4770      	bx	lr

0000811c <UARTDisableSIR>:
    ASSERT(UARTBaseValid(ulBase));

    //
    // Disable SIR and SIRLP (if appropriate).
    //
    HWREG(ulBase + UART_O_CTL) &= ~(UART_CTL_SIREN | UART_CTL_SIRLP);
    811c:	6b03      	ldr	r3, [r0, #48]	; 0x30
    811e:	f023 0306 	bic.w	r3, r3, #6
    8122:	6303      	str	r3, [r0, #48]	; 0x30
}
    8124:	4770      	bx	lr

00008126 <UARTSmartCardEnable>:
    //
    // Set 8 bit word length, even parity, 2 stop bits (even though the STP2
    // bit is ignored when in smartcard mode, this lets the caller read back
    // the actual setting in use).
    //
    ulVal = HWREG(ulBase + UART_O_LCRH);
    8126:	6ac3      	ldr	r3, [r0, #44]	; 0x2c
    ulVal &= ~(UART_LCRH_SPS | UART_LCRH_EPS | UART_LCRH_PEN |
    8128:	f023 03e6 	bic.w	r3, r3, #230	; 0xe6
               UART_LCRH_WLEN_M);
    ulVal |= UART_LCRH_WLEN_8 | UART_LCRH_PEN | UART_LCRH_EPS | UART_LCRH_STP2;
    812c:	f043 036e 	orr.w	r3, r3, #110	; 0x6e
    HWREG(ulBase + UART_O_LCRH) = ulVal;
    8130:	62c3      	str	r3, [r0, #44]	; 0x2c

    //
    // Enable SMART mode.
    //
    HWREG(ulBase + UART_O_CTL) |= UART_CTL_SMART;
    8132:	6b03      	ldr	r3, [r0, #48]	; 0x30
    8134:	f043 0308 	orr.w	r3, r3, #8
    8138:	6303      	str	r3, [r0, #48]	; 0x30
}
    813a:	4770      	bx	lr

0000813c <UARTSmartCardDisable>:
           (ulBase == UART2_BASE));

    //
    // Disable the SMART bit.
    //
    HWREG(ulBase + UART_O_CTL) &= ~UART_CTL_SMART;
    813c:	6b03      	ldr	r3, [r0, #48]	; 0x30
    813e:	f023 0308 	bic.w	r3, r3, #8
    8142:	6303      	str	r3, [r0, #48]	; 0x30
}
    8144:	4770      	bx	lr

00008146 <UARTModemControlSet>:
    ASSERT((ulControl & ~(UART_OUTPUT_RTS | UART_OUTPUT_DTR)) == 0);

    //
    // Set the appropriate modem control output bits.
    //
    ulTemp = HWREG(ulBase + UART_O_CTL);
    8146:	6b03      	ldr	r3, [r0, #48]	; 0x30
    ulTemp |= (ulControl & (UART_OUTPUT_RTS | UART_OUTPUT_DTR));
    8148:	f401 6140 	and.w	r1, r1, #3072	; 0xc00
    814c:	430b      	orrs	r3, r1
    HWREG(ulBase + UART_O_CTL) = ulTemp;
    814e:	6303      	str	r3, [r0, #48]	; 0x30
}
    8150:	4770      	bx	lr

00008152 <UARTModemControlClear>:
    ASSERT((ulControl & ~(UART_OUTPUT_RTS | UART_OUTPUT_DTR)) == 0);

    //
    // Set the appropriate modem control output bits.
    //
    ulTemp = HWREG(ulBase + UART_O_CTL);
    8152:	6b03      	ldr	r3, [r0, #48]	; 0x30
    ulTemp &= ~(ulControl & (UART_OUTPUT_RTS | UART_OUTPUT_DTR));
    8154:	f401 6140 	and.w	r1, r1, #3072	; 0xc00
    8158:	ea23 0301 	bic.w	r3, r3, r1
    HWREG(ulBase + UART_O_CTL) = ulTemp;
    815c:	6303      	str	r3, [r0, #48]	; 0x30
}
    815e:	4770      	bx	lr

00008160 <UARTModemControlGet>:
    // Check the arguments.
    //
    ASSERT(!CLASS_IS_SANDSTORM && !CLASS_IS_FURY && !CLASS_IS_DUSTDEVIL);
    ASSERT(ulBase == UART1_BASE);

    return(HWREG(ulBase + UART_O_CTL) & (UART_OUTPUT_RTS | UART_OUTPUT_DTR));
    8160:	6b00      	ldr	r0, [r0, #48]	; 0x30
}
    8162:	f400 6040 	and.w	r0, r0, #3072	; 0xc00
    8166:	4770      	bx	lr

00008168 <UARTModemStatusGet>:
    // Check the arguments.
    //
    ASSERT(!CLASS_IS_SANDSTORM && !CLASS_IS_FURY && !CLASS_IS_DUSTDEVIL);
    ASSERT(ulBase == UART1_BASE);

    return(HWREG(ulBase + UART_O_FR) & (UART_INPUT_RI | UART_INPUT_DCD |
    8168:	6983      	ldr	r3, [r0, #24]
           UART_INPUT_CTS | UART_INPUT_DSR));
}
    816a:	f240 1007 	movw	r0, #263	; 0x107
    816e:	ea03 0000 	and.w	r0, r3, r0
    8172:	4770      	bx	lr

00008174 <UARTFlowControlSet>:
    ASSERT((ulMode & ~(UART_FLOWCONTROL_TX | UART_FLOWCONTROL_RX)) == 0);

    //
    // Set the flow control mode as requested.
    //
    HWREG(ulBase + UART_O_CTL) = ((HWREG(ulBase + UART_O_CTL) &
    8174:	6b03      	ldr	r3, [r0, #48]	; 0x30
    8176:	f423 4340 	bic.w	r3, r3, #49152	; 0xc000
    817a:	430b      	orrs	r3, r1
    817c:	6303      	str	r3, [r0, #48]	; 0x30
                                 ~(UART_FLOWCONTROL_TX |
                                   UART_FLOWCONTROL_RX)) | ulMode);
}
    817e:	4770      	bx	lr

00008180 <UARTFlowControlGet>:
    //
    ASSERT(!CLASS_IS_SANDSTORM && !CLASS_IS_FURY && !CLASS_IS_DUSTDEVIL);
    ASSERT((ulBase == UART0_BASE) || (ulBase == UART1_BASE) ||
           (ulBase == UART2_BASE));

    return(HWREG(ulBase + UART_O_CTL) & (UART_FLOWCONTROL_TX |
    8180:	6b00      	ldr	r0, [r0, #48]	; 0x30
                                         UART_FLOWCONTROL_RX));
}
    8182:	f400 4040 	and.w	r0, r0, #49152	; 0xc000
    8186:	4770      	bx	lr

00008188 <UARTTxIntModeSet>:
           (ulMode == UART_TXINT_MODE_FIFO));

    //
    // Set or clear the EOT bit of the UART control register as appropriate.
    //
    HWREG(ulBase + UART_O_CTL) = ((HWREG(ulBase + UART_O_CTL) &
    8188:	6b03      	ldr	r3, [r0, #48]	; 0x30
    818a:	f023 0310 	bic.w	r3, r3, #16
    818e:	430b      	orrs	r3, r1
    8190:	6303      	str	r3, [r0, #48]	; 0x30
                                 ~(UART_TXINT_MODE_EOT |
                                   UART_TXINT_MODE_FIFO)) | ulMode);
}
    8192:	4770      	bx	lr

00008194 <UARTTxIntModeGet>:
           (ulBase == UART2_BASE));

    //
    // Return the current transmit interrupt mode.
    //
    return(HWREG(ulBase + UART_O_CTL) & (UART_TXINT_MODE_EOT |
    8194:	6b00      	ldr	r0, [r0, #48]	; 0x30
                                         UART_TXINT_MODE_FIFO));
}
    8196:	f000 0010 	and.w	r0, r0, #16
    819a:	4770      	bx	lr

0000819c <UARTCharsAvail>:
    ASSERT(UARTBaseValid(ulBase));

    //
    // Return the availability of characters.
    //
    return((HWREG(ulBase + UART_O_FR) & UART_FR_RXFE) ? false : true);
    819c:	6980      	ldr	r0, [r0, #24]
    819e:	0900      	lsrs	r0, r0, #4
    81a0:	f080 0001 	eor.w	r0, r0, #1
}
    81a4:	f000 0001 	and.w	r0, r0, #1
    81a8:	4770      	bx	lr

000081aa <UARTSpaceAvail>:
    ASSERT(UARTBaseValid(ulBase));

    //
    // Return the availability of space.
    //
    return((HWREG(ulBase + UART_O_FR) & UART_FR_TXFF) ? false : true);
    81aa:	6980      	ldr	r0, [r0, #24]
    81ac:	0940      	lsrs	r0, r0, #5
    81ae:	f080 0001 	eor.w	r0, r0, #1
}
    81b2:	f000 0001 	and.w	r0, r0, #1
    81b6:	4770      	bx	lr

000081b8 <UARTCharGetNonBlocking>:
    ASSERT(UARTBaseValid(ulBase));

    //
    // See if there are any characters in the receive FIFO.
    //
    if(!(HWREG(ulBase + UART_O_FR) & UART_FR_RXFE))
    81b8:	6983      	ldr	r3, [r0, #24]
    81ba:	f013 0f10 	tst.w	r3, #16
    81be:	bf14      	ite	ne
    81c0:	f04f 30ff 	movne.w	r0, #4294967295
    {
        //
        // Read and return the next character.
        //
        return(HWREG(ulBase + UART_O_DR));
    81c4:	6800      	ldreq	r0, [r0, #0]
        //
        // There are no characters, so return a failure.
        //
        return(-1);
    }
}
    81c6:	4770      	bx	lr

000081c8 <UARTCharGet>:
    ASSERT(UARTBaseValid(ulBase));

    //
    // Wait until a char is available.
    //
    while(HWREG(ulBase + UART_O_FR) & UART_FR_RXFE)
    81c8:	6983      	ldr	r3, [r0, #24]
    81ca:	f013 0f10 	tst.w	r3, #16
    81ce:	d1fb      	bne.n	81c8 <UARTCharGet>
    }

    //
    // Now get the char.
    //
    return(HWREG(ulBase + UART_O_DR));
    81d0:	6800      	ldr	r0, [r0, #0]
}
    81d2:	4770      	bx	lr

000081d4 <UARTCharPutNonBlocking>:
    ASSERT(UARTBaseValid(ulBase));

    //
    // See if there is space in the transmit FIFO.
    //
    if(!(HWREG(ulBase + UART_O_FR) & UART_FR_TXFF))
    81d4:	6983      	ldr	r3, [r0, #24]
    81d6:	f013 0f20 	tst.w	r3, #32
    81da:	d001      	beq.n	81e0 <UARTCharPutNonBlocking+0xc>
    81dc:	2000      	movs	r0, #0
    81de:	4770      	bx	lr
    {
        //
        // Write this character to the transmit FIFO.
        //
        HWREG(ulBase + UART_O_DR) = ucData;
    81e0:	6001      	str	r1, [r0, #0]
    81e2:	2001      	movs	r0, #1
        //
        // There is no space in the transmit FIFO, so return a failure.
        //
        return(false);
    }
}
    81e4:	4770      	bx	lr

000081e6 <UARTCharPut>:
    ASSERT(UARTBaseValid(ulBase));

    //
    // Wait until space is available.
    //
    while(HWREG(ulBase + UART_O_FR) & UART_FR_TXFF)
    81e6:	6983      	ldr	r3, [r0, #24]
    81e8:	f013 0f20 	tst.w	r3, #32
    81ec:	d1fb      	bne.n	81e6 <UARTCharPut>
    }

    //
    // Send the char.
    //
    HWREG(ulBase + UART_O_DR) = ucData;
    81ee:	6001      	str	r1, [r0, #0]
}
    81f0:	4770      	bx	lr

000081f2 <UARTBreakCtl>:
//! \return None.
//
//*****************************************************************************
void
UARTBreakCtl(unsigned long ulBase, tBoolean bBreakState)
{
    81f2:	f100 032c 	add.w	r3, r0, #44	; 0x2c

    //
    // Set the break condition as requested.
    //
    HWREG(ulBase + UART_O_LCRH) =
        (bBreakState ?
    81f6:	b119      	cbz	r1, 8200 <UARTBreakCtl+0xe>
         (HWREG(ulBase + UART_O_LCRH) | UART_LCRH_BRK) :
    81f8:	6ac2      	ldr	r2, [r0, #44]	; 0x2c

    //
    // Set the break condition as requested.
    //
    HWREG(ulBase + UART_O_LCRH) =
        (bBreakState ?
    81fa:	f042 0201 	orr.w	r2, r2, #1
    81fe:	e002      	b.n	8206 <UARTBreakCtl+0x14>
         (HWREG(ulBase + UART_O_LCRH) | UART_LCRH_BRK) :
         (HWREG(ulBase + UART_O_LCRH) & ~(UART_LCRH_BRK)));
    8200:	6ac2      	ldr	r2, [r0, #44]	; 0x2c

    //
    // Set the break condition as requested.
    //
    HWREG(ulBase + UART_O_LCRH) =
        (bBreakState ?
    8202:	f022 0201 	bic.w	r2, r2, #1
    ASSERT(UARTBaseValid(ulBase));

    //
    // Set the break condition as requested.
    //
    HWREG(ulBase + UART_O_LCRH) =
    8206:	601a      	str	r2, [r3, #0]
        (bBreakState ?
         (HWREG(ulBase + UART_O_LCRH) | UART_LCRH_BRK) :
         (HWREG(ulBase + UART_O_LCRH) & ~(UART_LCRH_BRK)));
}
    8208:	4770      	bx	lr

0000820a <UARTBusy>:
    ASSERT(UARTBaseValid(ulBase));

    //
    // Determine if the UART is busy.
    //
    return((HWREG(ulBase + UART_O_FR) & UART_FR_BUSY) ? true : false);
    820a:	6980      	ldr	r0, [r0, #24]
    820c:	08c0      	lsrs	r0, r0, #3
}
    820e:	f000 0001 	and.w	r0, r0, #1
    8212:	4770      	bx	lr

00008214 <UARTIntEnable>:
    ASSERT(UARTBaseValid(ulBase));

    //
    // Enable the specified interrupts.
    //
    HWREG(ulBase + UART_O_IM) |= ulIntFlags;
    8214:	6b83      	ldr	r3, [r0, #56]	; 0x38
    8216:	430b      	orrs	r3, r1
    8218:	6383      	str	r3, [r0, #56]	; 0x38
}
    821a:	4770      	bx	lr

0000821c <UARTIntDisable>:
    ASSERT(UARTBaseValid(ulBase));

    //
    // Disable the specified interrupts.
    //
    HWREG(ulBase + UART_O_IM) &= ~(ulIntFlags);
    821c:	6b83      	ldr	r3, [r0, #56]	; 0x38
    821e:	ea23 0301 	bic.w	r3, r3, r1
    8222:	6383      	str	r3, [r0, #56]	; 0x38
}
    8224:	4770      	bx	lr

00008226 <UARTIntStatus>:

    //
    // Return either the interrupt status or the raw interrupt status as
    // requested.
    //
    if(bMasked)
    8226:	b109      	cbz	r1, 822c <UARTIntStatus+0x6>
    {
        return(HWREG(ulBase + UART_O_MIS));
    8228:	6c00      	ldr	r0, [r0, #64]	; 0x40
    822a:	4770      	bx	lr
    }
    else
    {
        return(HWREG(ulBase + UART_O_RIS));
    822c:	6bc0      	ldr	r0, [r0, #60]	; 0x3c
    }
}
    822e:	4770      	bx	lr

00008230 <UARTIntClear>:
    ASSERT(UARTBaseValid(ulBase));

    //
    // Clear the requested interrupt sources.
    //
    HWREG(ulBase + UART_O_ICR) = ulIntFlags;
    8230:	6441      	str	r1, [r0, #68]	; 0x44
}
    8232:	4770      	bx	lr

00008234 <UARTDMAEnable>:
    ASSERT(UARTBaseValid(ulBase));

    //
    // Set the requested bits in the UART DMA control register.
    //
    HWREG(ulBase + UART_O_DMACTL) |= ulDMAFlags;
    8234:	6c83      	ldr	r3, [r0, #72]	; 0x48
    8236:	430b      	orrs	r3, r1
    8238:	6483      	str	r3, [r0, #72]	; 0x48
}
    823a:	4770      	bx	lr

0000823c <UARTDMADisable>:
    ASSERT(UARTBaseValid(ulBase));

    //
    // Clear the requested bits in the UART DMA control register.
    //
    HWREG(ulBase + UART_O_DMACTL) &= ~ulDMAFlags;
    823c:	6c83      	ldr	r3, [r0, #72]	; 0x48
    823e:	ea23 0301 	bic.w	r3, r3, r1
    8242:	6483      	str	r3, [r0, #72]	; 0x48
}
    8244:	4770      	bx	lr

00008246 <UARTRxErrorGet>:
    ASSERT(UARTBaseValid(ulBase));

    //
    // Return the current value of the receive status register.
    //
    return(HWREG(ulBase + UART_O_RSR) & 0x0000000F);
    8246:	6840      	ldr	r0, [r0, #4]
}
    8248:	f000 000f 	and.w	r0, r0, #15
    824c:	4770      	bx	lr

0000824e <UARTRxErrorClear>:

    //
    // Any write to the Error Clear Register will clear all bits which are
    // currently set.
    //
    HWREG(ulBase + UART_O_ECR) = 0;
    824e:	2300      	movs	r3, #0
    8250:	6043      	str	r3, [r0, #4]
}
    8252:	4770      	bx	lr

00008254 <UARTIntUnregister>:
    ASSERT(UARTBaseValid(ulBase));

    //
    // Determine the interrupt number based on the UART port.
    //
    ulInt = ((ulBase == UART0_BASE) ? INT_UART0 :
    8254:	4b09      	ldr	r3, [pc, #36]	; (827c <UARTIntUnregister+0x28>)
//! \return None.
//
//*****************************************************************************
void
UARTIntUnregister(unsigned long ulBase)
{
    8256:	b510      	push	{r4, lr}
    ASSERT(UARTBaseValid(ulBase));

    //
    // Determine the interrupt number based on the UART port.
    //
    ulInt = ((ulBase == UART0_BASE) ? INT_UART0 :
    8258:	4298      	cmp	r0, r3
    825a:	d101      	bne.n	8260 <UARTIntUnregister+0xc>
    825c:	2415      	movs	r4, #21
    825e:	e004      	b.n	826a <UARTIntUnregister+0x16>
    8260:	4c07      	ldr	r4, [pc, #28]	; (8280 <UARTIntUnregister+0x2c>)
    8262:	42a0      	cmp	r0, r4
    8264:	bf0c      	ite	eq
    8266:	2416      	moveq	r4, #22
    8268:	2431      	movne	r4, #49	; 0x31
             ((ulBase == UART1_BASE) ? INT_UART1 : INT_UART2));

    //
    // Disable the interrupt.
    //
    IntDisable(ulInt);
    826a:	4620      	mov	r0, r4
    826c:	f7fe fff0 	bl	7250 <IntDisable>

    //
    // Unregister the interrupt handler.
    //
    IntUnregister(ulInt);
    8270:	4620      	mov	r0, r4
}
    8272:	e8bd 4010 	ldmia.w	sp!, {r4, lr}
    IntDisable(ulInt);

    //
    // Unregister the interrupt handler.
    //
    IntUnregister(ulInt);
    8276:	f7fe bf63 	b.w	7140 <IntUnregister>
    827a:	bf00      	nop
    827c:	4000c000 	.word	0x4000c000
    8280:	4000d000 	.word	0x4000d000

00008284 <UARTIntRegister>:
    ASSERT(UARTBaseValid(ulBase));

    //
    // Determine the interrupt number based on the UART port.
    //
    ulInt = ((ulBase == UART0_BASE) ? INT_UART0 :
    8284:	4b09      	ldr	r3, [pc, #36]	; (82ac <UARTIntRegister+0x28>)
//! \return None.
//
//*****************************************************************************
void
UARTIntRegister(unsigned long ulBase, void (*pfnHandler)(void))
{
    8286:	b510      	push	{r4, lr}
    ASSERT(UARTBaseValid(ulBase));

    //
    // Determine the interrupt number based on the UART port.
    //
    ulInt = ((ulBase == UART0_BASE) ? INT_UART0 :
    8288:	4298      	cmp	r0, r3
    828a:	d101      	bne.n	8290 <UARTIntRegister+0xc>
    828c:	2415      	movs	r4, #21
    828e:	e004      	b.n	829a <UARTIntRegister+0x16>
    8290:	4c07      	ldr	r4, [pc, #28]	; (82b0 <UARTIntRegister+0x2c>)
    8292:	42a0      	cmp	r0, r4
    8294:	bf0c      	ite	eq
    8296:	2416      	moveq	r4, #22
    8298:	2431      	movne	r4, #49	; 0x31
             ((ulBase == UART1_BASE) ? INT_UART1 : INT_UART2));

    //
    // Register the interrupt handler.
    //
    IntRegister(ulInt, pfnHandler);
    829a:	4620      	mov	r0, r4
    829c:	f7fe ff37 	bl	710e <IntRegister>

    //
    // Enable the UART interrupt.
    //
    IntEnable(ulInt);
    82a0:	4620      	mov	r0, r4
}
    82a2:	e8bd 4010 	ldmia.w	sp!, {r4, lr}
    IntRegister(ulInt, pfnHandler);

    //
    // Enable the UART interrupt.
    //
    IntEnable(ulInt);
    82a6:	f7fe bf9b 	b.w	71e0 <IntEnable>
    82aa:	bf00      	nop
    82ac:	4000c000 	.word	0x4000c000
    82b0:	4000d000 	.word	0x4000d000

000082b4 <WatchdogRunning>:
    ASSERT((ulBase == WATCHDOG0_BASE) || (ulBase == WATCHDOG1_BASE));

    //
    // See if the watchdog timer module is enabled, and return.
    //
    return(HWREG(ulBase + WDT_O_CTL) & WDT_CTL_INTEN);
    82b4:	6880      	ldr	r0, [r0, #8]
}
    82b6:	f000 0001 	and.w	r0, r0, #1
    82ba:	4770      	bx	lr

000082bc <WatchdogEnable>:
    ASSERT((ulBase == WATCHDOG0_BASE) || (ulBase == WATCHDOG1_BASE));

    //
    // Enable the watchdog timer module.
    //
    HWREG(ulBase + WDT_O_CTL) |= WDT_CTL_INTEN;
    82bc:	6883      	ldr	r3, [r0, #8]
    82be:	f043 0301 	orr.w	r3, r3, #1
    82c2:	6083      	str	r3, [r0, #8]
}
    82c4:	4770      	bx	lr

000082c6 <WatchdogResetEnable>:
    ASSERT((ulBase == WATCHDOG0_BASE) || (ulBase == WATCHDOG1_BASE));

    //
    // Enable the watchdog reset.
    //
    HWREG(ulBase + WDT_O_CTL) |= WDT_CTL_RESEN;
    82c6:	6883      	ldr	r3, [r0, #8]
    82c8:	f043 0302 	orr.w	r3, r3, #2
    82cc:	6083      	str	r3, [r0, #8]
}
    82ce:	4770      	bx	lr

000082d0 <WatchdogResetDisable>:
    ASSERT((ulBase == WATCHDOG0_BASE) || (ulBase == WATCHDOG1_BASE));

    //
    // Disable the watchdog reset.
    //
    HWREG(ulBase + WDT_O_CTL) &= ~(WDT_CTL_RESEN);
    82d0:	6883      	ldr	r3, [r0, #8]
    82d2:	f023 0302 	bic.w	r3, r3, #2
    82d6:	6083      	str	r3, [r0, #8]
}
    82d8:	4770      	bx	lr

000082da <WatchdogLock>:

    //
    // Lock out watchdog register writes.  Writing anything to the WDT_O_LOCK
    // register causes the lock to go into effect.
    //
    HWREG(ulBase + WDT_O_LOCK) = WDT_LOCK_LOCKED;
    82da:	2301      	movs	r3, #1
    82dc:	f8c0 3c00 	str.w	r3, [r0, #3072]	; 0xc00
}
    82e0:	4770      	bx	lr

000082e2 <WatchdogUnlock>:
    ASSERT((ulBase == WATCHDOG0_BASE) || (ulBase == WATCHDOG1_BASE));

    //
    // Unlock watchdog register writes.
    //
    HWREG(ulBase + WDT_O_LOCK) = WDT_LOCK_UNLOCK;
    82e2:	4b02      	ldr	r3, [pc, #8]	; (82ec <WatchdogUnlock+0xa>)
    82e4:	f8c0 3c00 	str.w	r3, [r0, #3072]	; 0xc00
}
    82e8:	4770      	bx	lr
    82ea:	bf00      	nop
    82ec:	1acce551 	.word	0x1acce551

000082f0 <WatchdogLockState>:
    ASSERT((ulBase == WATCHDOG0_BASE) || (ulBase == WATCHDOG1_BASE));

    //
    // Get the lock state.
    //
    return((HWREG(ulBase + WDT_O_LOCK) == WDT_LOCK_LOCKED) ? true : false);
    82f0:	f8d0 0c00 	ldr.w	r0, [r0, #3072]	; 0xc00
}
    82f4:	2801      	cmp	r0, #1
    82f6:	bf14      	ite	ne
    82f8:	2000      	movne	r0, #0
    82fa:	2001      	moveq	r0, #1
    82fc:	4770      	bx	lr

000082fe <WatchdogReloadSet>:
    ASSERT((ulBase == WATCHDOG0_BASE) || (ulBase == WATCHDOG1_BASE));

    //
    // Set the load register.
    //
    HWREG(ulBase + WDT_O_LOAD) = ulLoadVal;
    82fe:	6001      	str	r1, [r0, #0]
}
    8300:	4770      	bx	lr

00008302 <WatchdogReloadGet>:
    ASSERT((ulBase == WATCHDOG0_BASE) || (ulBase == WATCHDOG1_BASE));

    //
    // Get the load register.
    //
    return(HWREG(ulBase + WDT_O_LOAD));
    8302:	6800      	ldr	r0, [r0, #0]
}
    8304:	4770      	bx	lr

00008306 <WatchdogValueGet>:
    ASSERT((ulBase == WATCHDOG0_BASE) || (ulBase == WATCHDOG1_BASE));

    //
    // Get the current watchdog timer register value.
    //
    return(HWREG(ulBase + WDT_O_VALUE));
    8306:	6840      	ldr	r0, [r0, #4]
}
    8308:	4770      	bx	lr

0000830a <WatchdogIntEnable>:
    ASSERT((ulBase == WATCHDOG0_BASE) || (ulBase == WATCHDOG1_BASE));

    //
    // Enable the watchdog interrupt.
    //
    HWREG(ulBase + WDT_O_CTL) |= WDT_CTL_INTEN;
    830a:	6883      	ldr	r3, [r0, #8]
    830c:	f043 0301 	orr.w	r3, r3, #1
    8310:	6083      	str	r3, [r0, #8]
}
    8312:	4770      	bx	lr

00008314 <WatchdogIntStatus>:

    //
    // Return either the interrupt status or the raw interrupt status as
    // requested.
    //
    if(bMasked)
    8314:	b109      	cbz	r1, 831a <WatchdogIntStatus+0x6>
    {
        return(HWREG(ulBase + WDT_O_MIS));
    8316:	6940      	ldr	r0, [r0, #20]
    8318:	4770      	bx	lr
    }
    else
    {
        return(HWREG(ulBase + WDT_O_RIS));
    831a:	6900      	ldr	r0, [r0, #16]
    }
}
    831c:	4770      	bx	lr

0000831e <WatchdogIntClear>:
    ASSERT((ulBase == WATCHDOG0_BASE) || (ulBase == WATCHDOG1_BASE));

    //
    // Clear the interrupt source.
    //
    HWREG(ulBase + WDT_O_ICR) = WDT_INT_TIMEOUT;
    831e:	2301      	movs	r3, #1
    8320:	60c3      	str	r3, [r0, #12]
}
    8322:	4770      	bx	lr

00008324 <WatchdogStallEnable>:
    ASSERT((ulBase == WATCHDOG0_BASE) || (ulBase == WATCHDOG1_BASE));

    //
    // Enable timer stalling.
    //
    HWREG(ulBase + WDT_O_TEST) |= WDT_TEST_STALL;
    8324:	f8d0 3418 	ldr.w	r3, [r0, #1048]	; 0x418
    8328:	f443 7380 	orr.w	r3, r3, #256	; 0x100
    832c:	f8c0 3418 	str.w	r3, [r0, #1048]	; 0x418
}
    8330:	4770      	bx	lr

00008332 <WatchdogStallDisable>:
    ASSERT((ulBase == WATCHDOG0_BASE) || (ulBase == WATCHDOG1_BASE));

    //
    // Disable timer stalling.
    //
    HWREG(ulBase + WDT_O_TEST) &= ~(WDT_TEST_STALL);
    8332:	f8d0 3418 	ldr.w	r3, [r0, #1048]	; 0x418
    8336:	f423 7380 	bic.w	r3, r3, #256	; 0x100
    833a:	f8c0 3418 	str.w	r3, [r0, #1048]	; 0x418
}
    833e:	4770      	bx	lr

00008340 <WatchdogIntUnregister>:
    ASSERT((ulBase == WATCHDOG0_BASE) || (ulBase == WATCHDOG1_BASE));

    //
    // Disable the interrupt.
    //
    IntDisable(INT_WATCHDOG);
    8340:	2022      	movs	r0, #34	; 0x22
//! \return None.
//
//*****************************************************************************
void
WatchdogIntUnregister(unsigned long ulBase)
{
    8342:	b510      	push	{r4, lr}
    ASSERT((ulBase == WATCHDOG0_BASE) || (ulBase == WATCHDOG1_BASE));

    //
    // Disable the interrupt.
    //
    IntDisable(INT_WATCHDOG);
    8344:	f7fe ff84 	bl	7250 <IntDisable>

    //
    // Unregister the interrupt handler.
    //
    IntUnregister(INT_WATCHDOG);
    8348:	2022      	movs	r0, #34	; 0x22
}
    834a:	e8bd 4010 	ldmia.w	sp!, {r4, lr}
    IntDisable(INT_WATCHDOG);

    //
    // Unregister the interrupt handler.
    //
    IntUnregister(INT_WATCHDOG);
    834e:	f7fe bef7 	b.w	7140 <IntUnregister>

00008352 <WatchdogIntRegister>:
    ASSERT((ulBase == WATCHDOG0_BASE) || (ulBase == WATCHDOG1_BASE));

    //
    // Register the interrupt handler.
    //
    IntRegister(INT_WATCHDOG, pfnHandler);
    8352:	2022      	movs	r0, #34	; 0x22
//! \return None.
//
//*****************************************************************************
void
WatchdogIntRegister(unsigned long ulBase, void (*pfnHandler)(void))
{
    8354:	b510      	push	{r4, lr}
    ASSERT((ulBase == WATCHDOG0_BASE) || (ulBase == WATCHDOG1_BASE));

    //
    // Register the interrupt handler.
    //
    IntRegister(INT_WATCHDOG, pfnHandler);
    8356:	f7fe feda 	bl	710e <IntRegister>

    //
    // Enable the watchdog timer interrupt.
    //
    IntEnable(INT_WATCHDOG);
    835a:	2022      	movs	r0, #34	; 0x22
}
    835c:	e8bd 4010 	ldmia.w	sp!, {r4, lr}
    IntRegister(INT_WATCHDOG, pfnHandler);

    //
    // Enable the watchdog timer interrupt.
    //
    IntEnable(INT_WATCHDOG);
    8360:	f7fe bf3e 	b.w	71e0 <IntEnable>

00008364 <__aeabi_drsub>:
    8364:	f081 4100 	eor.w	r1, r1, #2147483648	; 0x80000000
    8368:	e002      	b.n	8370 <__adddf3>
    836a:	bf00      	nop

0000836c <__aeabi_dsub>:
    836c:	f083 4300 	eor.w	r3, r3, #2147483648	; 0x80000000

00008370 <__adddf3>:
    8370:	b530      	push	{r4, r5, lr}
    8372:	ea4f 0441 	mov.w	r4, r1, lsl #1
    8376:	ea4f 0543 	mov.w	r5, r3, lsl #1
    837a:	ea94 0f05 	teq	r4, r5
    837e:	bf08      	it	eq
    8380:	ea90 0f02 	teqeq	r0, r2
    8384:	bf1f      	itttt	ne
    8386:	ea54 0c00 	orrsne.w	ip, r4, r0
    838a:	ea55 0c02 	orrsne.w	ip, r5, r2
    838e:	ea7f 5c64 	mvnsne.w	ip, r4, asr #21
    8392:	ea7f 5c65 	mvnsne.w	ip, r5, asr #21
    8396:	f000 80e2 	beq.w	855e <__adddf3+0x1ee>
    839a:	ea4f 5454 	mov.w	r4, r4, lsr #21
    839e:	ebd4 5555 	rsbs	r5, r4, r5, lsr #21
    83a2:	bfb8      	it	lt
    83a4:	426d      	neglt	r5, r5
    83a6:	dd0c      	ble.n	83c2 <__adddf3+0x52>
    83a8:	442c      	add	r4, r5
    83aa:	ea80 0202 	eor.w	r2, r0, r2
    83ae:	ea81 0303 	eor.w	r3, r1, r3
    83b2:	ea82 0000 	eor.w	r0, r2, r0
    83b6:	ea83 0101 	eor.w	r1, r3, r1
    83ba:	ea80 0202 	eor.w	r2, r0, r2
    83be:	ea81 0303 	eor.w	r3, r1, r3
    83c2:	2d36      	cmp	r5, #54	; 0x36
    83c4:	bf88      	it	hi
    83c6:	bd30      	pophi	{r4, r5, pc}
    83c8:	f011 4f00 	tst.w	r1, #2147483648	; 0x80000000
    83cc:	ea4f 3101 	mov.w	r1, r1, lsl #12
    83d0:	f44f 1c80 	mov.w	ip, #1048576	; 0x100000
    83d4:	ea4c 3111 	orr.w	r1, ip, r1, lsr #12
    83d8:	d002      	beq.n	83e0 <__adddf3+0x70>
    83da:	4240      	negs	r0, r0
    83dc:	eb61 0141 	sbc.w	r1, r1, r1, lsl #1
    83e0:	f013 4f00 	tst.w	r3, #2147483648	; 0x80000000
    83e4:	ea4f 3303 	mov.w	r3, r3, lsl #12
    83e8:	ea4c 3313 	orr.w	r3, ip, r3, lsr #12
    83ec:	d002      	beq.n	83f4 <__adddf3+0x84>
    83ee:	4252      	negs	r2, r2
    83f0:	eb63 0343 	sbc.w	r3, r3, r3, lsl #1
    83f4:	ea94 0f05 	teq	r4, r5
    83f8:	f000 80a7 	beq.w	854a <__adddf3+0x1da>
    83fc:	f1a4 0401 	sub.w	r4, r4, #1
    8400:	f1d5 0e20 	rsbs	lr, r5, #32
    8404:	db0d      	blt.n	8422 <__adddf3+0xb2>
    8406:	fa02 fc0e 	lsl.w	ip, r2, lr
    840a:	fa22 f205 	lsr.w	r2, r2, r5
    840e:	1880      	adds	r0, r0, r2
    8410:	f141 0100 	adc.w	r1, r1, #0
    8414:	fa03 f20e 	lsl.w	r2, r3, lr
    8418:	1880      	adds	r0, r0, r2
    841a:	fa43 f305 	asr.w	r3, r3, r5
    841e:	4159      	adcs	r1, r3
    8420:	e00e      	b.n	8440 <__adddf3+0xd0>
    8422:	f1a5 0520 	sub.w	r5, r5, #32
    8426:	f10e 0e20 	add.w	lr, lr, #32
    842a:	2a01      	cmp	r2, #1
    842c:	fa03 fc0e 	lsl.w	ip, r3, lr
    8430:	bf28      	it	cs
    8432:	f04c 0c02 	orrcs.w	ip, ip, #2
    8436:	fa43 f305 	asr.w	r3, r3, r5
    843a:	18c0      	adds	r0, r0, r3
    843c:	eb51 71e3 	adcs.w	r1, r1, r3, asr #31
    8440:	f001 4500 	and.w	r5, r1, #2147483648	; 0x80000000
    8444:	d507      	bpl.n	8456 <__adddf3+0xe6>
    8446:	f04f 0e00 	mov.w	lr, #0
    844a:	f1dc 0c00 	rsbs	ip, ip, #0
    844e:	eb7e 0000 	sbcs.w	r0, lr, r0
    8452:	eb6e 0101 	sbc.w	r1, lr, r1
    8456:	f5b1 1f80 	cmp.w	r1, #1048576	; 0x100000
    845a:	d31b      	bcc.n	8494 <__adddf3+0x124>
    845c:	f5b1 1f00 	cmp.w	r1, #2097152	; 0x200000
    8460:	d30c      	bcc.n	847c <__adddf3+0x10c>
    8462:	0849      	lsrs	r1, r1, #1
    8464:	ea5f 0030 	movs.w	r0, r0, rrx
    8468:	ea4f 0c3c 	mov.w	ip, ip, rrx
    846c:	f104 0401 	add.w	r4, r4, #1
    8470:	ea4f 5244 	mov.w	r2, r4, lsl #21
    8474:	f512 0f80 	cmn.w	r2, #4194304	; 0x400000
    8478:	f080 809a 	bcs.w	85b0 <__adddf3+0x240>
    847c:	f1bc 4f00 	cmp.w	ip, #2147483648	; 0x80000000
    8480:	bf08      	it	eq
    8482:	ea5f 0c50 	movseq.w	ip, r0, lsr #1
    8486:	f150 0000 	adcs.w	r0, r0, #0
    848a:	eb41 5104 	adc.w	r1, r1, r4, lsl #20
    848e:	ea41 0105 	orr.w	r1, r1, r5
    8492:	bd30      	pop	{r4, r5, pc}
    8494:	ea5f 0c4c 	movs.w	ip, ip, lsl #1
    8498:	4140      	adcs	r0, r0
    849a:	eb41 0101 	adc.w	r1, r1, r1
    849e:	f411 1f80 	tst.w	r1, #1048576	; 0x100000
    84a2:	f1a4 0401 	sub.w	r4, r4, #1
    84a6:	d1e9      	bne.n	847c <__adddf3+0x10c>
    84a8:	f091 0f00 	teq	r1, #0
    84ac:	bf04      	itt	eq
    84ae:	4601      	moveq	r1, r0
    84b0:	2000      	moveq	r0, #0
    84b2:	fab1 f381 	clz	r3, r1
    84b6:	bf08      	it	eq
    84b8:	3320      	addeq	r3, #32
    84ba:	f1a3 030b 	sub.w	r3, r3, #11
    84be:	f1b3 0220 	subs.w	r2, r3, #32
    84c2:	da0c      	bge.n	84de <__adddf3+0x16e>
    84c4:	320c      	adds	r2, #12
    84c6:	dd08      	ble.n	84da <__adddf3+0x16a>
    84c8:	f102 0c14 	add.w	ip, r2, #20
    84cc:	f1c2 020c 	rsb	r2, r2, #12
    84d0:	fa01 f00c 	lsl.w	r0, r1, ip
    84d4:	fa21 f102 	lsr.w	r1, r1, r2
    84d8:	e00c      	b.n	84f4 <__adddf3+0x184>
    84da:	f102 0214 	add.w	r2, r2, #20
    84de:	bfd8      	it	le
    84e0:	f1c2 0c20 	rsble	ip, r2, #32
    84e4:	fa01 f102 	lsl.w	r1, r1, r2
    84e8:	fa20 fc0c 	lsr.w	ip, r0, ip
    84ec:	bfdc      	itt	le
    84ee:	ea41 010c 	orrle.w	r1, r1, ip
    84f2:	4090      	lslle	r0, r2
    84f4:	1ae4      	subs	r4, r4, r3
    84f6:	bfa2      	ittt	ge
    84f8:	eb01 5104 	addge.w	r1, r1, r4, lsl #20
    84fc:	4329      	orrge	r1, r5
    84fe:	bd30      	popge	{r4, r5, pc}
    8500:	ea6f 0404 	mvn.w	r4, r4
    8504:	3c1f      	subs	r4, #31
    8506:	da1c      	bge.n	8542 <__adddf3+0x1d2>
    8508:	340c      	adds	r4, #12
    850a:	dc0e      	bgt.n	852a <__adddf3+0x1ba>
    850c:	f104 0414 	add.w	r4, r4, #20
    8510:	f1c4 0220 	rsb	r2, r4, #32
    8514:	fa20 f004 	lsr.w	r0, r0, r4
    8518:	fa01 f302 	lsl.w	r3, r1, r2
    851c:	ea40 0003 	orr.w	r0, r0, r3
    8520:	fa21 f304 	lsr.w	r3, r1, r4
    8524:	ea45 0103 	orr.w	r1, r5, r3
    8528:	bd30      	pop	{r4, r5, pc}
    852a:	f1c4 040c 	rsb	r4, r4, #12
    852e:	f1c4 0220 	rsb	r2, r4, #32
    8532:	fa20 f002 	lsr.w	r0, r0, r2
    8536:	fa01 f304 	lsl.w	r3, r1, r4
    853a:	ea40 0003 	orr.w	r0, r0, r3
    853e:	4629      	mov	r1, r5
    8540:	bd30      	pop	{r4, r5, pc}
    8542:	fa21 f004 	lsr.w	r0, r1, r4
    8546:	4629      	mov	r1, r5
    8548:	bd30      	pop	{r4, r5, pc}
    854a:	f094 0f00 	teq	r4, #0
    854e:	f483 1380 	eor.w	r3, r3, #1048576	; 0x100000
    8552:	bf06      	itte	eq
    8554:	f481 1180 	eoreq.w	r1, r1, #1048576	; 0x100000
    8558:	3401      	addeq	r4, #1
    855a:	3d01      	subne	r5, #1
    855c:	e74e      	b.n	83fc <__adddf3+0x8c>
    855e:	ea7f 5c64 	mvns.w	ip, r4, asr #21
    8562:	bf18      	it	ne
    8564:	ea7f 5c65 	mvnsne.w	ip, r5, asr #21
    8568:	d029      	beq.n	85be <__adddf3+0x24e>
    856a:	ea94 0f05 	teq	r4, r5
    856e:	bf08      	it	eq
    8570:	ea90 0f02 	teqeq	r0, r2
    8574:	d005      	beq.n	8582 <__adddf3+0x212>
    8576:	ea54 0c00 	orrs.w	ip, r4, r0
    857a:	bf04      	itt	eq
    857c:	4619      	moveq	r1, r3
    857e:	4610      	moveq	r0, r2
    8580:	bd30      	pop	{r4, r5, pc}
    8582:	ea91 0f03 	teq	r1, r3
    8586:	bf1e      	ittt	ne
    8588:	2100      	movne	r1, #0
    858a:	2000      	movne	r0, #0
    858c:	bd30      	popne	{r4, r5, pc}
    858e:	ea5f 5c54 	movs.w	ip, r4, lsr #21
    8592:	d105      	bne.n	85a0 <__adddf3+0x230>
    8594:	0040      	lsls	r0, r0, #1
    8596:	4149      	adcs	r1, r1
    8598:	bf28      	it	cs
    859a:	f041 4100 	orrcs.w	r1, r1, #2147483648	; 0x80000000
    859e:	bd30      	pop	{r4, r5, pc}
    85a0:	f514 0480 	adds.w	r4, r4, #4194304	; 0x400000
    85a4:	bf3c      	itt	cc
    85a6:	f501 1180 	addcc.w	r1, r1, #1048576	; 0x100000
    85aa:	bd30      	popcc	{r4, r5, pc}
    85ac:	f001 4500 	and.w	r5, r1, #2147483648	; 0x80000000
    85b0:	f045 41fe 	orr.w	r1, r5, #2130706432	; 0x7f000000
    85b4:	f441 0170 	orr.w	r1, r1, #15728640	; 0xf00000
    85b8:	f04f 0000 	mov.w	r0, #0
    85bc:	bd30      	pop	{r4, r5, pc}
    85be:	ea7f 5c64 	mvns.w	ip, r4, asr #21
    85c2:	bf1a      	itte	ne
    85c4:	4619      	movne	r1, r3
    85c6:	4610      	movne	r0, r2
    85c8:	ea7f 5c65 	mvnseq.w	ip, r5, asr #21
    85cc:	bf1c      	itt	ne
    85ce:	460b      	movne	r3, r1
    85d0:	4602      	movne	r2, r0
    85d2:	ea50 3401 	orrs.w	r4, r0, r1, lsl #12
    85d6:	bf06      	itte	eq
    85d8:	ea52 3503 	orrseq.w	r5, r2, r3, lsl #12
    85dc:	ea91 0f03 	teqeq	r1, r3
    85e0:	f441 2100 	orrne.w	r1, r1, #524288	; 0x80000
    85e4:	bd30      	pop	{r4, r5, pc}
    85e6:	bf00      	nop

000085e8 <__aeabi_ui2d>:
    85e8:	f090 0f00 	teq	r0, #0
    85ec:	bf04      	itt	eq
    85ee:	2100      	moveq	r1, #0
    85f0:	4770      	bxeq	lr
    85f2:	b530      	push	{r4, r5, lr}
    85f4:	f44f 6480 	mov.w	r4, #1024	; 0x400
    85f8:	f104 0432 	add.w	r4, r4, #50	; 0x32
    85fc:	f04f 0500 	mov.w	r5, #0
    8600:	f04f 0100 	mov.w	r1, #0
    8604:	e750      	b.n	84a8 <__adddf3+0x138>
    8606:	bf00      	nop

00008608 <__aeabi_i2d>:
    8608:	f090 0f00 	teq	r0, #0
    860c:	bf04      	itt	eq
    860e:	2100      	moveq	r1, #0
    8610:	4770      	bxeq	lr
    8612:	b530      	push	{r4, r5, lr}
    8614:	f44f 6480 	mov.w	r4, #1024	; 0x400
    8618:	f104 0432 	add.w	r4, r4, #50	; 0x32
    861c:	f010 4500 	ands.w	r5, r0, #2147483648	; 0x80000000
    8620:	bf48      	it	mi
    8622:	4240      	negmi	r0, r0
    8624:	f04f 0100 	mov.w	r1, #0
    8628:	e73e      	b.n	84a8 <__adddf3+0x138>
    862a:	bf00      	nop

0000862c <__aeabi_f2d>:
    862c:	0042      	lsls	r2, r0, #1
    862e:	ea4f 01e2 	mov.w	r1, r2, asr #3
    8632:	ea4f 0131 	mov.w	r1, r1, rrx
    8636:	ea4f 7002 	mov.w	r0, r2, lsl #28
    863a:	bf1f      	itttt	ne
    863c:	f012 437f 	andsne.w	r3, r2, #4278190080	; 0xff000000
    8640:	f093 4f7f 	teqne	r3, #4278190080	; 0xff000000
    8644:	f081 5160 	eorne.w	r1, r1, #939524096	; 0x38000000
    8648:	4770      	bxne	lr
    864a:	f092 0f00 	teq	r2, #0
    864e:	bf14      	ite	ne
    8650:	f093 4f7f 	teqne	r3, #4278190080	; 0xff000000
    8654:	4770      	bxeq	lr
    8656:	b530      	push	{r4, r5, lr}
    8658:	f44f 7460 	mov.w	r4, #896	; 0x380
    865c:	f001 4500 	and.w	r5, r1, #2147483648	; 0x80000000
    8660:	f021 4100 	bic.w	r1, r1, #2147483648	; 0x80000000
    8664:	e720      	b.n	84a8 <__adddf3+0x138>
    8666:	bf00      	nop

00008668 <__aeabi_ul2d>:
    8668:	ea50 0201 	orrs.w	r2, r0, r1
    866c:	bf08      	it	eq
    866e:	4770      	bxeq	lr
    8670:	b530      	push	{r4, r5, lr}
    8672:	f04f 0500 	mov.w	r5, #0
    8676:	e00a      	b.n	868e <__aeabi_l2d+0x16>

00008678 <__aeabi_l2d>:
    8678:	ea50 0201 	orrs.w	r2, r0, r1
    867c:	bf08      	it	eq
    867e:	4770      	bxeq	lr
    8680:	b530      	push	{r4, r5, lr}
    8682:	f011 4500 	ands.w	r5, r1, #2147483648	; 0x80000000
    8686:	d502      	bpl.n	868e <__aeabi_l2d+0x16>
    8688:	4240      	negs	r0, r0
    868a:	eb61 0141 	sbc.w	r1, r1, r1, lsl #1
    868e:	f44f 6480 	mov.w	r4, #1024	; 0x400
    8692:	f104 0432 	add.w	r4, r4, #50	; 0x32
    8696:	ea5f 5c91 	movs.w	ip, r1, lsr #22
    869a:	f43f aedc 	beq.w	8456 <__adddf3+0xe6>
    869e:	f04f 0203 	mov.w	r2, #3
    86a2:	ea5f 0cdc 	movs.w	ip, ip, lsr #3
    86a6:	bf18      	it	ne
    86a8:	3203      	addne	r2, #3
    86aa:	ea5f 0cdc 	movs.w	ip, ip, lsr #3
    86ae:	bf18      	it	ne
    86b0:	3203      	addne	r2, #3
    86b2:	eb02 02dc 	add.w	r2, r2, ip, lsr #3
    86b6:	f1c2 0320 	rsb	r3, r2, #32
    86ba:	fa00 fc03 	lsl.w	ip, r0, r3
    86be:	fa20 f002 	lsr.w	r0, r0, r2
    86c2:	fa01 fe03 	lsl.w	lr, r1, r3
    86c6:	ea40 000e 	orr.w	r0, r0, lr
    86ca:	fa21 f102 	lsr.w	r1, r1, r2
    86ce:	4414      	add	r4, r2
    86d0:	e6c1      	b.n	8456 <__adddf3+0xe6>
    86d2:	bf00      	nop

000086d4 <__aeabi_dmul>:
    86d4:	b570      	push	{r4, r5, r6, lr}
    86d6:	f04f 0cff 	mov.w	ip, #255	; 0xff
    86da:	f44c 6ce0 	orr.w	ip, ip, #1792	; 0x700
    86de:	ea1c 5411 	ands.w	r4, ip, r1, lsr #20
    86e2:	bf1d      	ittte	ne
    86e4:	ea1c 5513 	andsne.w	r5, ip, r3, lsr #20
    86e8:	ea94 0f0c 	teqne	r4, ip
    86ec:	ea95 0f0c 	teqne	r5, ip
    86f0:	f000 f8de 	bleq	88b0 <__aeabi_dmul+0x1dc>
    86f4:	442c      	add	r4, r5
    86f6:	ea81 0603 	eor.w	r6, r1, r3
    86fa:	ea21 514c 	bic.w	r1, r1, ip, lsl #21
    86fe:	ea23 534c 	bic.w	r3, r3, ip, lsl #21
    8702:	ea50 3501 	orrs.w	r5, r0, r1, lsl #12
    8706:	bf18      	it	ne
    8708:	ea52 3503 	orrsne.w	r5, r2, r3, lsl #12
    870c:	f441 1180 	orr.w	r1, r1, #1048576	; 0x100000
    8710:	f443 1380 	orr.w	r3, r3, #1048576	; 0x100000
    8714:	d038      	beq.n	8788 <__aeabi_dmul+0xb4>
    8716:	fba0 ce02 	umull	ip, lr, r0, r2
    871a:	f04f 0500 	mov.w	r5, #0
    871e:	fbe1 e502 	umlal	lr, r5, r1, r2
    8722:	f006 4200 	and.w	r2, r6, #2147483648	; 0x80000000
    8726:	fbe0 e503 	umlal	lr, r5, r0, r3
    872a:	f04f 0600 	mov.w	r6, #0
    872e:	fbe1 5603 	umlal	r5, r6, r1, r3
    8732:	f09c 0f00 	teq	ip, #0
    8736:	bf18      	it	ne
    8738:	f04e 0e01 	orrne.w	lr, lr, #1
    873c:	f1a4 04ff 	sub.w	r4, r4, #255	; 0xff
    8740:	f5b6 7f00 	cmp.w	r6, #512	; 0x200
    8744:	f564 7440 	sbc.w	r4, r4, #768	; 0x300
    8748:	d204      	bcs.n	8754 <__aeabi_dmul+0x80>
    874a:	ea5f 0e4e 	movs.w	lr, lr, lsl #1
    874e:	416d      	adcs	r5, r5
    8750:	eb46 0606 	adc.w	r6, r6, r6
    8754:	ea42 21c6 	orr.w	r1, r2, r6, lsl #11
    8758:	ea41 5155 	orr.w	r1, r1, r5, lsr #21
    875c:	ea4f 20c5 	mov.w	r0, r5, lsl #11
    8760:	ea40 505e 	orr.w	r0, r0, lr, lsr #21
    8764:	ea4f 2ece 	mov.w	lr, lr, lsl #11
    8768:	f1b4 0cfd 	subs.w	ip, r4, #253	; 0xfd
    876c:	bf88      	it	hi
    876e:	f5bc 6fe0 	cmphi.w	ip, #1792	; 0x700
    8772:	d81e      	bhi.n	87b2 <__aeabi_dmul+0xde>
    8774:	f1be 4f00 	cmp.w	lr, #2147483648	; 0x80000000
    8778:	bf08      	it	eq
    877a:	ea5f 0e50 	movseq.w	lr, r0, lsr #1
    877e:	f150 0000 	adcs.w	r0, r0, #0
    8782:	eb41 5104 	adc.w	r1, r1, r4, lsl #20
    8786:	bd70      	pop	{r4, r5, r6, pc}
    8788:	f006 4600 	and.w	r6, r6, #2147483648	; 0x80000000
    878c:	ea46 0101 	orr.w	r1, r6, r1
    8790:	ea40 0002 	orr.w	r0, r0, r2
    8794:	ea81 0103 	eor.w	r1, r1, r3
    8798:	ebb4 045c 	subs.w	r4, r4, ip, lsr #1
    879c:	bfc2      	ittt	gt
    879e:	ebd4 050c 	rsbsgt	r5, r4, ip
    87a2:	ea41 5104 	orrgt.w	r1, r1, r4, lsl #20
    87a6:	bd70      	popgt	{r4, r5, r6, pc}
    87a8:	f441 1180 	orr.w	r1, r1, #1048576	; 0x100000
    87ac:	f04f 0e00 	mov.w	lr, #0
    87b0:	3c01      	subs	r4, #1
    87b2:	f300 80ab 	bgt.w	890c <__aeabi_dmul+0x238>
    87b6:	f114 0f36 	cmn.w	r4, #54	; 0x36
    87ba:	bfde      	ittt	le
    87bc:	2000      	movle	r0, #0
    87be:	f001 4100 	andle.w	r1, r1, #2147483648	; 0x80000000
    87c2:	bd70      	pople	{r4, r5, r6, pc}
    87c4:	f1c4 0400 	rsb	r4, r4, #0
    87c8:	3c20      	subs	r4, #32
    87ca:	da35      	bge.n	8838 <__aeabi_dmul+0x164>
    87cc:	340c      	adds	r4, #12
    87ce:	dc1b      	bgt.n	8808 <__aeabi_dmul+0x134>
    87d0:	f104 0414 	add.w	r4, r4, #20
    87d4:	f1c4 0520 	rsb	r5, r4, #32
    87d8:	fa00 f305 	lsl.w	r3, r0, r5
    87dc:	fa20 f004 	lsr.w	r0, r0, r4
    87e0:	fa01 f205 	lsl.w	r2, r1, r5
    87e4:	ea40 0002 	orr.w	r0, r0, r2
    87e8:	f001 4200 	and.w	r2, r1, #2147483648	; 0x80000000
    87ec:	f021 4100 	bic.w	r1, r1, #2147483648	; 0x80000000
    87f0:	eb10 70d3 	adds.w	r0, r0, r3, lsr #31
    87f4:	fa21 f604 	lsr.w	r6, r1, r4
    87f8:	eb42 0106 	adc.w	r1, r2, r6
    87fc:	ea5e 0e43 	orrs.w	lr, lr, r3, lsl #1
    8800:	bf08      	it	eq
    8802:	ea20 70d3 	biceq.w	r0, r0, r3, lsr #31
    8806:	bd70      	pop	{r4, r5, r6, pc}
    8808:	f1c4 040c 	rsb	r4, r4, #12
    880c:	f1c4 0520 	rsb	r5, r4, #32
    8810:	fa00 f304 	lsl.w	r3, r0, r4
    8814:	fa20 f005 	lsr.w	r0, r0, r5
    8818:	fa01 f204 	lsl.w	r2, r1, r4
    881c:	ea40 0002 	orr.w	r0, r0, r2
    8820:	f001 4100 	and.w	r1, r1, #2147483648	; 0x80000000
    8824:	eb10 70d3 	adds.w	r0, r0, r3, lsr #31
    8828:	f141 0100 	adc.w	r1, r1, #0
    882c:	ea5e 0e43 	orrs.w	lr, lr, r3, lsl #1
    8830:	bf08      	it	eq
    8832:	ea20 70d3 	biceq.w	r0, r0, r3, lsr #31
    8836:	bd70      	pop	{r4, r5, r6, pc}
    8838:	f1c4 0520 	rsb	r5, r4, #32
    883c:	fa00 f205 	lsl.w	r2, r0, r5
    8840:	ea4e 0e02 	orr.w	lr, lr, r2
    8844:	fa20 f304 	lsr.w	r3, r0, r4
    8848:	fa01 f205 	lsl.w	r2, r1, r5
    884c:	ea43 0302 	orr.w	r3, r3, r2
    8850:	fa21 f004 	lsr.w	r0, r1, r4
    8854:	f001 4100 	and.w	r1, r1, #2147483648	; 0x80000000
    8858:	fa21 f204 	lsr.w	r2, r1, r4
    885c:	ea20 0002 	bic.w	r0, r0, r2
    8860:	eb00 70d3 	add.w	r0, r0, r3, lsr #31
    8864:	ea5e 0e43 	orrs.w	lr, lr, r3, lsl #1
    8868:	bf08      	it	eq
    886a:	ea20 70d3 	biceq.w	r0, r0, r3, lsr #31
    886e:	bd70      	pop	{r4, r5, r6, pc}
    8870:	f094 0f00 	teq	r4, #0
    8874:	d10f      	bne.n	8896 <__aeabi_dmul+0x1c2>
    8876:	f001 4600 	and.w	r6, r1, #2147483648	; 0x80000000
    887a:	0040      	lsls	r0, r0, #1
    887c:	eb41 0101 	adc.w	r1, r1, r1
    8880:	f411 1f80 	tst.w	r1, #1048576	; 0x100000
    8884:	bf08      	it	eq
    8886:	3c01      	subeq	r4, #1
    8888:	d0f7      	beq.n	887a <__aeabi_dmul+0x1a6>
    888a:	ea41 0106 	orr.w	r1, r1, r6
    888e:	f095 0f00 	teq	r5, #0
    8892:	bf18      	it	ne
    8894:	4770      	bxne	lr
    8896:	f003 4600 	and.w	r6, r3, #2147483648	; 0x80000000
    889a:	0052      	lsls	r2, r2, #1
    889c:	eb43 0303 	adc.w	r3, r3, r3
    88a0:	f413 1f80 	tst.w	r3, #1048576	; 0x100000
    88a4:	bf08      	it	eq
    88a6:	3d01      	subeq	r5, #1
    88a8:	d0f7      	beq.n	889a <__aeabi_dmul+0x1c6>
    88aa:	ea43 0306 	orr.w	r3, r3, r6
    88ae:	4770      	bx	lr
    88b0:	ea94 0f0c 	teq	r4, ip
    88b4:	ea0c 5513 	and.w	r5, ip, r3, lsr #20
    88b8:	bf18      	it	ne
    88ba:	ea95 0f0c 	teqne	r5, ip
    88be:	d00c      	beq.n	88da <__aeabi_dmul+0x206>
    88c0:	ea50 0641 	orrs.w	r6, r0, r1, lsl #1
    88c4:	bf18      	it	ne
    88c6:	ea52 0643 	orrsne.w	r6, r2, r3, lsl #1
    88ca:	d1d1      	bne.n	8870 <__aeabi_dmul+0x19c>
    88cc:	ea81 0103 	eor.w	r1, r1, r3
    88d0:	f001 4100 	and.w	r1, r1, #2147483648	; 0x80000000
    88d4:	f04f 0000 	mov.w	r0, #0
    88d8:	bd70      	pop	{r4, r5, r6, pc}
    88da:	ea50 0641 	orrs.w	r6, r0, r1, lsl #1
    88de:	bf06      	itte	eq
    88e0:	4610      	moveq	r0, r2
    88e2:	4619      	moveq	r1, r3
    88e4:	ea52 0643 	orrsne.w	r6, r2, r3, lsl #1
    88e8:	d019      	beq.n	891e <__aeabi_dmul+0x24a>
    88ea:	ea94 0f0c 	teq	r4, ip
    88ee:	d102      	bne.n	88f6 <__aeabi_dmul+0x222>
    88f0:	ea50 3601 	orrs.w	r6, r0, r1, lsl #12
    88f4:	d113      	bne.n	891e <__aeabi_dmul+0x24a>
    88f6:	ea95 0f0c 	teq	r5, ip
    88fa:	d105      	bne.n	8908 <__aeabi_dmul+0x234>
    88fc:	ea52 3603 	orrs.w	r6, r2, r3, lsl #12
    8900:	bf1c      	itt	ne
    8902:	4610      	movne	r0, r2
    8904:	4619      	movne	r1, r3
    8906:	d10a      	bne.n	891e <__aeabi_dmul+0x24a>
    8908:	ea81 0103 	eor.w	r1, r1, r3
    890c:	f001 4100 	and.w	r1, r1, #2147483648	; 0x80000000
    8910:	f041 41fe 	orr.w	r1, r1, #2130706432	; 0x7f000000
    8914:	f441 0170 	orr.w	r1, r1, #15728640	; 0xf00000
    8918:	f04f 0000 	mov.w	r0, #0
    891c:	bd70      	pop	{r4, r5, r6, pc}
    891e:	f041 41fe 	orr.w	r1, r1, #2130706432	; 0x7f000000
    8922:	f441 0178 	orr.w	r1, r1, #16252928	; 0xf80000
    8926:	bd70      	pop	{r4, r5, r6, pc}

00008928 <__aeabi_ddiv>:
    8928:	b570      	push	{r4, r5, r6, lr}
    892a:	f04f 0cff 	mov.w	ip, #255	; 0xff
    892e:	f44c 6ce0 	orr.w	ip, ip, #1792	; 0x700
    8932:	ea1c 5411 	ands.w	r4, ip, r1, lsr #20
    8936:	bf1d      	ittte	ne
    8938:	ea1c 5513 	andsne.w	r5, ip, r3, lsr #20
    893c:	ea94 0f0c 	teqne	r4, ip
    8940:	ea95 0f0c 	teqne	r5, ip
    8944:	f000 f8a7 	bleq	8a96 <__aeabi_ddiv+0x16e>
    8948:	eba4 0405 	sub.w	r4, r4, r5
    894c:	ea81 0e03 	eor.w	lr, r1, r3
    8950:	ea52 3503 	orrs.w	r5, r2, r3, lsl #12
    8954:	ea4f 3101 	mov.w	r1, r1, lsl #12
    8958:	f000 8088 	beq.w	8a6c <__aeabi_ddiv+0x144>
    895c:	ea4f 3303 	mov.w	r3, r3, lsl #12
    8960:	f04f 5580 	mov.w	r5, #268435456	; 0x10000000
    8964:	ea45 1313 	orr.w	r3, r5, r3, lsr #4
    8968:	ea43 6312 	orr.w	r3, r3, r2, lsr #24
    896c:	ea4f 2202 	mov.w	r2, r2, lsl #8
    8970:	ea45 1511 	orr.w	r5, r5, r1, lsr #4
    8974:	ea45 6510 	orr.w	r5, r5, r0, lsr #24
    8978:	ea4f 2600 	mov.w	r6, r0, lsl #8
    897c:	f00e 4100 	and.w	r1, lr, #2147483648	; 0x80000000
    8980:	429d      	cmp	r5, r3
    8982:	bf08      	it	eq
    8984:	4296      	cmpeq	r6, r2
    8986:	f144 04fd 	adc.w	r4, r4, #253	; 0xfd
    898a:	f504 7440 	add.w	r4, r4, #768	; 0x300
    898e:	d202      	bcs.n	8996 <__aeabi_ddiv+0x6e>
    8990:	085b      	lsrs	r3, r3, #1
    8992:	ea4f 0232 	mov.w	r2, r2, rrx
    8996:	1ab6      	subs	r6, r6, r2
    8998:	eb65 0503 	sbc.w	r5, r5, r3
    899c:	085b      	lsrs	r3, r3, #1
    899e:	ea4f 0232 	mov.w	r2, r2, rrx
    89a2:	f44f 1080 	mov.w	r0, #1048576	; 0x100000
    89a6:	f44f 2c00 	mov.w	ip, #524288	; 0x80000
    89aa:	ebb6 0e02 	subs.w	lr, r6, r2
    89ae:	eb75 0e03 	sbcs.w	lr, r5, r3
    89b2:	bf22      	ittt	cs
    89b4:	1ab6      	subcs	r6, r6, r2
    89b6:	4675      	movcs	r5, lr
    89b8:	ea40 000c 	orrcs.w	r0, r0, ip
    89bc:	085b      	lsrs	r3, r3, #1
    89be:	ea4f 0232 	mov.w	r2, r2, rrx
    89c2:	ebb6 0e02 	subs.w	lr, r6, r2
    89c6:	eb75 0e03 	sbcs.w	lr, r5, r3
    89ca:	bf22      	ittt	cs
    89cc:	1ab6      	subcs	r6, r6, r2
    89ce:	4675      	movcs	r5, lr
    89d0:	ea40 005c 	orrcs.w	r0, r0, ip, lsr #1
    89d4:	085b      	lsrs	r3, r3, #1
    89d6:	ea4f 0232 	mov.w	r2, r2, rrx
    89da:	ebb6 0e02 	subs.w	lr, r6, r2
    89de:	eb75 0e03 	sbcs.w	lr, r5, r3
    89e2:	bf22      	ittt	cs
    89e4:	1ab6      	subcs	r6, r6, r2
    89e6:	4675      	movcs	r5, lr
    89e8:	ea40 009c 	orrcs.w	r0, r0, ip, lsr #2
    89ec:	085b      	lsrs	r3, r3, #1
    89ee:	ea4f 0232 	mov.w	r2, r2, rrx
    89f2:	ebb6 0e02 	subs.w	lr, r6, r2
    89f6:	eb75 0e03 	sbcs.w	lr, r5, r3
    89fa:	bf22      	ittt	cs
    89fc:	1ab6      	subcs	r6, r6, r2
    89fe:	4675      	movcs	r5, lr
    8a00:	ea40 00dc 	orrcs.w	r0, r0, ip, lsr #3
    8a04:	ea55 0e06 	orrs.w	lr, r5, r6
    8a08:	d018      	beq.n	8a3c <__aeabi_ddiv+0x114>
    8a0a:	ea4f 1505 	mov.w	r5, r5, lsl #4
    8a0e:	ea45 7516 	orr.w	r5, r5, r6, lsr #28
    8a12:	ea4f 1606 	mov.w	r6, r6, lsl #4
    8a16:	ea4f 03c3 	mov.w	r3, r3, lsl #3
    8a1a:	ea43 7352 	orr.w	r3, r3, r2, lsr #29
    8a1e:	ea4f 02c2 	mov.w	r2, r2, lsl #3
    8a22:	ea5f 1c1c 	movs.w	ip, ip, lsr #4
    8a26:	d1c0      	bne.n	89aa <__aeabi_ddiv+0x82>
    8a28:	f411 1f80 	tst.w	r1, #1048576	; 0x100000
    8a2c:	d10b      	bne.n	8a46 <__aeabi_ddiv+0x11e>
    8a2e:	ea41 0100 	orr.w	r1, r1, r0
    8a32:	f04f 0000 	mov.w	r0, #0
    8a36:	f04f 4c00 	mov.w	ip, #2147483648	; 0x80000000
    8a3a:	e7b6      	b.n	89aa <__aeabi_ddiv+0x82>
    8a3c:	f411 1f80 	tst.w	r1, #1048576	; 0x100000
    8a40:	bf04      	itt	eq
    8a42:	4301      	orreq	r1, r0
    8a44:	2000      	moveq	r0, #0
    8a46:	f1b4 0cfd 	subs.w	ip, r4, #253	; 0xfd
    8a4a:	bf88      	it	hi
    8a4c:	f5bc 6fe0 	cmphi.w	ip, #1792	; 0x700
    8a50:	f63f aeaf 	bhi.w	87b2 <__aeabi_dmul+0xde>
    8a54:	ebb5 0c03 	subs.w	ip, r5, r3
    8a58:	bf04      	itt	eq
    8a5a:	ebb6 0c02 	subseq.w	ip, r6, r2
    8a5e:	ea5f 0c50 	movseq.w	ip, r0, lsr #1
    8a62:	f150 0000 	adcs.w	r0, r0, #0
    8a66:	eb41 5104 	adc.w	r1, r1, r4, lsl #20
    8a6a:	bd70      	pop	{r4, r5, r6, pc}
    8a6c:	f00e 4e00 	and.w	lr, lr, #2147483648	; 0x80000000
    8a70:	ea4e 3111 	orr.w	r1, lr, r1, lsr #12
    8a74:	eb14 045c 	adds.w	r4, r4, ip, lsr #1
    8a78:	bfc2      	ittt	gt
    8a7a:	ebd4 050c 	rsbsgt	r5, r4, ip
    8a7e:	ea41 5104 	orrgt.w	r1, r1, r4, lsl #20
    8a82:	bd70      	popgt	{r4, r5, r6, pc}
    8a84:	f441 1180 	orr.w	r1, r1, #1048576	; 0x100000
    8a88:	f04f 0e00 	mov.w	lr, #0
    8a8c:	3c01      	subs	r4, #1
    8a8e:	e690      	b.n	87b2 <__aeabi_dmul+0xde>
    8a90:	ea45 0e06 	orr.w	lr, r5, r6
    8a94:	e68d      	b.n	87b2 <__aeabi_dmul+0xde>
    8a96:	ea0c 5513 	and.w	r5, ip, r3, lsr #20
    8a9a:	ea94 0f0c 	teq	r4, ip
    8a9e:	bf08      	it	eq
    8aa0:	ea95 0f0c 	teqeq	r5, ip
    8aa4:	f43f af3b 	beq.w	891e <__aeabi_dmul+0x24a>
    8aa8:	ea94 0f0c 	teq	r4, ip
    8aac:	d10a      	bne.n	8ac4 <__aeabi_ddiv+0x19c>
    8aae:	ea50 3401 	orrs.w	r4, r0, r1, lsl #12
    8ab2:	f47f af34 	bne.w	891e <__aeabi_dmul+0x24a>
    8ab6:	ea95 0f0c 	teq	r5, ip
    8aba:	f47f af25 	bne.w	8908 <__aeabi_dmul+0x234>
    8abe:	4610      	mov	r0, r2
    8ac0:	4619      	mov	r1, r3
    8ac2:	e72c      	b.n	891e <__aeabi_dmul+0x24a>
    8ac4:	ea95 0f0c 	teq	r5, ip
    8ac8:	d106      	bne.n	8ad8 <__aeabi_ddiv+0x1b0>
    8aca:	ea52 3503 	orrs.w	r5, r2, r3, lsl #12
    8ace:	f43f aefd 	beq.w	88cc <__aeabi_dmul+0x1f8>
    8ad2:	4610      	mov	r0, r2
    8ad4:	4619      	mov	r1, r3
    8ad6:	e722      	b.n	891e <__aeabi_dmul+0x24a>
    8ad8:	ea50 0641 	orrs.w	r6, r0, r1, lsl #1
    8adc:	bf18      	it	ne
    8ade:	ea52 0643 	orrsne.w	r6, r2, r3, lsl #1
    8ae2:	f47f aec5 	bne.w	8870 <__aeabi_dmul+0x19c>
    8ae6:	ea50 0441 	orrs.w	r4, r0, r1, lsl #1
    8aea:	f47f af0d 	bne.w	8908 <__aeabi_dmul+0x234>
    8aee:	ea52 0543 	orrs.w	r5, r2, r3, lsl #1
    8af2:	f47f aeeb 	bne.w	88cc <__aeabi_dmul+0x1f8>
    8af6:	e712      	b.n	891e <__aeabi_dmul+0x24a>

00008af8 <__aeabi_d2uiz>:
    8af8:	004a      	lsls	r2, r1, #1
    8afa:	d211      	bcs.n	8b20 <__aeabi_d2uiz+0x28>
    8afc:	f512 1200 	adds.w	r2, r2, #2097152	; 0x200000
    8b00:	d211      	bcs.n	8b26 <__aeabi_d2uiz+0x2e>
    8b02:	d50d      	bpl.n	8b20 <__aeabi_d2uiz+0x28>
    8b04:	f46f 7378 	mvn.w	r3, #992	; 0x3e0
    8b08:	ebb3 5262 	subs.w	r2, r3, r2, asr #21
    8b0c:	d40e      	bmi.n	8b2c <__aeabi_d2uiz+0x34>
    8b0e:	ea4f 23c1 	mov.w	r3, r1, lsl #11
    8b12:	f043 4300 	orr.w	r3, r3, #2147483648	; 0x80000000
    8b16:	ea43 5350 	orr.w	r3, r3, r0, lsr #21
    8b1a:	fa23 f002 	lsr.w	r0, r3, r2
    8b1e:	4770      	bx	lr
    8b20:	f04f 0000 	mov.w	r0, #0
    8b24:	4770      	bx	lr
    8b26:	ea50 3001 	orrs.w	r0, r0, r1, lsl #12
    8b2a:	d102      	bne.n	8b32 <__aeabi_d2uiz+0x3a>
    8b2c:	f04f 30ff 	mov.w	r0, #4294967295
    8b30:	4770      	bx	lr
    8b32:	f04f 0000 	mov.w	r0, #0
    8b36:	4770      	bx	lr

00008b38 <__aeabi_frsub>:
    8b38:	f080 4000 	eor.w	r0, r0, #2147483648	; 0x80000000
    8b3c:	e002      	b.n	8b44 <__addsf3>
    8b3e:	bf00      	nop

00008b40 <__aeabi_fsub>:
    8b40:	f081 4100 	eor.w	r1, r1, #2147483648	; 0x80000000

00008b44 <__addsf3>:
    8b44:	0042      	lsls	r2, r0, #1
    8b46:	bf1f      	itttt	ne
    8b48:	ea5f 0341 	movsne.w	r3, r1, lsl #1
    8b4c:	ea92 0f03 	teqne	r2, r3
    8b50:	ea7f 6c22 	mvnsne.w	ip, r2, asr #24
    8b54:	ea7f 6c23 	mvnsne.w	ip, r3, asr #24
    8b58:	d06a      	beq.n	8c30 <__addsf3+0xec>
    8b5a:	ea4f 6212 	mov.w	r2, r2, lsr #24
    8b5e:	ebd2 6313 	rsbs	r3, r2, r3, lsr #24
    8b62:	bfc1      	itttt	gt
    8b64:	18d2      	addgt	r2, r2, r3
    8b66:	4041      	eorgt	r1, r0
    8b68:	4048      	eorgt	r0, r1
    8b6a:	4041      	eorgt	r1, r0
    8b6c:	bfb8      	it	lt
    8b6e:	425b      	neglt	r3, r3
    8b70:	2b19      	cmp	r3, #25
    8b72:	bf88      	it	hi
    8b74:	4770      	bxhi	lr
    8b76:	f010 4f00 	tst.w	r0, #2147483648	; 0x80000000
    8b7a:	f440 0000 	orr.w	r0, r0, #8388608	; 0x800000
    8b7e:	f020 407f 	bic.w	r0, r0, #4278190080	; 0xff000000
    8b82:	bf18      	it	ne
    8b84:	4240      	negne	r0, r0
    8b86:	f011 4f00 	tst.w	r1, #2147483648	; 0x80000000
    8b8a:	f441 0100 	orr.w	r1, r1, #8388608	; 0x800000
    8b8e:	f021 417f 	bic.w	r1, r1, #4278190080	; 0xff000000
    8b92:	bf18      	it	ne
    8b94:	4249      	negne	r1, r1
    8b96:	ea92 0f03 	teq	r2, r3
    8b9a:	d03f      	beq.n	8c1c <__addsf3+0xd8>
    8b9c:	f1a2 0201 	sub.w	r2, r2, #1
    8ba0:	fa41 fc03 	asr.w	ip, r1, r3
    8ba4:	eb10 000c 	adds.w	r0, r0, ip
    8ba8:	f1c3 0320 	rsb	r3, r3, #32
    8bac:	fa01 f103 	lsl.w	r1, r1, r3
    8bb0:	f000 4300 	and.w	r3, r0, #2147483648	; 0x80000000
    8bb4:	d502      	bpl.n	8bbc <__addsf3+0x78>
    8bb6:	4249      	negs	r1, r1
    8bb8:	eb60 0040 	sbc.w	r0, r0, r0, lsl #1
    8bbc:	f5b0 0f00 	cmp.w	r0, #8388608	; 0x800000
    8bc0:	d313      	bcc.n	8bea <__addsf3+0xa6>
    8bc2:	f1b0 7f80 	cmp.w	r0, #16777216	; 0x1000000
    8bc6:	d306      	bcc.n	8bd6 <__addsf3+0x92>
    8bc8:	0840      	lsrs	r0, r0, #1
    8bca:	ea4f 0131 	mov.w	r1, r1, rrx
    8bce:	f102 0201 	add.w	r2, r2, #1
    8bd2:	2afe      	cmp	r2, #254	; 0xfe
    8bd4:	d251      	bcs.n	8c7a <__addsf3+0x136>
    8bd6:	f1b1 4f00 	cmp.w	r1, #2147483648	; 0x80000000
    8bda:	eb40 50c2 	adc.w	r0, r0, r2, lsl #23
    8bde:	bf08      	it	eq
    8be0:	f020 0001 	biceq.w	r0, r0, #1
    8be4:	ea40 0003 	orr.w	r0, r0, r3
    8be8:	4770      	bx	lr
    8bea:	0049      	lsls	r1, r1, #1
    8bec:	eb40 0000 	adc.w	r0, r0, r0
    8bf0:	f410 0f00 	tst.w	r0, #8388608	; 0x800000
    8bf4:	f1a2 0201 	sub.w	r2, r2, #1
    8bf8:	d1ed      	bne.n	8bd6 <__addsf3+0x92>
    8bfa:	fab0 fc80 	clz	ip, r0
    8bfe:	f1ac 0c08 	sub.w	ip, ip, #8
    8c02:	ebb2 020c 	subs.w	r2, r2, ip
    8c06:	fa00 f00c 	lsl.w	r0, r0, ip
    8c0a:	bfaa      	itet	ge
    8c0c:	eb00 50c2 	addge.w	r0, r0, r2, lsl #23
    8c10:	4252      	neglt	r2, r2
    8c12:	4318      	orrge	r0, r3
    8c14:	bfbc      	itt	lt
    8c16:	40d0      	lsrlt	r0, r2
    8c18:	4318      	orrlt	r0, r3
    8c1a:	4770      	bx	lr
    8c1c:	f092 0f00 	teq	r2, #0
    8c20:	f481 0100 	eor.w	r1, r1, #8388608	; 0x800000
    8c24:	bf06      	itte	eq
    8c26:	f480 0000 	eoreq.w	r0, r0, #8388608	; 0x800000
    8c2a:	3201      	addeq	r2, #1
    8c2c:	3b01      	subne	r3, #1
    8c2e:	e7b5      	b.n	8b9c <__addsf3+0x58>
    8c30:	ea4f 0341 	mov.w	r3, r1, lsl #1
    8c34:	ea7f 6c22 	mvns.w	ip, r2, asr #24
    8c38:	bf18      	it	ne
    8c3a:	ea7f 6c23 	mvnsne.w	ip, r3, asr #24
    8c3e:	d021      	beq.n	8c84 <__addsf3+0x140>
    8c40:	ea92 0f03 	teq	r2, r3
    8c44:	d004      	beq.n	8c50 <__addsf3+0x10c>
    8c46:	f092 0f00 	teq	r2, #0
    8c4a:	bf08      	it	eq
    8c4c:	4608      	moveq	r0, r1
    8c4e:	4770      	bx	lr
    8c50:	ea90 0f01 	teq	r0, r1
    8c54:	bf1c      	itt	ne
    8c56:	2000      	movne	r0, #0
    8c58:	4770      	bxne	lr
    8c5a:	f012 4f7f 	tst.w	r2, #4278190080	; 0xff000000
    8c5e:	d104      	bne.n	8c6a <__addsf3+0x126>
    8c60:	0040      	lsls	r0, r0, #1
    8c62:	bf28      	it	cs
    8c64:	f040 4000 	orrcs.w	r0, r0, #2147483648	; 0x80000000
    8c68:	4770      	bx	lr
    8c6a:	f112 7200 	adds.w	r2, r2, #33554432	; 0x2000000
    8c6e:	bf3c      	itt	cc
    8c70:	f500 0000 	addcc.w	r0, r0, #8388608	; 0x800000
    8c74:	4770      	bxcc	lr
    8c76:	f000 4300 	and.w	r3, r0, #2147483648	; 0x80000000
    8c7a:	f043 40fe 	orr.w	r0, r3, #2130706432	; 0x7f000000
    8c7e:	f440 0000 	orr.w	r0, r0, #8388608	; 0x800000
    8c82:	4770      	bx	lr
    8c84:	ea7f 6222 	mvns.w	r2, r2, asr #24
    8c88:	bf16      	itet	ne
    8c8a:	4608      	movne	r0, r1
    8c8c:	ea7f 6323 	mvnseq.w	r3, r3, asr #24
    8c90:	4601      	movne	r1, r0
    8c92:	0242      	lsls	r2, r0, #9
    8c94:	bf06      	itte	eq
    8c96:	ea5f 2341 	movseq.w	r3, r1, lsl #9
    8c9a:	ea90 0f01 	teqeq	r0, r1
    8c9e:	f440 0080 	orrne.w	r0, r0, #4194304	; 0x400000
    8ca2:	4770      	bx	lr

00008ca4 <__aeabi_ui2f>:
    8ca4:	f04f 0300 	mov.w	r3, #0
    8ca8:	e004      	b.n	8cb4 <__aeabi_i2f+0x8>
    8caa:	bf00      	nop

00008cac <__aeabi_i2f>:
    8cac:	f010 4300 	ands.w	r3, r0, #2147483648	; 0x80000000
    8cb0:	bf48      	it	mi
    8cb2:	4240      	negmi	r0, r0
    8cb4:	ea5f 0c00 	movs.w	ip, r0
    8cb8:	bf08      	it	eq
    8cba:	4770      	bxeq	lr
    8cbc:	f043 4396 	orr.w	r3, r3, #1258291200	; 0x4b000000
    8cc0:	4601      	mov	r1, r0
    8cc2:	f04f 0000 	mov.w	r0, #0
    8cc6:	e01c      	b.n	8d02 <__aeabi_l2f+0x2a>

00008cc8 <__aeabi_ul2f>:
    8cc8:	ea50 0201 	orrs.w	r2, r0, r1
    8ccc:	bf08      	it	eq
    8cce:	4770      	bxeq	lr
    8cd0:	f04f 0300 	mov.w	r3, #0
    8cd4:	e00a      	b.n	8cec <__aeabi_l2f+0x14>
    8cd6:	bf00      	nop

00008cd8 <__aeabi_l2f>:
    8cd8:	ea50 0201 	orrs.w	r2, r0, r1
    8cdc:	bf08      	it	eq
    8cde:	4770      	bxeq	lr
    8ce0:	f011 4300 	ands.w	r3, r1, #2147483648	; 0x80000000
    8ce4:	d502      	bpl.n	8cec <__aeabi_l2f+0x14>
    8ce6:	4240      	negs	r0, r0
    8ce8:	eb61 0141 	sbc.w	r1, r1, r1, lsl #1
    8cec:	ea5f 0c01 	movs.w	ip, r1
    8cf0:	bf02      	ittt	eq
    8cf2:	4684      	moveq	ip, r0
    8cf4:	4601      	moveq	r1, r0
    8cf6:	2000      	moveq	r0, #0
    8cf8:	f043 43b6 	orr.w	r3, r3, #1526726656	; 0x5b000000
    8cfc:	bf08      	it	eq
    8cfe:	f1a3 5380 	subeq.w	r3, r3, #268435456	; 0x10000000
    8d02:	f5a3 0300 	sub.w	r3, r3, #8388608	; 0x800000
    8d06:	fabc f28c 	clz	r2, ip
    8d0a:	3a08      	subs	r2, #8
    8d0c:	eba3 53c2 	sub.w	r3, r3, r2, lsl #23
    8d10:	db10      	blt.n	8d34 <__aeabi_l2f+0x5c>
    8d12:	fa01 fc02 	lsl.w	ip, r1, r2
    8d16:	4463      	add	r3, ip
    8d18:	fa00 fc02 	lsl.w	ip, r0, r2
    8d1c:	f1c2 0220 	rsb	r2, r2, #32
    8d20:	f1bc 4f00 	cmp.w	ip, #2147483648	; 0x80000000
    8d24:	fa20 f202 	lsr.w	r2, r0, r2
    8d28:	eb43 0002 	adc.w	r0, r3, r2
    8d2c:	bf08      	it	eq
    8d2e:	f020 0001 	biceq.w	r0, r0, #1
    8d32:	4770      	bx	lr
    8d34:	f102 0220 	add.w	r2, r2, #32
    8d38:	fa01 fc02 	lsl.w	ip, r1, r2
    8d3c:	f1c2 0220 	rsb	r2, r2, #32
    8d40:	ea50 004c 	orrs.w	r0, r0, ip, lsl #1
    8d44:	fa21 f202 	lsr.w	r2, r1, r2
    8d48:	eb43 0002 	adc.w	r0, r3, r2
    8d4c:	bf08      	it	eq
    8d4e:	ea20 70dc 	biceq.w	r0, r0, ip, lsr #31
    8d52:	4770      	bx	lr

00008d54 <__aeabi_fmul>:
    8d54:	f04f 0cff 	mov.w	ip, #255	; 0xff
    8d58:	ea1c 52d0 	ands.w	r2, ip, r0, lsr #23
    8d5c:	bf1e      	ittt	ne
    8d5e:	ea1c 53d1 	andsne.w	r3, ip, r1, lsr #23
    8d62:	ea92 0f0c 	teqne	r2, ip
    8d66:	ea93 0f0c 	teqne	r3, ip
    8d6a:	d06f      	beq.n	8e4c <__aeabi_fmul+0xf8>
    8d6c:	441a      	add	r2, r3
    8d6e:	ea80 0c01 	eor.w	ip, r0, r1
    8d72:	0240      	lsls	r0, r0, #9
    8d74:	bf18      	it	ne
    8d76:	ea5f 2141 	movsne.w	r1, r1, lsl #9
    8d7a:	d01e      	beq.n	8dba <__aeabi_fmul+0x66>
    8d7c:	f04f 6300 	mov.w	r3, #134217728	; 0x8000000
    8d80:	ea43 1050 	orr.w	r0, r3, r0, lsr #5
    8d84:	ea43 1151 	orr.w	r1, r3, r1, lsr #5
    8d88:	fba0 3101 	umull	r3, r1, r0, r1
    8d8c:	f00c 4000 	and.w	r0, ip, #2147483648	; 0x80000000
    8d90:	f5b1 0f00 	cmp.w	r1, #8388608	; 0x800000
    8d94:	bf3e      	ittt	cc
    8d96:	0049      	lslcc	r1, r1, #1
    8d98:	ea41 71d3 	orrcc.w	r1, r1, r3, lsr #31
    8d9c:	005b      	lslcc	r3, r3, #1
    8d9e:	ea40 0001 	orr.w	r0, r0, r1
    8da2:	f162 027f 	sbc.w	r2, r2, #127	; 0x7f
    8da6:	2afd      	cmp	r2, #253	; 0xfd
    8da8:	d81d      	bhi.n	8de6 <__aeabi_fmul+0x92>
    8daa:	f1b3 4f00 	cmp.w	r3, #2147483648	; 0x80000000
    8dae:	eb40 50c2 	adc.w	r0, r0, r2, lsl #23
    8db2:	bf08      	it	eq
    8db4:	f020 0001 	biceq.w	r0, r0, #1
    8db8:	4770      	bx	lr
    8dba:	f090 0f00 	teq	r0, #0
    8dbe:	f00c 4c00 	and.w	ip, ip, #2147483648	; 0x80000000
    8dc2:	bf08      	it	eq
    8dc4:	0249      	lsleq	r1, r1, #9
    8dc6:	ea4c 2050 	orr.w	r0, ip, r0, lsr #9
    8dca:	ea40 2051 	orr.w	r0, r0, r1, lsr #9
    8dce:	3a7f      	subs	r2, #127	; 0x7f
    8dd0:	bfc2      	ittt	gt
    8dd2:	f1d2 03ff 	rsbsgt	r3, r2, #255	; 0xff
    8dd6:	ea40 50c2 	orrgt.w	r0, r0, r2, lsl #23
    8dda:	4770      	bxgt	lr
    8ddc:	f440 0000 	orr.w	r0, r0, #8388608	; 0x800000
    8de0:	f04f 0300 	mov.w	r3, #0
    8de4:	3a01      	subs	r2, #1
    8de6:	dc5d      	bgt.n	8ea4 <__aeabi_fmul+0x150>
    8de8:	f112 0f19 	cmn.w	r2, #25
    8dec:	bfdc      	itt	le
    8dee:	f000 4000 	andle.w	r0, r0, #2147483648	; 0x80000000
    8df2:	4770      	bxle	lr
    8df4:	f1c2 0200 	rsb	r2, r2, #0
    8df8:	0041      	lsls	r1, r0, #1
    8dfa:	fa21 f102 	lsr.w	r1, r1, r2
    8dfe:	f1c2 0220 	rsb	r2, r2, #32
    8e02:	fa00 fc02 	lsl.w	ip, r0, r2
    8e06:	ea5f 0031 	movs.w	r0, r1, rrx
    8e0a:	f140 0000 	adc.w	r0, r0, #0
    8e0e:	ea53 034c 	orrs.w	r3, r3, ip, lsl #1
    8e12:	bf08      	it	eq
    8e14:	ea20 70dc 	biceq.w	r0, r0, ip, lsr #31
    8e18:	4770      	bx	lr
    8e1a:	f092 0f00 	teq	r2, #0
    8e1e:	f000 4c00 	and.w	ip, r0, #2147483648	; 0x80000000
    8e22:	bf02      	ittt	eq
    8e24:	0040      	lsleq	r0, r0, #1
    8e26:	f410 0f00 	tsteq.w	r0, #8388608	; 0x800000
    8e2a:	3a01      	subeq	r2, #1
    8e2c:	d0f9      	beq.n	8e22 <__aeabi_fmul+0xce>
    8e2e:	ea40 000c 	orr.w	r0, r0, ip
    8e32:	f093 0f00 	teq	r3, #0
    8e36:	f001 4c00 	and.w	ip, r1, #2147483648	; 0x80000000
    8e3a:	bf02      	ittt	eq
    8e3c:	0049      	lsleq	r1, r1, #1
    8e3e:	f411 0f00 	tsteq.w	r1, #8388608	; 0x800000
    8e42:	3b01      	subeq	r3, #1
    8e44:	d0f9      	beq.n	8e3a <__aeabi_fmul+0xe6>
    8e46:	ea41 010c 	orr.w	r1, r1, ip
    8e4a:	e78f      	b.n	8d6c <__aeabi_fmul+0x18>
    8e4c:	ea0c 53d1 	and.w	r3, ip, r1, lsr #23
    8e50:	ea92 0f0c 	teq	r2, ip
    8e54:	bf18      	it	ne
    8e56:	ea93 0f0c 	teqne	r3, ip
    8e5a:	d00a      	beq.n	8e72 <__aeabi_fmul+0x11e>
    8e5c:	f030 4c00 	bics.w	ip, r0, #2147483648	; 0x80000000
    8e60:	bf18      	it	ne
    8e62:	f031 4c00 	bicsne.w	ip, r1, #2147483648	; 0x80000000
    8e66:	d1d8      	bne.n	8e1a <__aeabi_fmul+0xc6>
    8e68:	ea80 0001 	eor.w	r0, r0, r1
    8e6c:	f000 4000 	and.w	r0, r0, #2147483648	; 0x80000000
    8e70:	4770      	bx	lr
    8e72:	f090 0f00 	teq	r0, #0
    8e76:	bf17      	itett	ne
    8e78:	f090 4f00 	teqne	r0, #2147483648	; 0x80000000
    8e7c:	4608      	moveq	r0, r1
    8e7e:	f091 0f00 	teqne	r1, #0
    8e82:	f091 4f00 	teqne	r1, #2147483648	; 0x80000000
    8e86:	d014      	beq.n	8eb2 <__aeabi_fmul+0x15e>
    8e88:	ea92 0f0c 	teq	r2, ip
    8e8c:	d101      	bne.n	8e92 <__aeabi_fmul+0x13e>
    8e8e:	0242      	lsls	r2, r0, #9
    8e90:	d10f      	bne.n	8eb2 <__aeabi_fmul+0x15e>
    8e92:	ea93 0f0c 	teq	r3, ip
    8e96:	d103      	bne.n	8ea0 <__aeabi_fmul+0x14c>
    8e98:	024b      	lsls	r3, r1, #9
    8e9a:	bf18      	it	ne
    8e9c:	4608      	movne	r0, r1
    8e9e:	d108      	bne.n	8eb2 <__aeabi_fmul+0x15e>
    8ea0:	ea80 0001 	eor.w	r0, r0, r1
    8ea4:	f000 4000 	and.w	r0, r0, #2147483648	; 0x80000000
    8ea8:	f040 40fe 	orr.w	r0, r0, #2130706432	; 0x7f000000
    8eac:	f440 0000 	orr.w	r0, r0, #8388608	; 0x800000
    8eb0:	4770      	bx	lr
    8eb2:	f040 40fe 	orr.w	r0, r0, #2130706432	; 0x7f000000
    8eb6:	f440 0040 	orr.w	r0, r0, #12582912	; 0xc00000
    8eba:	4770      	bx	lr

00008ebc <__aeabi_fdiv>:
    8ebc:	f04f 0cff 	mov.w	ip, #255	; 0xff
    8ec0:	ea1c 52d0 	ands.w	r2, ip, r0, lsr #23
    8ec4:	bf1e      	ittt	ne
    8ec6:	ea1c 53d1 	andsne.w	r3, ip, r1, lsr #23
    8eca:	ea92 0f0c 	teqne	r2, ip
    8ece:	ea93 0f0c 	teqne	r3, ip
    8ed2:	d069      	beq.n	8fa8 <__aeabi_fdiv+0xec>
    8ed4:	eba2 0203 	sub.w	r2, r2, r3
    8ed8:	ea80 0c01 	eor.w	ip, r0, r1
    8edc:	0249      	lsls	r1, r1, #9
    8ede:	ea4f 2040 	mov.w	r0, r0, lsl #9
    8ee2:	d037      	beq.n	8f54 <__aeabi_fdiv+0x98>
    8ee4:	f04f 5380 	mov.w	r3, #268435456	; 0x10000000
    8ee8:	ea43 1111 	orr.w	r1, r3, r1, lsr #4
    8eec:	ea43 1310 	orr.w	r3, r3, r0, lsr #4
    8ef0:	f00c 4000 	and.w	r0, ip, #2147483648	; 0x80000000
    8ef4:	428b      	cmp	r3, r1
    8ef6:	bf38      	it	cc
    8ef8:	005b      	lslcc	r3, r3, #1
    8efa:	f142 027d 	adc.w	r2, r2, #125	; 0x7d
    8efe:	f44f 0c00 	mov.w	ip, #8388608	; 0x800000
    8f02:	428b      	cmp	r3, r1
    8f04:	bf24      	itt	cs
    8f06:	1a5b      	subcs	r3, r3, r1
    8f08:	ea40 000c 	orrcs.w	r0, r0, ip
    8f0c:	ebb3 0f51 	cmp.w	r3, r1, lsr #1
    8f10:	bf24      	itt	cs
    8f12:	eba3 0351 	subcs.w	r3, r3, r1, lsr #1
    8f16:	ea40 005c 	orrcs.w	r0, r0, ip, lsr #1
    8f1a:	ebb3 0f91 	cmp.w	r3, r1, lsr #2
    8f1e:	bf24      	itt	cs
    8f20:	eba3 0391 	subcs.w	r3, r3, r1, lsr #2
    8f24:	ea40 009c 	orrcs.w	r0, r0, ip, lsr #2
    8f28:	ebb3 0fd1 	cmp.w	r3, r1, lsr #3
    8f2c:	bf24      	itt	cs
    8f2e:	eba3 03d1 	subcs.w	r3, r3, r1, lsr #3
    8f32:	ea40 00dc 	orrcs.w	r0, r0, ip, lsr #3
    8f36:	011b      	lsls	r3, r3, #4
    8f38:	bf18      	it	ne
    8f3a:	ea5f 1c1c 	movsne.w	ip, ip, lsr #4
    8f3e:	d1e0      	bne.n	8f02 <__aeabi_fdiv+0x46>
    8f40:	2afd      	cmp	r2, #253	; 0xfd
    8f42:	f63f af50 	bhi.w	8de6 <__aeabi_fmul+0x92>
    8f46:	428b      	cmp	r3, r1
    8f48:	eb40 50c2 	adc.w	r0, r0, r2, lsl #23
    8f4c:	bf08      	it	eq
    8f4e:	f020 0001 	biceq.w	r0, r0, #1
    8f52:	4770      	bx	lr
    8f54:	f00c 4c00 	and.w	ip, ip, #2147483648	; 0x80000000
    8f58:	ea4c 2050 	orr.w	r0, ip, r0, lsr #9
    8f5c:	327f      	adds	r2, #127	; 0x7f
    8f5e:	bfc2      	ittt	gt
    8f60:	f1d2 03ff 	rsbsgt	r3, r2, #255	; 0xff
    8f64:	ea40 50c2 	orrgt.w	r0, r0, r2, lsl #23
    8f68:	4770      	bxgt	lr
    8f6a:	f440 0000 	orr.w	r0, r0, #8388608	; 0x800000
    8f6e:	f04f 0300 	mov.w	r3, #0
    8f72:	3a01      	subs	r2, #1
    8f74:	e737      	b.n	8de6 <__aeabi_fmul+0x92>
    8f76:	f092 0f00 	teq	r2, #0
    8f7a:	f000 4c00 	and.w	ip, r0, #2147483648	; 0x80000000
    8f7e:	bf02      	ittt	eq
    8f80:	0040      	lsleq	r0, r0, #1
    8f82:	f410 0f00 	tsteq.w	r0, #8388608	; 0x800000
    8f86:	3a01      	subeq	r2, #1
    8f88:	d0f9      	beq.n	8f7e <__aeabi_fdiv+0xc2>
    8f8a:	ea40 000c 	orr.w	r0, r0, ip
    8f8e:	f093 0f00 	teq	r3, #0
    8f92:	f001 4c00 	and.w	ip, r1, #2147483648	; 0x80000000
    8f96:	bf02      	ittt	eq
    8f98:	0049      	lsleq	r1, r1, #1
    8f9a:	f411 0f00 	tsteq.w	r1, #8388608	; 0x800000
    8f9e:	3b01      	subeq	r3, #1
    8fa0:	d0f9      	beq.n	8f96 <__aeabi_fdiv+0xda>
    8fa2:	ea41 010c 	orr.w	r1, r1, ip
    8fa6:	e795      	b.n	8ed4 <__aeabi_fdiv+0x18>
    8fa8:	ea0c 53d1 	and.w	r3, ip, r1, lsr #23
    8fac:	ea92 0f0c 	teq	r2, ip
    8fb0:	d108      	bne.n	8fc4 <__aeabi_fdiv+0x108>
    8fb2:	0242      	lsls	r2, r0, #9
    8fb4:	f47f af7d 	bne.w	8eb2 <__aeabi_fmul+0x15e>
    8fb8:	ea93 0f0c 	teq	r3, ip
    8fbc:	f47f af70 	bne.w	8ea0 <__aeabi_fmul+0x14c>
    8fc0:	4608      	mov	r0, r1
    8fc2:	e776      	b.n	8eb2 <__aeabi_fmul+0x15e>
    8fc4:	ea93 0f0c 	teq	r3, ip
    8fc8:	d104      	bne.n	8fd4 <__aeabi_fdiv+0x118>
    8fca:	024b      	lsls	r3, r1, #9
    8fcc:	f43f af4c 	beq.w	8e68 <__aeabi_fmul+0x114>
    8fd0:	4608      	mov	r0, r1
    8fd2:	e76e      	b.n	8eb2 <__aeabi_fmul+0x15e>
    8fd4:	f030 4c00 	bics.w	ip, r0, #2147483648	; 0x80000000
    8fd8:	bf18      	it	ne
    8fda:	f031 4c00 	bicsne.w	ip, r1, #2147483648	; 0x80000000
    8fde:	d1ca      	bne.n	8f76 <__aeabi_fdiv+0xba>
    8fe0:	f030 4200 	bics.w	r2, r0, #2147483648	; 0x80000000
    8fe4:	f47f af5c 	bne.w	8ea0 <__aeabi_fmul+0x14c>
    8fe8:	f031 4300 	bics.w	r3, r1, #2147483648	; 0x80000000
    8fec:	f47f af3c 	bne.w	8e68 <__aeabi_fmul+0x114>
    8ff0:	e75f      	b.n	8eb2 <__aeabi_fmul+0x15e>
    8ff2:	bf00      	nop

00008ff4 <__gesf2>:
    8ff4:	f04f 3cff 	mov.w	ip, #4294967295
    8ff8:	e006      	b.n	9008 <__cmpsf2+0x4>
    8ffa:	bf00      	nop

00008ffc <__lesf2>:
    8ffc:	f04f 0c01 	mov.w	ip, #1
    9000:	e002      	b.n	9008 <__cmpsf2+0x4>
    9002:	bf00      	nop

00009004 <__cmpsf2>:
    9004:	f04f 0c01 	mov.w	ip, #1
    9008:	f84d cd04 	str.w	ip, [sp, #-4]!
    900c:	ea4f 0240 	mov.w	r2, r0, lsl #1
    9010:	ea4f 0341 	mov.w	r3, r1, lsl #1
    9014:	ea7f 6c22 	mvns.w	ip, r2, asr #24
    9018:	bf18      	it	ne
    901a:	ea7f 6c23 	mvnsne.w	ip, r3, asr #24
    901e:	d011      	beq.n	9044 <__cmpsf2+0x40>
    9020:	b001      	add	sp, #4
    9022:	ea52 0c53 	orrs.w	ip, r2, r3, lsr #1
    9026:	bf18      	it	ne
    9028:	ea90 0f01 	teqne	r0, r1
    902c:	bf58      	it	pl
    902e:	ebb2 0003 	subspl.w	r0, r2, r3
    9032:	bf88      	it	hi
    9034:	17c8      	asrhi	r0, r1, #31
    9036:	bf38      	it	cc
    9038:	ea6f 70e1 	mvncc.w	r0, r1, asr #31
    903c:	bf18      	it	ne
    903e:	f040 0001 	orrne.w	r0, r0, #1
    9042:	4770      	bx	lr
    9044:	ea7f 6c22 	mvns.w	ip, r2, asr #24
    9048:	d102      	bne.n	9050 <__cmpsf2+0x4c>
    904a:	ea5f 2c40 	movs.w	ip, r0, lsl #9
    904e:	d105      	bne.n	905c <__cmpsf2+0x58>
    9050:	ea7f 6c23 	mvns.w	ip, r3, asr #24
    9054:	d1e4      	bne.n	9020 <__cmpsf2+0x1c>
    9056:	ea5f 2c41 	movs.w	ip, r1, lsl #9
    905a:	d0e1      	beq.n	9020 <__cmpsf2+0x1c>
    905c:	f85d 0b04 	ldr.w	r0, [sp], #4
    9060:	4770      	bx	lr
    9062:	bf00      	nop

00009064 <__aeabi_cfrcmple>:
    9064:	4684      	mov	ip, r0
    9066:	4608      	mov	r0, r1
    9068:	4661      	mov	r1, ip
    906a:	e7ff      	b.n	906c <__aeabi_cfcmpeq>

0000906c <__aeabi_cfcmpeq>:
    906c:	b50f      	push	{r0, r1, r2, r3, lr}
    906e:	f7ff ffc9 	bl	9004 <__cmpsf2>
    9072:	2800      	cmp	r0, #0
    9074:	bf48      	it	mi
    9076:	f110 0f00 	cmnmi.w	r0, #0
    907a:	bd0f      	pop	{r0, r1, r2, r3, pc}

0000907c <__aeabi_fcmpeq>:
    907c:	f84d ed08 	str.w	lr, [sp, #-8]!
    9080:	f7ff fff4 	bl	906c <__aeabi_cfcmpeq>
    9084:	bf0c      	ite	eq
    9086:	2001      	moveq	r0, #1
    9088:	2000      	movne	r0, #0
    908a:	f85d fb08 	ldr.w	pc, [sp], #8
    908e:	bf00      	nop

00009090 <__aeabi_fcmplt>:
    9090:	f84d ed08 	str.w	lr, [sp, #-8]!
    9094:	f7ff ffea 	bl	906c <__aeabi_cfcmpeq>
    9098:	bf34      	ite	cc
    909a:	2001      	movcc	r0, #1
    909c:	2000      	movcs	r0, #0
    909e:	f85d fb08 	ldr.w	pc, [sp], #8
    90a2:	bf00      	nop

000090a4 <__aeabi_fcmple>:
    90a4:	f84d ed08 	str.w	lr, [sp, #-8]!
    90a8:	f7ff ffe0 	bl	906c <__aeabi_cfcmpeq>
    90ac:	bf94      	ite	ls
    90ae:	2001      	movls	r0, #1
    90b0:	2000      	movhi	r0, #0
    90b2:	f85d fb08 	ldr.w	pc, [sp], #8
    90b6:	bf00      	nop

000090b8 <__aeabi_fcmpge>:
    90b8:	f84d ed08 	str.w	lr, [sp, #-8]!
    90bc:	f7ff ffd2 	bl	9064 <__aeabi_cfrcmple>
    90c0:	bf94      	ite	ls
    90c2:	2001      	movls	r0, #1
    90c4:	2000      	movhi	r0, #0
    90c6:	f85d fb08 	ldr.w	pc, [sp], #8
    90ca:	bf00      	nop

000090cc <__aeabi_fcmpgt>:
    90cc:	f84d ed08 	str.w	lr, [sp, #-8]!
    90d0:	f7ff ffc8 	bl	9064 <__aeabi_cfrcmple>
    90d4:	bf34      	ite	cc
    90d6:	2001      	movcc	r0, #1
    90d8:	2000      	movcs	r0, #0
    90da:	f85d fb08 	ldr.w	pc, [sp], #8
    90de:	bf00      	nop

000090e0 <__aeabi_f2iz>:
    90e0:	ea4f 0240 	mov.w	r2, r0, lsl #1
    90e4:	f1b2 4ffe 	cmp.w	r2, #2130706432	; 0x7f000000
    90e8:	d30f      	bcc.n	910a <__aeabi_f2iz+0x2a>
    90ea:	f04f 039e 	mov.w	r3, #158	; 0x9e
    90ee:	ebb3 6212 	subs.w	r2, r3, r2, lsr #24
    90f2:	d90d      	bls.n	9110 <__aeabi_f2iz+0x30>
    90f4:	ea4f 2300 	mov.w	r3, r0, lsl #8
    90f8:	f043 4300 	orr.w	r3, r3, #2147483648	; 0x80000000
    90fc:	f010 4f00 	tst.w	r0, #2147483648	; 0x80000000
    9100:	fa23 f002 	lsr.w	r0, r3, r2
    9104:	bf18      	it	ne
    9106:	4240      	negne	r0, r0
    9108:	4770      	bx	lr
    910a:	f04f 0000 	mov.w	r0, #0
    910e:	4770      	bx	lr
    9110:	f112 0f61 	cmn.w	r2, #97	; 0x61
    9114:	d101      	bne.n	911a <__aeabi_f2iz+0x3a>
    9116:	0242      	lsls	r2, r0, #9
    9118:	d105      	bne.n	9126 <__aeabi_f2iz+0x46>
    911a:	f010 4000 	ands.w	r0, r0, #2147483648	; 0x80000000
    911e:	bf08      	it	eq
    9120:	f06f 4000 	mvneq.w	r0, #2147483648	; 0x80000000
    9124:	4770      	bx	lr
    9126:	f04f 0000 	mov.w	r0, #0
    912a:	4770      	bx	lr

0000912c <__aeabi_f2uiz>:
    912c:	0042      	lsls	r2, r0, #1
    912e:	d20e      	bcs.n	914e <__aeabi_f2uiz+0x22>
    9130:	f1b2 4ffe 	cmp.w	r2, #2130706432	; 0x7f000000
    9134:	d30b      	bcc.n	914e <__aeabi_f2uiz+0x22>
    9136:	f04f 039e 	mov.w	r3, #158	; 0x9e
    913a:	ebb3 6212 	subs.w	r2, r3, r2, lsr #24
    913e:	d409      	bmi.n	9154 <__aeabi_f2uiz+0x28>
    9140:	ea4f 2300 	mov.w	r3, r0, lsl #8
    9144:	f043 4300 	orr.w	r3, r3, #2147483648	; 0x80000000
    9148:	fa23 f002 	lsr.w	r0, r3, r2
    914c:	4770      	bx	lr
    914e:	f04f 0000 	mov.w	r0, #0
    9152:	4770      	bx	lr
    9154:	f112 0f61 	cmn.w	r2, #97	; 0x61
    9158:	d101      	bne.n	915e <__aeabi_f2uiz+0x32>
    915a:	0242      	lsls	r2, r0, #9
    915c:	d102      	bne.n	9164 <__aeabi_f2uiz+0x38>
    915e:	f04f 30ff 	mov.w	r0, #4294967295
    9162:	4770      	bx	lr
    9164:	f04f 0000 	mov.w	r0, #0
    9168:	4770      	bx	lr
    916a:	bf00      	nop
    916c:	31300020 	.word	0x31300020
    9170:	35343332 	.word	0x35343332
    9174:	39383736 	.word	0x39383736
    9178:	64636261 	.word	0x64636261
    917c:	45006665 	.word	0x45006665
    9180:	524f5252 	.word	0x524f5252
    9184:	00000000 	.word	0x00000000

00009188 <g_psDaysToMonth>:
    9188:	001f0000 005a003b 00970078 00d400b5     ....;.Z.x.......
    9198:	011100f3 014e0130                       ....0.N.

000091a0 <C.1.2544>:
    91a0:	aaaaaaaa aaaaaaaa aaaaaaaa aaaaaaaa     ................
    91b0:	00000000 61726150 7274656d 72702079     ....Parametry pr
    91c0:	6172676f 6e20756d 64252072 000a203a     ogramu nr %d: ..
    91d0:	617a432d 636f4473 756b7369 65747357     -CzasDociskuWste
    91e0:	67656e70 2020206f 20202020 6425203d     pnego       = %d
    91f0:	2d000a20 64617250 7a72675a 6e617765      ..-PradZgrzewan
    9200:	20206169 20202020 20202020 3d202020     ia             =
    9210:	20642520 432d000a 5a73617a 657a7267      %d ..-CzasZgrze
    9220:	696e6177 20202061 20202020 20202020     wania           
    9230:	203d2020 0a206425 61502d00 50617a75       = %d ..-PauzaP
    9240:	7267646f 6177657a 4b61696e 6f636e6f     odgrzewaniaKonco
    9250:	6f676577 25203d20 000a2064 6172502d     wego = %d ..-Pra
    9260:	646f5064 657a7267 696e6177 6e6f4b61     dPodgrzewaniaKon
    9270:	65776f63 20206f67 6425203d 0a000a20     cowego  = %d ...
    9280:	202a2a2a 52415453 52502054 4152474f     *** START PROGRA
    9290:	2a20554d 0a202a2a 6f6c4300 20206b63     MU *** ..Clock  
    92a0:	20202020 3125203d 5b206430 0a5d7a48         = %10d [Hz].
    92b0:	616c4600 69536873 2020657a 3125203d     .FlashSize  = %1
    92c0:	5b206430 65747962 000a5d73 4d415253     0d [bytes]..SRAM
    92d0:	657a6953 3d202020 30312520 625b2064     Size   = %10d [b
    92e0:	73657479 52000a5d 74657365 73756143     ytes]..ResetCaus
    92f0:	203d2065 64303125 44000a20 63697665     e = %10d ..Devic
    9300:	64492065 203d2030 30252020 0a207838     e Id0 =   %08x .
    9310:	76654400 20656369 20316449 2020203d     .Device Id1 =   
    9320:	78383025 42000a20 4320524f 72746e6f     %08x ..BOR Contr
    9330:	203d202e 30252020 0a207838 7a695300     . =   %08x ..Siz
    9340:	20666f65 67616d69 3d202065 20642520     eof image  = %d 
    9350:	6953000a 666f657a 72617020 20202020     ..Sizeof par    
    9360:	6425203d 4d000a20 206e6961 706f6f4c     = %d ..Main Loop
    9370:	61747320 64657472 0a2e2e2e 20755400      started.....Tu 
    9380:	54004350 74732075 776f7265 7a63696e     PC.Tu sterownicz
    9390:	000a6b65 6b636170 64613e2d 73657264     ek..pack->addres
    93a0:	6f6c5f73 20202020 203d2020 0a206425     s_lo      = %d .
    93b0:	63617000 623e2d6b 5f657479 6e756f63     .pack->byte_coun
    93c0:	20202074 3d202020 20642520 6170000a     t      = %d ..pa
    93d0:	3e2d6b63 5f637263 706d6f63 64657475     ck->crc_computed
    93e0:	20202020 6425203d 70000a20 2d6b6361         = %d ..pack-
    93f0:	6372633e 7272655f 756f635f 7265746e     >crc_err_counter
    9400:	25203d20 000a2064 6b636170 72633e2d      = %d ..pack->cr
    9410:	6f6c5f63 20202020 20202020 203d2020     c_lo          = 
    9420:	0a206425 63617000 633e2d6b 6f5f6372     %d ..pack->crc_o
    9430:	6f635f6b 65746e75 3d202072 20642520     k_counter  = %d 
    9440:	6170000a 3e2d6b63 5f637263 65636572     ..pack->crc_rece
    9450:	64657669 20202020 6425203d 70000a20     ived    = %d ..p
    9460:	2d6b6361 6e75663e 20202063 20202020     ack->func       
    9470:	20202020 25203d20 000a2064 6b636170          = %d ..pack
    9480:	64693e2d 20202020 20202020 20202020     ->id            
    9490:	203d2020 0a206425 63617000 6c3e2d6b       = %d ..pack->l
    94a0:	20206e65 20202020 20202020 3d202020     en             =
    94b0:	20642520 6170000a 3e2d6b63 6d6e656c      %d ..pack->lenm
    94c0:	20202020 20202020 20202020 6425203d                 = %d
    94d0:	70000a20 2d6b6361 6175713e 7469746e      ..pack->quantit
    94e0:	20202079 20202020 25203d20 000a2064     y        = %d ..
    94f0:	6b636170 75713e2d 69746e61 6c5f7974     pack->quantity_l
    9500:	2020206f 203d2020 0a206425 63617000     o     = %d ..pac
    9510:	733e2d6b 74726174 6464615f 73736572     k->start_address
    9520:	3d202020 20642520 6170000a 3e2d6b63        = %d ..pack->
    9530:	74617473 20207375 20202020 20202020     status          
    9540:	6425203d 0a000a20 44746e49 75616665     = %d ...IntDefau
    9550:	4920746c 0a215253 61460a00 20746c75     lt ISR!...Fault 
    9560:	21525349 4e0a000a 4920494d 0a215253     ISR!...NMI ISR!.
    9570:	00000000                                ....

00009574 <g_pulGPIOBaseAddrs>:
    9574:	40004000 40058000 40005000 40059000     .@.@...@.P.@...@
    9584:	40006000 4005a000 40007000 4005b000     .`.@...@.p.@...@
    9594:	40024000 4005c000 40025000 4005d000     .@.@...@.P.@...@
    95a4:	40026000 4005e000 40027000 4005f000     .`.@...@.p.@...@
    95b4:	4003d000 40060000                       ...@...@

000095bc <g_pulPriority>:
    95bc:	00000700 00000600 00000500 00000400     ................
    95cc:	00000300 00000200 00000100 00000000     ................

000095dc <g_pulRegs>:
    95dc:	00000000 e000ed18 e000ed1c e000ed20     ............ ...
    95ec:	e000e400 e000e404 e000e408 e000e40c     ................
    95fc:	e000e410 e000e414 e000e418 e000e41c     ................
    960c:	e000e420 e000e424 e000e428 e000e42c      ...$...(...,...
    961c:	e000e430 e000e434                       0...4...

00009624 <g_pulDCRegs>:
    9624:	400fe010 400fe014 400fe01c 400fe010     ...@...@...@...@

00009634 <g_pulSRCRRegs>:
    9634:	400fe040 400fe044 400fe048              @..@D..@H..@

00009640 <g_pulRCGCRegs>:
    9640:	400fe100 400fe104 400fe108              ...@...@...@

0000964c <g_pulSCGCRegs>:
    964c:	400fe110 400fe114 400fe118              ...@...@...@

00009658 <g_pulDCGCRegs>:
    9658:	400fe120 400fe124 400fe128               ..@$..@(..@

00009664 <g_pulXtals>:
    9664:	000f4240 001c2000 001e8480 00258000     @B... ........%.
    9674:	00369e99 00384000 003d0900 003e8000     ..6..@8...=...>.
    9684:	004b0000 004c4b40 004e2000 005b8d80     ..K.@KL.. N...[.
    9694:	005dc000 00708000 007a1200 007d0000     ..]...p...z...}.
    96a4:	00989680 00b71b00 00bb8000 00cee8c0     ................
    96b4:	00da7a64 00f42400 00fa0000              dz...$......
